SLR180 SuperFast Relocating Macro Assembler     			    SLR180 1.31 Page   1
NORMAL  Z80

    1         0000      DUENN	EQU	0	; 0 = Zeichensatz klassisch, 1 = Zeichensatz duenn
    2                   INCLUDE	CAOS48.Z80
    1                   ;*************************************************
    2                   ;**						**
    3                   ;**	CAOS 4.8   (c) KC-Club 2021-2023	**
    4                   ;**						**
    5                   ;*************************************************
    6                   ;**						**
    7                   ;**	Entwickler:				**
    8                   ;**		Mario Leubner			**
    9                   ;**		Daniel Elstner (CAOS 4.5)	**
   10                   ;**		Frank Ludwig (Teile in CAOS 4.8)**
   11                   ;**						**
   12                   ;**	CAOS-Versionen:				**
   13                   ;**	13.04.1994 - CAOS 4.2 Reassemblierung	**
   14                   ;**	17.02.1995 - CAOS 4.3			**
   15                   ;**	09.02.2003 - CAOS 4.4			**
   16                   ;**	06.09.2010 - CAOS 4.5			**
   17                   ;**	05.03.2016 - CAOS 4.6 beta2 (KC-Labor)	**
   18                   ;**	04.12.2018 - CAOS 4.7 final		**
   19                   ;**	03.02.2018 - CAOS 4.7 final & EDIT 0.4	**
   20                   ;**	10.04.2019 - CAOS 4.7 Patch 1		**
   21                   ;**	24.03.2020 - CAOS 4.8 beta1 (KC-Labor)	**
   22                   ;**	08.10.2020 - CAOS 4.8 beta2 (KC-Labor)	**
   23                   ;**	20.12.2020 - CAOS 4.8 beta3 (KC-Labor)	**
   24                   ;**	04.04.2021 - CAOS 4.8 beta4 (KC-Labor)	**
   25                   ;**	22.05.2021 - CAOS 4.8 beta5 (KC-Labor)	**
   26                   ;**	20.06.2021 - CAOS 4.8 final (KC-Labor)	**
   27                   ;**	12.09.2021 - CAOS 4.8 Patch 1		**
   28                   ;**	01.01.2022 - CAOS 4.8 Patch 2		**
   29                   ;**	21.05.2022 - CAOS 4.8 Patch 3		**
   30                   ;**	20.02.2023 - CAOS 4.8 Patch 4		**
   31                   ;**	25.09.2023 - CAOS 4.8 Patch 5		**
   32                   ;**						**
   33                   ;*************************************************
   34                   
   35                   ; !!! Versionsdatum nur noch in VORBLOCK.INC eintragen !!!
   36                   
   37         0000      BETA	equ	0		; 0 fuer Vollversion, 1 fuer beta-Version
   38                   	;benoetigt 1 Byte im ROM C
   39                   
   40                   ; Die Bits 2, 3 und 4 von Port2 (86h) sind beim KC85/4 nicht benutzt worden.
   41                   ; Fuer eine Nutzung beim KC85/5 gibt es mehrere Ideen/Optionen. Diese sind
   42                   ; untereinander nicht kompatibel. CAOS 4.8 ist zur Nutzung des 512K-Flash-ROM
   43                   ; mit Zeichensatz-Umschaltung vorbereitet. Die Erweiterung des RAM bzw. USER-ROM
   44                   ; ist dadurch nicht mehr vorgesehen. Wenn kein Flash-ROM installiert ist, kann
   45                   ; aber trotzdem durch nachgeladene Treiber z.B. der RAM mit 1 oder 2 MByte
   46                   ; genutzt werden. Die einzelnen Optionen nutzen folgende Bits:
   47                   ;
   48                   ; Option  234	Beschreibung
   49                   ; RAM1MB  xx-	Erweiterung des internen RAM auf 1MByte
   50                   ; RAM2MB  xxx	Erweiterung des internen RAM auf 2MByte
   51                   ; USER8   --x	Erweiterung des USER-ROM von 4 auf 8 Ebenen
   52                   ; CAOS2   --x	Zeichensatz-Umschaltung durch zweite CAOS-ROM-Ebene
   53                   ; SYSROM  xx-	Ansteuerung eines 512K Flash-ROM mit 8 CAOS-Versionen
   54                   
   55         0001      CAOS2	EQU	1		; Erweiterung zur Umschaltung des Zeichensatzes
   56                   	;benoetigt 8 Byte im ROM C
SLR180 SuperFast Relocating Macro Assembler     			    SLR180 1.31 Page   2
CAOS48  Z80

   57                   ; Diese Erweiterung setzt einen 16K grossen CAOS-ROM-C und einen 16K grossen
   58                   ; CAOS-ROM-E voraus. In der ersten Haelfte der ROM's wird das System mit dem
   59                   ; duennen Zeichensatz gebrannt, in der zweiten Haelfte der Standard-Zeichensatz.
   60                   ; Umgeschaltet wird mit Bit 4 von Port 86h (IX+4) bzw. SWITCH 5 10
   61                   
   62         0001      SYSROM	EQU	1		; Erweiterung fuer 8 Ebenen System-ROM
   63                   	;benoetigt 29 Byte im ROM C
   64                   	;benoetigt 5 Byte im ROM F
   65                   ; Diese Erweiterung setzt je einen Flash-ROM mit 8 CAOS-Versionen voraus.
   66                   ; Ueber die Bits 2 und 3 des Port 86h wird ein Zaehler initiiert, welcher die
   67                   ; aktuelle Ebene speichert und diese als Adresse an den Flash-ROM weiter gibt.
   68                   ; Ein H-Impuls an Bit 3 (86h) bei Bit 2=High setzt den Zaehler zurueck
   69                   ; Ein H-Impuls an Bit 3 (86h) bei Bit 2=Low zaehlt den Zaehler vorwaerts
   70                   ;
   71                   ; Umgeschalten werden die System-Ebenen mit JUMP 0 bis 7
   72                   
   73         0000      RAM1MB	EQU	0		; RAM8 mit 1MB verwalten?
   74                   	;benoetigt 26 Byte im ROM C
   75                   ; Diese Erweiterung setzt 1MByte RAM statt des 256K RAM im Grundgeraet voraus.
   76                   ; Die Idee dazu stammt von Frank Dachselt und war im Original sogar 2MByte gross
   77                   ; und zusaetzlich noch auf Moduladresse 06 mit dem zweiten Megabyte praesent.
   78                   ; Hardware: Die zusaetzlichen beiden RAM-Adressen werden auf Bit 2 und 3 des
   79                   ; Port2 (86h) gelegt (Bei 2MB war das Bit 4 auch noch mit genutzt)
   80                   ;
   81                   ; Diese Erweiterung kann nicht genutzt werden, wenn die Option SYSROM aktiv ist.
   82                   
   83         0000      USER8	EQU	0		; Erweiterung des USER-ROM in 8 Ebenen
   84                   	;benoetigt 2 Byte im ROM C
   85                   ; Diese Erweiterung setzt einen 64K ROM an Stelle des 32K USER-ROM voraus.
   86                   ;
   87                   ; Umgeschalten werden die 8 USER-ROM Ebenen mit Bit 4, 5 und 6 des Port 86h
   88                   ; SWITCH 2 nn ergibt dann:
   89                   ; nn=C1	Ebene 0	BASIC
   90                   ; nn=C9 Ebene 1
   91                   ; nn=D1	Ebene 2	DEBUGGER
   92                   ; nn=D9 Ebene 3
   93                   ; nn=E1	Ebene 4	ASM
   94                   ; nn=E9 Ebene 5
   95                   ; nn=F1	Ebene 6	EDIT
   96                   ; nn=F9 Ebene 7
   97                   ;
   98                   ; Diese Erweiterung kann nicht genutzt werden, wenn die Option CAOS2 aktiv ist.
   99                   
  100                   ; Uebersetzen ohne Erzeugen eines Listings:
  101                   ;	SLRZ80 CAOS48.@@Z/F
  102                   ; oder:	Z80ASM CAOS48.@@Z/F
  103                   ;	REN CAOS48.COM CAOS48.KCC
  104                   
  105                   ; Uebersetzen mit Erzeugen eines Listings:
  106                   ;	SLRZ80 CAOS48/F
  107                   ; oder:	Z80ASM CAOS48/F
  108                   ;	REN CAOS48.COM CAOS48.KCC
  109                   
  110                   ; Hardware:	(KC85/5+)
  111                   ;
  112                   ;256 KByte interner RAM (RAM0,RAM4,RAM8)
  113                   ; 64 KByte IRM (2 unabhaengige Bilder)
  114                   ; 16 KByte CAOS-ROM C000-FFFF
SLR180 SuperFast Relocating Macro Assembler     			    SLR180 1.31 Page   3
CAOS48  Z80

  115                   ; 32 KByte USER-ROM C000-DFFF (4 Ebenen)
  116                   ; Statt der einzelnen ROMs kann auch die 512K Flash-ROM-Erweiterung von
  117                   ; Andreas Schlechte verwendet werden. Dann stehen gleichzeitig 8 verschiedene
  118                   ; CAOS-Versionen zur Verfuegung und auch beide Zeichensaetze von CAOS 4.8
  119                   ;---------------------------------------------------------------------
  120                   
  121                   ;**	Speicheruebersicht, Belegung der CAOS-ROMs	**
  122                   
  123                   ;Inhalt ROM-C:
  124                   ;C000	IRM-Defaulttabelle
  125                   ;C051	System-Initialisierung, Erzeugung Device-Treibertabellen
  126                   ;C1C0	SYSTEM-Check, Modulcheck
  127                   ;C349	Module lesen und schalten (SWITCH)
  128                   ;C488	F-Tastenbelegung (KEY, KEYLIST)
  129                   ;C57E	Farben setzen (COLOR)
  130                   ;C5BA	Fensterfunktionen (WINDOW, WINAK, WININ)
  131                   ;C64D	JUMP-Erweiterung 0-7 fuer FLASH-ROM-Baenke
  132                   ;C66A	Grafikfunktionen (LINE, PUSE, CIRCLE, PUDE)
  133                   ;C832	Speicherfunktionen (DISPLAY, MODIFY)
  134                   ;C8DE	Druckertreiber, V.24-Duplexbetrieb (Protokoll, Screen- oder Hardcopy)
  135                   ;CD22	Byteweise Ein-/Ausgaberoutinen (MBOUT, MBIN)
  136                   ;CE93	Tabelle der Modulnamen
  137                   
  138                   ;Inhalt ROM-D:
  139                   ;D003	TAPE-Treiber = Kassettenausgabe, Kassetteneingabe Standard
  140                   ;D0F9	DISK-Treiber = D004/D008 Floppy-Routinen
  141                   ;D1B6	Pixelausgabe, Fensterscrolling, Zeile loeschen
  142                   ;D2D0	Wurzelberechnung (SQR)
  143                   ;D2DE	Speichercheck VIEW
  144                   ;D320	Unterprogramme fuer Modulcheck
  145                   ;D34D	DISK: DIR, STAT, ERA, REN
  146                   ;D497	TYPE, DUMP, INIT
  147                   ;D5D6	DEVICE-Treiber umschalten, auflisten
  148                   ;D641	DISK: Laufwerk wechseln mit DRIVE
  149                   ;D6F5	TAPE: Kassetteninhalt auflisten mit TAPELIST
  150                   ;D7CC	Grafiksequenzen fuer die Drucker
  151                   ;D82B	V.24-Initialisierungstabellen
  152                   ;D858	Original der Unterprogrammtabelle SUTAB
  153                   ;D8F3	Treibertabellen fuer TAPE und DISK
  154                   ;D933	Portinittabellen
  155                   ;D959	M001-Initialisierungstabelle fuer Centronics
  156                   ;D965	Defaulttabelle fuer Joystick-Belegung
  157                   ;D971	ISRTAB	Interrupttabelle
  158                   ;D991	IBM-Codierungen fuer Druckerausgabe
  159                   ;D99F	CAOS-Versionsanzeige (HELP)
  160                   ;DAB8	IBM-Zeichensatz
  161                   
  162                   ;Inhalt ROM-E:
  163                   ;E000	RESET, BASIC-Verteiler
  164                   ;E055	CRT-Treiber (PADR, DABR, CRT-Grundprogramm)
  165                   ;E1D3	Routinen der Steuercodes
  166                   ;E2F2	Tastaturtreiber mit ISR CTC Kanal 3, PIO-B, SIO-B
  167                   ;E3E9	Joysticktreiber fuer M008/M021
  168                   ;E461	Kassetten-Routinen Eingabe/Ausgabe
  169                   ;E4DD	Programmverteiler PV7 fuer DEVICE-Umleitungen
  170                   ;E577	Interruptroutinen fuer Kassetten-Ein/Ausgabe
  171                   ;E599	BASIC-Erweiterungen
  172                   ;ED44	Sprung aus CAOS-ROM-C in ROM-Modul (z.B. M052-USB)
SLR180 SuperFast Relocating Macro Assembler     			    SLR180 1.31 Page   4
CAOS48  Z80

  173                   ;ED72	Initialisierungstabelle fuer M021
  174                   ;ED81	Interruptroutine fuer Tonlaenge (CTC2)
  175                   ;ED8A	Reaktionsprogramm auf Shift+CLR
  176                   ;EDA0	Dezimalausgabe
  177                   ;EDB0	Tabelle der ESC-Funktionen
  178                   ;EDE1	Autostart-Kommando und Dateiname fuer DISK/USB
  179                   ;EDF7	Zuordnungstabelle der BASIC-Kanaele
  180                   ;EDFF	CAOS-Versionsnummer
  181                   ;EE00	Zeichenbildtabelle Grossbuchstaben
  182                   
  183                   ;Inhalt ROM-F:
  184                   ;F000	Power-ON, Sprungverteiler PV1-7, IRMON, IRMOF, RCALL
  185                   ;F0B4	Zeichenkette anzeigen (OSTR)
  186                   ;F0BA	Kommandos SWITCH und JUMP
  187                   ;F153	Systemstart mit Autostart ROM-Modul oder Floppy
  188                   ;F1DD	Kommandointerpreter, MENU, LOOP, ZSUCH
  189                   ;F363	Umschaltung Ein-/Ausgabe (NORM, NOUT, SOUT, NIN, SIN)
  190                   ;F390	Zeichenaus-/eingabe (HLHX, AHEX, OCHR, INTB, ...)
  191                   ;F3D9	Tastatureingabe KBD, INLIN
  192                   ;F4A3	Kommando go
  193                   ;F4CA	Hex- oder Dezimalzahlen/Argumente erfassen (RHEX, RDEZ, GARG)
  194                   ;F54A	Ports initialisieren (INIEA, INIMEX)
  195                   ;F562	Device-Kommandos (SAVE, VERIFY, LOAD)
  196                   ;F7B3	Kommandos COLOR, DISPLAY, MODIFY
  197                   ;F7E7	Kommandos WINDOW, KEY (mit Keylist)
  198                   ;F819	Cursordarstellung, Grafikroutinen (PUSE, PUDE, CIRCL, LINE)
  199                   ;F87B	BASIC-I/O-Verteiler
  200                   ;F8F4	Zeichenkette anzeigen (ZKOUT)
  201                   ;F8FD	Tonausgabe (TON)
  202                   ;F949	ESC-Programme
  203                   ;F9CA	Druckerinitialisierung (LSTDEV) und Duplexinitialisierung (V24DUP)
  204                   ;F9FF	Druckroutinen (M001, M021, V.24-Modul)
  205                   ;FA8C	SIO-Empfangsinterrupt (Tastatur, ESC...)
  206                   ;FB8E	CAOS-Arbeitsbereich verlagern (SIXD)
  207                   ;FB90	Aufruf eines UP im CAOS-ROM-C, CAOS-ROM C ein/aus schalten
  208                   ;FBAB	Multiplikation (MULT)
  209                   ;FBBB	Menuewort DEVICE
  210                   ;FBE3	Versteckte Menueworte DIR, CD, ERA, REN
  211                   ;FC12	DEVICE-Routinen MBO, MBI, ISRO, CSRO, ISRI, CSRI
  212                   ;FC30	Warteschleife (WAIT)
  213                   ;FC38	Tastencodetabelle KTAB
  214                   ;FCB8	CRTTAB	Steuerfunktionstabelle
  215                   ;FCF8	TOKTAB	BASIC-Token mit Sprungtabelle
  216                   ;FDB2	BASIC-Unterprogrammtabelle
  217                   ;FDF8	Bittabelle fuer Punktroutinen
  218                   ;FE00	Zeichenbildtabelle Kleinbuchstaben
  219                   
  220                   ;---------------------------------------------------------------------
  221                   
  222                   VB_NAME	MACRO
  223                   	DB	'CAOS48  KCC'	; Dateiname im Vorblock
  224                   	ENDM
  225         4000      AADR	EQU	4000H		; AADR
  226         8000      EADR	EQU	8000H		; EADR+1
  227                   
  228                   	INCLUDE	VORBLOCK.INC	; CAOS-Vorblock
    1                   ; Erzeugen des CAOS-Vorblock fuer CAOS 4.8 und USER-ROM:
    2                   
SLR180 SuperFast Relocating Macro Assembler     			    SLR180 1.31 Page   5
VORBLOCKINC

    3                   DATUM	MACRO
    4                   	DB	'07.10.2023'	; Versionsdatum nur hier aendern!
    5                   	ENDM
    6                   
    7                   	VB_NAME			; Dateiname
    1 0100  43 41 4F 53 	DB	'CAOS48  KCC'	; Dateiname im Vorblock
    8 010B  00 00 00 00 	DS	5,0
    9 0110  02          	DB	2		; 2 Adressen
   10 0111  4000        	DW	AADR		; Anfangsadresse
   11 0113  8000        	DW	EADR		; Endadresse+1
   12 0115  00 00 00 00 	DS	75,0
   13 0160  4B 43 2D 43 	DB	'KC-Club, M. Leubner:  '
   14                   	DATUM			; Versionsdatum
    1 0176  30 37 2E 31 	DB	'07.10.2023'	; Versionsdatum nur hier aendern!
  229                   
  230                   	INCLUDE	EQU48.INC	; Vereinbarungen, Uebersicht
    1                   ;*****************************************
    2                   ;**	CAOS 4.8			**
    3                   ;**					**
    4                   ;**	Macros und Vereinbarungen	**
    5                   ;**					**
    6                   ;**	letzte Aenderung: 28.08.2021	**
    7                   ;*****************************************
    8                   
    9                   MESSAGE	MACRO	MSG1,N,MSG2
   10                   	 .PRINTX MSG1 N MSG2
   11                   	ENDM
   12                   
   13                   ; Mit FF auffuellen, bis die absolute Adresse LOC erreicht ist:
   14                   ABSFILL	MACRO	LOC,WHAT
   15                   	 IF $ GT LOC
   16                   	  MESSAGE <Fehler! LOC:>,% $ - LOC,<Byte zu viel vor WHAT>
   17                   	 ELSE
   18                   	  IF2
   19                   	   MESSAGE <LOC:>,% LOC - $,<Byte frei vor WHAT>
   20                   	  ENDIF
   21                   	  DS	LOC - $,0FFh
   22                   	 ENDIF
   23                   	ENDM
   24                   
   25                   ; Undokumentierter Opcode:
   26                   ;	IN	F,(C)
   27                   INFC	MACRO
   28                   	 DB	0EDh,70h
   29                   	ENDM
   30                   
   31                   ; Undokumentierter Opcode:
   32                   ;	RES	BI,(IX+DISP),A
   33                   RESIXA	MACRO	BI,DISP
   34                   	 DB	0DDh,0CBh,DISP
   35                   	 DB	BI SHL 3 OR 10000111b
   36                   	ENDM
   37                   
   38                   ; Undokumentierter Opcode:
   39                   ;	SET	BI,(IX+DISP),A
   40                   SETIXA	MACRO	BI,DISP
   41                   	 DB	0DDh,0CBh,DISP
   42                   	 DB	BI SHL 3 OR 11000111b
SLR180 SuperFast Relocating Macro Assembler     			    SLR180 1.31 Page   6
EQU48   INC

   43                   	ENDM
   44                   
   45                   ; Setze Bit 7 des ersten Zeichens fuer BASIC-Token:
   46                   TOKEN	MACRO	STRING
   47                   Y	 DEFL	80h
   48                   	 IRPC	X,STRING
   49                   	  DB	'&X' + Y
   50                   Y	  DEFL	0
   51                   	 ENDM
   52                   	ENDM
   53                   
   54                   ;---------------------------------------
   55                   
   56                   ; Steuerzeichen:
   57                   
   58         000A      LF	EQU	0AH
   59         000D      CR	EQU	0DH
   60         001B      ESC	EQU	1BH
   61                   
   62                   ;---------------------------------------
   63                   
   64                   ; Portadressen im Grundgeraet:
   65                   
   66         0084      PORT1	EQU	84H	; Ausgabe-Port D08A	Merkzelle ist (IX+1)
   67                   			;	Bit 0 - Anzeige Bild 0 oder 1
   68                   			;	Bit 1 - Zugriff auf 0=Pixel- oder 1=Farbebene
   69                   			;	Bit 2 - Zugriff auf Bild 0 oder 1
   70                   			;	Bit 3 - 0=hohe Farbaufloesung oder 1=niedrige
   71                   			;	Bit 4-7 Auswahl der RAM8-Ebene (256K)
   72         0086      PORT2	EQU	86H	; Ausgabe-Port D09A	Merkzelle ist (IX+4)
   73                   			;	Bit 0 - RAM4 ein/aus
   74                   			;	Bit 1 - RAM4 Schreibschutz (1=aus)
   75                   			;	Bit 2 - Flash: Systemumschaltung, Reset-Impuls
   76                   			;	Bit 3 - Flash: Systemumschaltung, Zaehl-Impuls
   77                   			;	Bit 4 - Flash: Umschaltung Zeichensatz
   78                   			;	Bit 5-6 Auswahl der USER-ROM-Ebene
   79                   			;	Bit 7 - CAOS-ROM C ein/aus
   80         0088      PIOAD	EQU	88H	; System-PIO Datenbyte Port A
   81                   			;	Bit 0 - CAOS ROM-E ein/aus
   82                   			;	Bit 1 - RAM0 ein/aus
   83                   			;	Bit 2 - IRM ein/aus
   84                   			;	Bit 3 - Schreibschutz RAM0
   85                   			;	Bit 4 - K_OUT
   86                   			;	Bit 5 - System-LED
   87                   			;	Bit 6 - Motorschaltspannung
   88                   			;	Bit 7 - USER-ROM ein/aus
   89         0089      PIOBD	EQU	89H	; System-PIO Datenbyte Port B
   90                   			;	Bit 0 - Symmetrie-Flip-Flop Tonausgabe
   91                   			;	Bit 1 \
   92                   			;	Bit 2 - Lautstaerke Tonausgabe
   93                   			;	Bit 3 - 4 Bit (Low-aktiv)
   94                   			;	Bit 4 /
   95                   			;	Bit 5 - RAM8 ein/aus
   96                   			;	Bit 6 - Schreibschutz RAM8
   97                   			;	Bit 7 - Blinken ein/aus
   98         008A      PIOAS	EQU	8AH	; System-PIO Steuerbyte Port A
   99         008B      PIOBS	EQU	8BH	; System-PIO Steuerbyte Port B
  100         008C      CTC0	EQU	8CH	; CTC Kanal 0 (Tonhoehe 1)
SLR180 SuperFast Relocating Macro Assembler     			    SLR180 1.31 Page   7
EQU48   INC

  101         008D      CTC1	EQU	8DH	; CTC Kanal 1 (Kassettenausgabe)
  102         008E      CTC2	EQU	8EH	; CTC Kanal 2 (Tondauer)
  103         008F      CTC3	EQU	8FH	; CTC Kanal 3 (Tastatur)
  104                   
  105                   ; Portadressen des Koppel-RAM (D004):
  106                   
  107         00F1      ERRTX	EQU	000F1H	; Fehlertext			(ab DEP 2.0)
  108         80F1      STBYT2	EQU	080F1H	; 2. Steuerbyte:		(ab DEP 2.0)
  109                   			;	Bit 0 - Anforderung
  110                   			;	Bit 1 - Laufwerkswechsel
  111                   			;	Bit 2 - Userwechsel
  112                   			;	Bit 3..6 reserviert
  113                   			;	Bit 7 - Fehlerrueckmeldung
  114         81F1      LWANF	EQU	081F1H	; Laufwerk ('A', 'B', ... 'P')
  115         82F1      UANF	EQU	082F1H	; User-Bereich (00H ... 0FH)
  116         83F1      DEPVER	EQU	083F1H	; DEP-Version BCD
  117         84F1      DATE	EQU	084F1H	; Datum BCD			(ab DEP 3.0)
  118                   			;	Jahr (00..99)
  119                   			;	Monat (1..12)
  120                   			;	Tag (1..31)
  121         87F1      TIME	EQU	087F1H	; Uhrzeit BCD			(ab DEP 3.0)
  122                   			;	Stunde (0..23)
  123                   			;	Minute (0..59)
  124                   			;	Sekunde (0..59)
  125                   
  126         80F2      FDATA	EQU	080F2H	; Daten- bzw. Sektorpuffer 128 Byte lang
  127         80F3      STBYT1	EQU	080F3H	; 1. Steuerbyte:
  128                   			;	Bit 0 - Anforderung
  129                   			;	Bit 1 - 1=schreiben/0=lesen
  130                   			;	Bit 3 - oeffnen
  131                   			;	Bit 6 - schliessen
  132                   			;	Bit 7 - Fehlerrueckmeldung
  133                   			;	Bit	5 4 2	Funktionsauswahl:
  134                   			;		0 0 0	Sektor lesen/schreiben
  135                   			;		0 0 1	DIR-Anforderung
  136                   			;		0 1 0	ERA
  137                   			;		0 1 1	STAT
  138                   			;		1 0 0	REN
  139                   			;		1 0 1	SETRO
  140                   			;		1 1 0	SETWR
  141                   			;		1 1 1	BASIC-Byte lesen/schreiben
  142         81F3      FCODE	EQU	081F3H	; Fehlercode
  143         82F3      DIRBUF	EQU	082F3H	; Puffer fuer Dateiname oder Directory
  144         8EF3      BASBYT	EQU	08EF3H	; Datenbyte fuer BASIC-Byte-Schnittstelle
  145         B3F3      UROK	EQU	0B3F3H	; Betriebsart	0 = Anfangswert
  146                   			;		1 = CP/M-System lauft
  147                   			;		2 = Not ready
  148                   			;		3 = Can't read
  149                   			;		4 = No system
  150                   			;		5 = CAOS-Betriebsart / DEP laeuft
  151                   
  152                   ;---------------------------------------
  153                   
  154                   ; Belegung Systembereich im RAM0:
  155                   
  156                   ; 0000-000Ah	Dateiname
  157                   ; 000Bh		Interrupt-Mode fuer USB (von M052-Software verwaltet)
  158                   ; 000C-000Fh	Datums-Stempel fuer Dateifunktion von USB (MS-DOS-Format)
SLR180 SuperFast Relocating Macro Assembler     			    SLR180 1.31 Page   8
EQU48   INC

  159                   ; 0010-00ADh	Arbeitszellen Systemsoftware
  160                   ; 00AE-00E0h	Interrupt-Routine von USB-Modul
  161                   ; 00E1-0107h	Arbeitszellen Systemsoftware
  162                   ; 0108-012Fh	Tasten-UP von CALC (bei Aktivierung mit %?i)
  163                   ; 0180-019Ch	temporaere Ladeadresse der Datei *.JOY ab CAOS 4.6
  164                   ; 0180-01C3h	Systemstack
  165                   
  166         01C4      STACK	EQU	01C4H	; Systemstack
  167                   
  168                   ; 01C4-01EFh	Interrupttabelle
  169                   ; 01F0-01FFh	IX-Arbeitszellen (Standard: IX=01F0h)
  170                   
  171                   ; Belegung der IX - Zellen:
  172                   
  173                   ; IX+0	Zeitkonstante fuer Kassettenroutinen
  174                   ; IX+1	Merkzelle fuer Ausgabeport 84H
  175                   ; IX+2	gelesene Blocknummer (Kassette)
  176                   ; IX+3	erwartete Blocknummer (Kassette)
  177                   ; IX+4	Merkzelle fuer Ausgabeport 86H
  178                   ; IX+5	Ein- Ausgabepufferadresse (low)
  179                   ; IX+6	Ein- Ausgabepufferadresse (high)
  180                   ; IX+7	Kennbyte fuer LOAD/VERIFY
  181                   ;	 BIT 0: =1 ->LOAD  =0 ->VERIFY
  182                   ;	 BIT 1: =1 kein Selbstart bei LOAD (in BASIC Kennung fuer 1. Block)
  183                   ;	 BIT 2-4 : Anzahl Argumente (bei SAVE)/ARGN>3 (Startoffset)
  184                   ;	 BIT 5-7 : BASIC: fuer CLOAD/CSAVE 
  185                   ; IX+8	Kennbyte Tastatur
  186                   ;	 BIT 0: gueltiges Byte (ASCII) in IX+13
  187                   ;	 BIT 1: Tonausgabe laeuft
  188                   ;	 BIT 2-4: aktuelles Speichergeraet
  189                   ;		  0=Kassette, 1=Diskette, 2=USB (M052), 3=Netzwerk (M052)
  190                   ;		  4=Headersave, 5..7 frei
  191                   ;	 BIT 5: Tastenclick ein/aus
  192                   ;	 BIT 6: Code kommt von F-Taste
  193                   ;	 BIT 7: 0=Shiftlock
  194                   ; IX+9	Prologbyte (normal 7FH)
  195                   ; IX+10	Autorepeatzaehler (Tastatur)
  196                   ; IX+11	Merkzelle fuer Akku (bei BWS on/off mit Stackverlagerung)
  197                   ;	und Pruefsummenberechnung fuer MB-Eingabe
  198                   ; IX+12	7-Bit-Scancode von Tastatur
  199                   ; IX+13	ASCII-Code von Tastatur
  200                   ; IX+14	Tastaturcodetabelle low
  201                   ; IX+15	Tastaturcodetabelle high
  202                   
  203                   ; von den BASIC-Erweiterungen genutzte Arbeitszellen im RAM:
  204                   
  205         0307      IOCHNL	EQU	0307H	; Ein-/Ausgabekanal
  206         0309      ININD	EQU	0309H	; IN-Index
  207         031B      RNDVR3	EQU	031BH	; Zufallszahl
  208         034E      ANF	EQU	034EH	; erste Zeilennummer
  209         0350      ENDE	EQU	0350H	; letzte Zeilennummer
  210         0352      NANF	EQU	0352H	; neue erste Zeilennummer
  211         0354      DISTAN	EQU	0354H	; Zeilennummernabstand
  212         035E      DATFLG	EQU	035EH	; List-, Editierschutz wenn <> 0
  213         035F      PSTBEG	EQU	035FH	; Programmstartadresse (Standardwert = 0401H)
  214         037E      COLRET	EQU	037EH	; Ablage Farbbyte
  215         03C0      STRDAT	EQU	03C0H	; 4 Byte: Laenge und Adresse des aktuellen Strings
  216         03D7      SVARPT	EQU	03D7H	; Adresse der Liste der einfachen und Stringvariablen
SLR180 SuperFast Relocating Macro Assembler     			    SLR180 1.31 Page   9
EQU48   INC

  217         03EA      INTPRB	EQU	03EAH	; Druckpuffer=Dateiname
  218         03FD      PRTFLG	EQU	03FDH	; PRINT-Erweiterung
  219                   
  220                   ; IRM-Belegung:
  221                   
  222         A800      V24PL	EQU	0A800H	; Steckplatz V.24-Modul				  1 Byte
  223                   ;INTV1		0A801H	; Initialisierungsdaten V.24-Druckausgabe	  8 Byte
  224                   ;INTV2		0A809H	; Initialisierungsdaten V.24-duplex		  9 Byte
  225                   	; bis	0A811H
  226                   ;		0A820H	; urspruenglich geplant fuer Arbeitszellen Maustreiber
  227                   	; bis	0A87FH	; frei					       (96 Byte)
  228                   
  229         A880      INITU	EQU	0A880h	; Kommandoablage von INITIAL.UUU als Tastencode
  230                   	; bis	0A8FFh	; und Assemblierpuffer von EDAS/ASM
  231                   
  232         A900      DEVTAB	EQU	0A900H	; Tabelle der 8 Geraetetreiber: 8*32=256 Byte gross
  233         AA00      SULEN	EQU	0AA00H	; letzte benutzte UP-Nr. in SUTAB
  234         AA01      SUT_IRM	EQU	0AA01H	; SUTAB per Default im IRM
  235                   	; bis	0AA9Ah	fuer UP 00 bis 4Ch				154 Byte
  236                   ;		0AA9BH	reserviert fuer kuenftige CAOS-Erweiterungen
  237                   	; bis	0AABEH	z.B. CAOS-UP's bis 5Eh				 36 Byte
  238                   ; 0AABFH		; frei						  1 Byte
  239         AAC0      JOYIRM	EQU	0AAC0H	; Joystick-Tabelle
  240                   	; bis	0AACBh							 12 Byte
  241                   
  242         AACC      JWORK	EQU	0AACCH	; Arbeitszellen vom Joystick-Editor
  243                   	; bis	0AADCH							 17 Byte
  244                   
  245         AADD      WIN2	EQU	0AADDH	; Schattenspeicher fuer WINNR bis WEND (Bildwechsel)
  246                   	; bis	0AAE7	; 30.09.2020 neu definiert			 11 Byte
  247                   
  248         AAE8      WTEMO	EQU	0AAE8H	; TEMO-Arbeitszellen zur Ablage von 2 Fenster-Daten
  249                   	; bis	0AAFFH							 24 Byte
  250                   
  251                   ;		0AB00H	; reserviert fuer anwenderspez. Systemerweiterungen
  252                   	; bis	0ACFFH	; z.B. Treiber UOUT1/2 oder UIN1/2		512 Byte
  253                   
  254         AD00      VRAM1	EQU	0AD00H	; ASCII-RAM Bild 1
  255                   	; bis	0B1FFH
  256         B200      VRAM0	EQU	0B200H	; ASCII-RAM Bild 0
  257                   	; bis	0B6FFh
  258         B700      CASS	EQU	0B700H	; 128 Byte Kassettenpuffer (bis	0B77FH)
  259         B780      ARGC	EQU	0B780H	; UP-Nummer fuer PV2 und PV6
  260         B781      ARGN	EQU	0B781H	; Anzahl Argumente
  261         B782      ARG1	EQU	0B782H	; Argument 1
  262         B784      ARG2	EQU	0B784H	;    "	   2
  263         B786      ARG3	EQU	0B786H	;    "	   3
  264         B788      ARG4	EQU	0B788H	;    "	   4
  265         B78A      ARG5	EQU	0B78AH	;    "	   5
  266         B78C      ARG6	EQU	0B78CH	;    "	   6
  267         B78E      ARG7	EQU	0B78EH	;    "	   7
  268         B790      ARG8	EQU	0B790H	;    "	   8
  269         B792      ARG9	EQU	0B792H	;    "	   9
  270         B794      ARG10	EQU	0B794H	;    "	  10
  271         B796      NUMNX	EQU	0B796H	; Anzahl Zeichen einer Hex-Zahl
  272         B797      NUMVX	EQU	0B797H	; Wert HEX-Zahl
  273         B799      HCADR	EQU	0B799H	; Hardcopy-Aufruf
  274         B79B      WINNR	EQU	0B79BH	; Nr. des aktuellen Bildschirmfensters
SLR180 SuperFast Relocating Macro Assembler     			    SLR180 1.31 Page  10
EQU48   INC

  275         B79C      WINON	EQU	0B79CH	; Fenster-Anfang
  276         B79E      WINLG	EQU	0B79EH	; Fenster-Groesse
  277         B7A0      CURSO	EQU	0B7A0H	; Cursor-Position
  278         B7A2      STBT	EQU	0B7A2H	; Bildschirm-Steuerbyte
  279                   		; Bit 0 = 1 Schreiben Pixel-IRM AUS
  280                   		; Bit 1 = 1 Schreiben Color-IRM AUS
  281                   		; Bit 2 = 1 Inversdarstellung EIN (ab CAOS 3.4)
  282                   		; Bit 3 = 1 Steuercode als Zeichen darstellen
  283                   		; Bit 4 = 1 ESC aktiv (ab CAOS 4.1)
  284                   		; Bit 5 = 1 IBM-Zeichensatz EIN (ab CAOS 4.3)
  285                   		; Bit 6 = 1 HRG-Modus EIN (ab CAOS 4.3)
  286                   		; Bit 7 = 1 2-Monitor-Modus aktiv (ab CAOS 4.8)
  287         B7A3      COLOR	EQU	0B7A3H	; Farbe
  288         B7A4      WEND	EQU	0B7A4H	; Reaktionsprogramm auf Bildschirmende
  289         B7A6      CCTL0	EQU	0B7A6H	; Zeichentabelle 0 20H...5FH
  290         B7A8      CCTL1	EQU	0B7A8H	;	"	 1 00H...1FH und 60H...7FH
  291         B7AA      CCTL2	EQU	0B7AAH	;	"	 2 A0H...DFH
  292         B7AC      CCTL3	EQU	0B7ACH	;	"	 3 80H...9FH und E0H...FFH
  293         B7AE      SYSP	EQU	0B7AEH	; System Stackpointer
  294         B7B0      SUTAB	EQU	0B7B0H	; Adresse der Unterprogrammtabelle
  295         B7B2      CTAB	EQU	0B7B2H	; CRT-Steuerprogramm-Tabelle
  296         B7B4      NCAOS	EQU	0B7B4H	; Sprung in neues System ueber IRM
  297         B7B9      OUTAB	EQU	0B7B9H	; Adresse fuer Zeiger auf UP-Nr. bei Ausgabe
  298         B7BB      INTAB	EQU	0B7BBH	; Adresse fuer Zeiger auf UP-Nr. bei Eingabe
  299         B7BD      UOUT1	EQU	0B7BDH	; Sprung zu USER-Ausgabekanal 2 (Drucker)
  300         B7C0      UIN1	EQU	0B7C0H	; Sprung zu USER-Eingabekanal 2
  301         B7C3      UOUT2	EQU	0B7C3H	; Sprung zu USER-Ausgabekanal 3 V.24-duplex
  302         B7C6      UIN2	EQU	0B7C6H	; Sprung zu USER-Eingabekanal 3 V.24-duplex
  303                   ;IOERR	EQU	0B7C9H	; Reaktionsprogramm fuer BASIC I/O-Error bis CAOS 4.7
  304         B7CB      VRAM	EQU	0B7CBH	; VRAM-Adresse des eingestellten Bildes
  305         B7CD      ZOTAB	EQU	0B7CDH	; Zwischenspeicher fuer OUTAB
  306         B7CF      ZWEND	EQU	0B7CFH	; Zwischenspeicher fuer WEND
  307         B7D1      FTAST	EQU	0B7D1H	; F-Tastenpointer
  308         B7D3      HOR	EQU	0B7D3H	; Grafik Horizontalposition (X-Wert)
  309         B7D5      VERT	EQU	0B7D5H	; Grafik Vertikalposition (Y-Wert)
  310         B7D6      FARB	EQU	0B7D6H	; Grafik Farbe
  311                   		; Bit 0=1	XOR-Funktion
  312                   		; Bit 1=1	Punkt loeschen
  313                   		; Bit 2=1	Farbebene nicht veraendern
  314                   		; Bit 3-7	Vordergrundfarbe + Blinken
  315         B7D7      MIXIT	EQU	0B7D7H	; IX-Merker (H-Teil von IX und I-Tabelle)
  316         B7D8      VORTN	EQU	0B7D8H	; Vortonlaenge fuer byteweise Kassettenausgabe
  317         B7DA      DTPTR	EQU	0B7DAH	; CASS-Pointer (Zeiger in Kassettenpuffer)
  318         B7DB      CTCMD	EQU	0B7DBH	; CTC2-Modus
  319         B7DC      BLINK	EQU	0B7DCH	; Blinkfrequenz
  320         B7DD      L3TAB	EQU	0B7DDH	; Adresse der ESC-Steuerfunktionstabelle
  321         B7DF      L3SIZ	EQU	0B7DFH	; Anzahl der ESC-Steuerfunktionenn
  322         B7E0      COUNT	EQU	0B7E0H	; Zeiteinheiten fuer 1. Autorepeat (Tastatur)
  323         B7E1      HCPZ	EQU	0B7E1H	; Steuerbyte Druckerausgabe
  324                   		; Bit 0=0	Protokollfunktion
  325                   		; Bit 0=1	Hardcopyfunktion
  326                   		; Bit 1=0/1	USER I/O-Kanal 1/2
  327                   		; Bit 2=0/1	SIO-Kanal A oder B
  328                   		; Bit 3		-
  329                   		; Bit 4..7	Druckertyp (0 bis F)
  330                   		; Bit 7=0	Matrixdrucker
  331                   		; Bit 7=1	Schreibmaschine
  332         B7E2      INTV1	EQU	0B7E2H	; Adresse V.24-Init-Tabelle fuer Druckerausgabe
SLR180 SuperFast Relocating Macro Assembler     			    SLR180 1.31 Page  11
EQU48   INC

  333         B7E4      INTV1L	EQU	0B7E4H	; Laenge V.24-Initialisierungtabelle
  334         B7E5      INTV2	EQU	0B7E5H	; Adresse V.24-Init-Tabelle fuer Duplexroutine
  335         B7E7      INTV2L	EQU	0B7E7H	; Laenge V.24-Initialisierungstabelle
  336         B7E8      HCPZ2	EQU	0B7E8H	; Steuerbyte Duplexroutine
  337                   		; Bit 0		-
  338                   		; Bit 1=0/1	USER I/O-Kanal 1/2
  339                   		; Bit 2=0/1	SIO-Kanal A oder B
  340                   		; Bit 3		WR5 Bit 3: Senden ein/aus
  341                   		; Bit 4		-
  342                   		; Bit 5,6	WR5 Bit 5,6: 5-8 Bit pro Zeichen (Senden)
  343                   		; Bit 7		WR3 Bit 7: 7/8 Bit pro Zeichen (Empfang)
  344         B7E9      OFILT	EQU	0B7E9H	; Sprung zu Druckroutine (ungefiltert)
  345         B7EC      PROMPT	EQU	0B7ECH	; Systemprompt
  346         B7ED      LINTYP	EQU	0B7EDH	; Linientyp
  347         B7EE      CUMUST	EQU	0B7EEH	; Zeiger zu Cursormuster
  348         B7F0      JOYTAB	EQU	0B7F0H	; Zeiger zu Joystick-Tastencodes
  349                   ;		0B7F2H
  350                   ;		bis	; reservicert fuer Arbeitszellen von REAS und TEMO
  351                   ;		0B7F4H
  352         B7F5      FNAME	EQU	0B7F5H	; 11 Byte Dateiname+Typ fuer DEVICE-Routinen
  353         B800      MODST	EQU	0B800H	; Modulsteuerbytespeicher
  354                   	; bis	0B8FFH
  355         B900      FTASTE	EQU	0B900H	; Funktionstastenspeicher
  356                   	; bis	0B99BH
  357         B99C      WNDFN	EQU	0B99CH	; Fenstersvektorpeicher
  358                   	; bis	0B9FFH
  359                   
  360                   ; von den BASIC-Erweiterungen genutzte Routinen aus dem BASIC-ROM:
  361                   
  362         C00D      PRIST	EQU	0C00DH	; BASIC-Interpreter Kaltstart
  363         C08C      SECST	EQU	0C08CH	; BASIC-Interpreter Warmstart
  364         C327      TMEMO	EQU	0C327H	; Test, ob RAM fuer naechste Operationen reicht
  365         C348      SNER	EQU	0C348H	; Sprung zu SN-ERROR
  366         C356      ERROO	EQU	0C356H	; Ausgabe Fehlercode
  367         C442      LIN13	EQU	0C442H	; Zeiger auf Zeile mit naechstgroesserer Nummer stellen
  368         C44D      ULER	EQU	0C44DH	; Sprung zu UL-ERROR
  369         C450      LIN6	EQU	0C450H	; Zeile in Programm einsortieren	
  370         C48A      LIN10	EQU	0C48AH
  371         C493      LIN11	EQU	0C493H
  372         C4BB      ZPOIT	EQU	0C4BBH	; Zeiger auf Anfang naechste Zeile stellen
  373         C4BE      ZPOIT1	EQU	0C4BEH
  374         C641      NEW1	EQU	0C641H	; BASIC-Programm loeschen
  375         C689      CPREG	EQU	0C689H
  376         C8B7      DLI22	EQU	0C8B7H	; Ansprung Tokenverarbeitung
  377         C8BD      TCHAR	EQU	0C8BDH	; naechstes Zeichen holen
  378         C8BE      TCHAR1	EQU	0C8BEH
  379         C8CC      CPSTX	EQU	0C8CCH	; erwartetes Zeichen folgt als DB ..
  380         C8D6      CPCOMM	EQU	0C8D6H	; Komma?
  381         C8DB      CPBRGT	EQU	0C8DBH	; Klammer zu?
  382         C967      FCER	EQU	0C967H	; Sprung zu FC-ERROR
  383         C96F      EPRVL3	EQU	0C96FH	; Wert bestimmen
  384         C96C      EPRVL4	EQU	0C96CH
  385         C986      DCHEX	EQU	0C986H	; Zeilennummer pruefen und in Hexzahl wandeln
  386         C987      DCHEX1	EQU	0C987H
  387         CB03      PRINT2	EQU	0CB03H
  388         CD36      SNALY6	EQU	0CD36H
  389         CD3A      SNALY	EQU	0CD3AH
  390         CDE1      SNLY14	EQU	0CDE1H	; Syntax-Check '('
SLR180 SuperFast Relocating Macro Assembler     			    SLR180 1.31 Page  12
EQU48   INC

  391         CDF3      SNLY16	EQU	0CDF3H	; Syntax-Check ')'
  392         D0C0      POS1	EQU	0D0C0H
  393         D17B      STADTB	EQU	0D17BH
  394         D17E      SADTB1	EQU	0D17EH
  395         D1A9      SLEN3	EQU	0D1A9H
  396         D1E1      STROP	EQU	0D1E1H	; String-Arithmetik
  397         D2F2      STRMV1	EQU	0D2F2H
  398         D302      STRZS3	EQU	0D302H
  399         D330      LEN1	EQU	0D330H	; Laenge holen
  400         D33F      ASC1	EQU	0D33FH
  401         D421      ARGVL1	EQU	0D421H	; Parameter abholen
  402         D424      ARGVL2	EQU	0D424H
  403         D6AE      SGN1	EQU	0D6AEH
  404         D834      NUMKON	EQU	0D834H
  405         DC82      IOERR	EQU	0DC82H	; Sprung zu ?IO ERROR
  406         DCB2      CASS1	EQU	0DCB2H	; Dateiname aufbereiten
  407         DDC8      TESTCO	EQU	0DDC8H
  408         DDD5      CO	EQU	0DDD5H	; Ausgabe eines Zeichens (ASCII)
  409         DDE4      CI	EQU	0DDE4H	; Eingabe eines Zeichens (ASCII)
  410         DE25      OUTCHL	EQU	0DE25H	; Ausgabe zu Kanal
  411         DE5F      INCHNL	EQU	0DE5FH	; Eingabe von Kanal
  231                   
  232                   	.PHASE	0C000H
  233                   
  234                   	INCLUDE	CC48.INC	; ROM-C (C000-CFFF)
    1                   ;*****************************************
    2                   ;**	CAOS 4.8	ROM C		**
    3                   ;**					**
    4                   ;**	Adresse:  C000h bis CFFFh	**
    5                   ;**					**
    6                   ;**	letzte Aenderung: 05.03.2023	**
    7                   ;*****************************************
    8                   
    9                   ;	ORG	0C000H
   10                   
   11                   ;
   12                   ; IRM-Defaulttabelle:						IRM-Adresse
   13                   ;
   14 C000  F4A4        KCTAB1:	DW	NOOP		; Hardcopy-Adresse		B799
   15 C002  00          WIN0:	DB	0		; WINNR				B79B
   16 C003  0000        	DW	0		; WINON				B79C
   17 C005  2028        	DW	2028H		; WINLG				B79E
   18 C007  0000        	DW	0		; CURSO				B7A0
   19 C009  80          	DB	80H		; STBT		(2-Monitor-Bit 7 gesetzt ab CAOS 4.8)
   20 C00A  39          	DB	39H		; COLOR				B7A3
   21 C00B  E286        	DW	SCRLPG		; WEND				B7A4
   22 C00D  EE00        WIN1:	DW	LARGE		; CCTL0				B7A6
   23 C00F  FE00        	DW	SMALL		; CCTL1				B7A8
   24 C011  EE00        	DW	LARGE		; CCTL2				B7AA
   25 C013  FE00        	DW	SMALL		; CCTL3				B7AC
   26 C015  01C4        	DW	STACK		; SYSP				B7AE
   27 C017  AA01        	DW	SUT_IRM		; SUTAB				B7B0
   28 C019  FCAC        	DW	CRTTAB		; CTAB				B7B2
   29 C01B  D3 88       	OUT	(PIOAD),A	; NCAOS				B7B4
   30 C01D  C3 F012     	JP	0F012H
   31 C020  F020        	DW	OUTT1		; OUTAB = CRT (0)		B7B9
   32 C022  F017        	DW	INTT1		; INTAB = KBD (4)		B7BB
   33 C024  C3 F4A4     	JP	NOOP		; UOUT1				B7BD
SLR180 SuperFast Relocating Macro Assembler     			    SLR180 1.31 Page  13
CC48    INC

   34 C027  C3 F4A4     	JP	NOOP		; UIN1				B7C0
   35 C02A  C3 F4A4     	JP	NOOP		; UOUT2				B7C3
   36 C02D  C3 F4A4     	JP	NOOP		; UIN2				B7C6
   37 C030  DC82        	DW	IOERR		; IOERR (BASIC)			B7C9
   38 C032  B200        	DW	VRAM0		; VRAM=0B200H (Bild 0)		B7CB
   39                   
   40 C034  47 0C       KCTAB2:	DB	47H,0CH		; CTC2 (blinken)		B7DB
   41 C036  EDC1        	DW	ESCTAB		; L3TAB (Tabelle der ESC-Routinen)
   42 C038  12          	DB	(ESCX-ESCTAB)/2	; L3SIZ (Anzahl der ESC-Funktionen)
   43 C039  05          	DB	5		; COUNT				B7E0
   44 C03A  00          	DB	0		; HCPZ				B7E1
   45 C03B  A801        	DW	0A801H		; INTV1				B7E2
   46 C03D  08          	DB	8		; INTV1L			B7E4
   47 C03E  A809        	DW	0A809H		; INTV2				B7E5
   48 C040  09          	DB	9		; INTV2L			B7E7
   49 C041  EE          	DB	11101110b	; HCPZ2 (8 Bit, Senden ein)	B7E8
   50 C042  C3 F4A4     	JP	NOOP		; OFILT				B7E9
   51 C045  25          	DB	'%'		; PROMPT			B7EC
   52 C046  FF          	DB	0FFH		; LINTYP			B7ED
   53 C047  EFD8        	DW	0EFD8H		; CUMUST			B7EE
   54 C049  AAC0        	DW	JOYIRM		; JOYTAB			B7F0
   55                   
   56                   ; Modulschaltzustaende (interne Module):			IRM-Adresse
   57                   
   58 C04B  03          KCTAB3:	DB	3	; RAM0					B800
   59 C04C  01          	DB	1	; IRM					B801
   60 C04D  00          	DB	0	; USER-ROMC				B802
   61 C04E  03          	DB	3	; RAM8					B803
   62 C04F  03          	DB	3	; RAM4					B804
   63 C050  00          	DB	0	; CAOSC					B805
   64 C051              KCTAB4:
   65                   ;
   66                   ; Power-ON Initialisierung:
   67                   ;
   68 C051  F3          PWRONC:	DI
   69 C052  ED 5E       	IM	2
   70                   
   71                   ; 02.03.2019: vor Loeschen des Speichers die Ports initialisieren um sicherzu-
   72                   ; stellen, dass vor dem Speicherloeschen der RAM0 und der IRM eingeschaltet ist
   73 C054  31 01C4     	LD	SP,STACK	; dazu SP setzen um CALL zu ermoeglichen
   74 C057  21 D932     	LD	HL,IOTAB1	; Daten der Erstinitialisierung
   75 C05A  CD F554     	CALL	INIMEX		; komplett benutzen
   76                   
   77 C05D  01 0080     	LD	BC,0080H	; alle Module abschalten
   78 C060  ED 51       PWRC1:	OUT	(C),D		; D=0 vom vorhergehenden INIMEX
   79 C062  10 FC       	DJNZ	PWRC1
   80                   
   81 C064  31 C000     	LD	SP,0C000H	; Loeschbereich 0..BFFFh
   82 C067  01 6000     	LD	BC,6000H	; Anzahl = 60h * 256 Wort = C000h
   83 C06A  61          	LD	H,C
   84 C06B  69          	LD	L,C		; HL=0
   85 C06C  E5          PWRC2:	PUSH	HL		; schnelles Speicher loeschen (rueckwaerts)
   86 C06D  0D          	DEC	C
   87 C06E  20 FC       	JR	NZ,PWRC2
   88 C070  10 FA       	DJNZ	PWRC2
   89                   
   90                   ; neu ab CAOS 4.8: Autostart INIT (z.B. bei USB) vorbereiten
   91                   ; (Die Aktivierung erfolgt erst bei der Initialisierung des Modul-Treibers)
SLR180 SuperFast Relocating Macro Assembler     			    SLR180 1.31 Page  14
CC48    INC

   92 C072  21 EDE5     	LD	HL,INIT		; INIT-Kommando als Autostart
   93 C075  22 B7D1     	LD	(FTAST),HL	; vorbereiten fuer Abarbeitung
   94                   
   95                   ; 19.02.2023: alle Anwender-ISR bei POWER-ON mit IRET vorbelegen
   96                   ;	LD	HL,STACK	; ISR-Tabelle beginnt nach dem Stack
   97                   ;	LD	SP,HL		; System-Stack setzen
   98                   ;	LD	B,14		; Anzahl ISR-Routinen bis 01E0H
   99                   ;PWRC3:	LD	(HL),Low(IRET)
  100                   ;	INC	HL		; alle Anwender-ISR mit der Adrersse IRET
  101                   ;	LD	(HL),High(IRET)	; vorbelegen
  102                   ;	INC	HL
  103                   ;	DJNZ	PWRC3
  104                   
  105                   ; 05.03.2023: alle Anwender-ISR bei POWER-ON mit IRET vorbelegen (optimiert)
  106 C078  31 01E0     	LD	SP,STACK+28	; ISR-Tabelle liegt direkt oberhalb des Stak
  107 C07B  21 E59A     	LD	HL,IRET		; Dummy-ISR
  108 C07E  06 0E       	LD	B,14		; Anzahl ISR-Routinen von 01C4H bis 01E0H		
  109 C080  E5          PWRC3:	PUSH	HL		; alle Anwender-ISR mit der Adresse IRET 
  110 C081  10 FD       	DJNZ	PWRC3		; vorbelegen
  111                   
  112                   ; 08.10.2020: SYSI nach der Portinitialisierung aufrufen, sodass der KOUT-
  113                   ; Impuls zum Ruecksetzen der D005-Tastatur nur bei RESET kommt.
  114 C083  CD C0B2     	CALL	SYSI2		; Systeminitialisierung (Rueckkehr mit EI)
  115 C086  21 D956     	LD	HL,JOYTBD	; vorbereitete Joystick-Tabelle
  116 C089  11 AAC0     	LD	DE,JOYIRM	; JOYTAB-Standardadresse im IRM
  117 C08C  01 000C     	LD	BC,12
  118 C08F  ED B0       	LDIR			; Tabelle in den IRM kopieren
  119                   
  120                   ; seit CAOS 4.1 werden an dieser Stelle die Fenster 0-9 in dieser Reihenfolge
  121                   ; mit den Standardwerten vorbelegt. Nebeneffekt: Beim Einschalten ist Fenster
  122                   ; Nr. 9 aktiv entgegen dem eigentlich erwarteten Fenster Nr. 0
  123                   ; -> Reihenfolge geaendert, nun ist Fenster 0 wieder aktiv wie bis CAOS 3.4
  124                   
  125 C091  3E 09       	LD	A,9		; Fenster Nr. 9
  126 C093  32 B79B     PWRC4:	LD	(WINNR),A	; Nr. eintragen
  127 C096  CD C606     	CALL	WCOPY		; Fenstervektorspeicher initialisieren
  128 C099  D6 01       	SUB	1		; fuer 10 Fenster (9-0)
  129 C09B  30 F6       	JR	NC,PWRC4
  130 C09D  CD F94D     	CALL	ESC3		; Anzeige Bild 0, Zugriff Bild 1
  131 C0A0  CD E0AA     	CALL	CLSX		; Bild 1: CLS
  132 C0A3  CD F943     	CALL	ESC1		; Anzeige+Zugriff Bild 0
  133                   
  134 C0A6  C3 F161     	JP	PWR4		; weiter im ROM-F
  135                   ;
  136                   ; System-Initialisierung (bei PWRON und RESET):
  137                   ;
  138 C0A9  F3          SYSI:	DI
  139 C0AA  ED 5E       	IM	2
  140 C0AC  21 D932     	LD	HL,IOTAB1	; PIO A,B und Ausgabe-Ports 84H/86H
  141 C0AF  CD F554     	CALL	INIMEX		; initialisieren
  142 C0B2  DD 21 01F0  SYSI2:	LD	IX,1F0H
  143 C0B6  DD 36 01 28 	LD	(IX+1),28H	; OUT84-Merker (Bild 0, RAM8 Ebene 0)
  144 C0BA  DD 36 04 E3 	LD	(IX+4),0E3H	; OUT86-Merker (RAM4 ein, USER-ROM Ebene 3)
  145 C0BE  DD 36 08 80 	LD	(IX+8),80H	; Defaultbelegung (Kassette, kein CAPS-Lock)
  146 C0C2  11 B799     	LD	DE,HCADR
  147 C0C5  21 C000     	LD	HL,KCTAB1	; Defaulttabelle
  148 C0C8  01 0034     	LD	BC,KCTAB2-KCTAB1; fuer IRM-Arbeitszellen
  149 C0CB  ED B0       	LDIR			; 1. Teil in IRM kopieren
SLR180 SuperFast Relocating Macro Assembler     			    SLR180 1.31 Page  15
CC48    INC

  150 C0CD  1E DB       	LD	E,LOW(CTCMD)	; (D war 0B7h)
  151 C0CF  0E 17       	LD	C,KCTAB3-KCTAB2	; (B war 0 vom vorherigen LDIR)
  152 C0D1  ED B0       	LDIR			; 2. Teil in IRM kopieren
  153 C0D3  14          	INC	D		; D=B8H
  154 C0D4  59          	LD	E,C		; E=00H
  155                   ;	LD	DE,MODST	; Modulsteuerbytespeicher B800H
  156 C0D5  3A B804     	LD	A,(MODST+4)	; RAM4 aktueller Schaltzustand
  157 C0D8  E6 04       	AND	4		; RAM4-Ebene herausloesen
  158 C0DA  0E 06       	LD	C,KCTAB4-KCTAB3	; (B war 0 vom vorherigen LDIR)
  159 C0DC  ED B0       	LDIR			; 3. Teil in IRM kopieren
  160 C0DE  21 B804     	LD	HL,MODST+4
  161 C0E1  B6          	OR	(HL)		; RAM4 bisherige Ebene wieder einbauen
  162 C0E2  77          	LD	(HL),A
  163                   
  164                   ; 08.08.2020: zusaetzlich fuer Cursor-Rettung bei Bildwechsel:
  165                   ; 20.05.2021: von PWRON zu RESET verlagert
  166                   
  167 C0E3  11 AADD     	LD	DE,WIN2		; Schattenspeicher
  168 C0E6  CD C5E0     	CALL	WINC2		; mit Standardwerten initialisieren
  169                   
  170                   ; CAOS 4.6 - SUTAB vom ROM in den IRM kopieren:
  171                   
  172 C0E9  11 AA00     	LD	DE,SUT_IRM-1	; SUTAB im IRM (beginnend mit SULEN)
  173 C0EC  21 D857     	LD	HL,SUTB-1	; SUTAB im ROM
  174 C0EF  01 009B     	LD	BC,SUEND-SUTB+1	; Laenge
  175 C0F2  ED B0       	LDIR			; SUTAB zur Nutzung in den IRM kopieren
  176                   
  177 C0F4  3E 01       	LD	A,1		; Standardwert fuer IXH- und I-Register
  178 C0F6  CD C181     	CALL	SIXC		; Initialisierung, ISR-Tabelle kopieren, EI
  179                   
  180                   ; Interrupt hier bereits freigegeben, damit Treiber-Initialisierung
  181                   ; Interrupts aktivieren kann (z.B. USB-Tastatur)?
  182                   
  183                   ; CAOS 4.6 - Device-Treibertabellen erzeugen
  184                   
  185 C0F9  11 A900     	LD	DE,DEVTAB	; Treibertabelle(n) im IRM aufbauen
  186                   ;	LD	A,8		; fuer 8 Treiber
  187 C0FC  21 D8F2     DINIT:	LD	HL,DRV0		; zunaechst den Kassettentreiber
  188 C0FF  01 0020     	LD	BC,32		; je 32 Byte (Groesse festgeschrieben)
  189 C102  ED B0       	LDIR			; kopieren
  190 C104  7B          	LD	A,E		; bis E=0 ist
  191 C105  B7          	OR	A		; alle 8 Treiber auf Kassette initialisieren
  192 C106  20 F4       	JR	NZ,DINIT
  193 C108  32 A900     	LD	(DEVTAB),A	; Tape-Treiber mit '0' aktivieren
  194 C10B  11 A920     	LD	DE,DEVTAB+32	; folgende Treiber als Nr. 1 eintragen
  195                   
  196                   ; Suche D004/D008 mit CAOS-Betriebsart (Treiber 1):
  197                   
  198 C10E  01 FC80     	LD	BC,0FC80H	; Modulsteckplatz FC
  199 C111  ED 78       	IN	A,(C)
  200 C113  FE A7       	CP	0A7H		; Floppy vorhanden?
  201 C115  20 1A       	JR	NZ,NODISK
  202 C117  3E 04       	LD	A,4		; nur Kopplung einschalten
  203 C119  32 B8FC     	LD	(MODST+0FCH),A	; in Modulsteuerbytespeicher eintragen
  204 C11C  ED 79       	OUT	(C),A		; und schalten
  205 C11E  01 B3F3     	LD	BC,UROK		; 0B3F3H
  206 C121  ED 78       	IN	A,(C)
  207 C123  FE 05       	CP	5		; CAOS-Betriebsart?
SLR180 SuperFast Relocating Macro Assembler     			    SLR180 1.31 Page  16
CC48    INC

  208 C125  20 0A       	JR	NZ,NODISK
  209                   
  210                   ; 01.01.2022:
  211                   ; Falls eine alte Original-CAOS-Diskette benutzt wird, wird diese Speicherzelle
  212                   ; mit der CAOS-Versionsnummer nicht beschrieben und enthaelt den Inhalt vom
  213                   ; Urlader. Dieser fuehrt zu falschen Versionsmeldungen. Deshalb wird hier eine
  214                   ; Versionsnummer kleiner als 2.0 eingetragen - somit funktioniert die DEP-
  215                   ; Versionsabfrage zuverlaessiger.
  216 C127  01 83F1     	LD	BC,DEPVER	; DEP-Version
  217 C12A  ED 79       	OUT	(C),A		; Version 0.5 setzen
  218                   
  219                   ;	LD	HL,DRV1		; Floppy-Treiber
  220 C12C  01 0020     	LD	BC,32
  221 C12F  ED B0       	LDIR			; in Treibertabelle kopieren
  222                   
  223                   ; Suche USB- bzw. GIDE-Modul mit Treiber:
  224                   ;	DE	zeigt auf DEVTAB wo naechster Treiber hin kommt
  225                   
  226 C131  06 08       NODISK:	LD	B,8		; ab Steckplatz 8 suchen
  227 C133  0E 80       	LD	C,80H		; I/O-Adresse Modulsteuerung
  228 C135  ED 78       USB1:	IN	A,(C)		; Kennbyte lesen
  229 C137  FE FD       	CP	0FDH		; Kennung M052?
  230 C139  28 09       	JR	Z,USB2
  231 C13B  FE F9       	CP	0F9h		; Kennung M064?
  232 C13D  28 05       	JR	Z,USB2
  233 C13F  04          USB4:	INC	B		; naechster Steckplatz
  234 C140  20 F3       	JR	NZ,USB1
  235 C142  18 34       	JR	NOUSB		; Kein passendes Modul gefunden!
  236                   	;
  237 C144  C5          USB2:	PUSH	BC		; Steckplatz B merken
  238 C145  68          	LD	L,B
  239 C146  CD C379     	call	SLOT1		; Modul auf 4000h einblenden
  240                   ;	ld	hl,4000h
  241 C149  7E          	ld	a,(hl)		; ROM-Inhalt 1. Byte
  242 C14A  23          	inc	hl
  243 C14B  BE          	cp	(hl)		; ROM-Inhalt 2. Byte
  244 C14C  20 1A       	jr	nz,USB3		; Kennung 1+2 nicht identisch
  245 C14E  FE 46       	cp	46h		; Kennung Treiber korrekt? 
  246 C150  20 16       	jr	nz,USB3		; Kennung falsch
  247 C152  23          	inc	hl		; SWITCH-AUS in Treibertabelle
  248 C153  7B          	ld	a,e
  249 C154  07          	rlca
  250 C155  07          	rlca
  251 C156  07          	rlca			; Nr. des naechsten Treibers
  252 C157  12          	ld	(de),a		; Treibernummer eintragen in DEVTAB+0
  253 C158  13          	inc	de
  254 C159  E3          	EX	(SP),HL		; H=Steckplatz
  255 C15A  7C          	ld	a,H
  256 C15B  12          	ld	(de),a		; Steckplatz eintragen in DEVTAB+1
  257 C15C  13          	inc	de
  258 C15D  E3          	EX	(SP),HL
  259 C15E  01 001E     	LD	BC,32-2
  260 C161  ED B0       	LDIR			; restliche Treibertabelle aus ROM kopieren
  261 C163  21 FFE3     	ld	hl,-1Dh
  262 C166  19          	ADD	HL,DE		; zurueck zu SWITCH-EIN des Moduls
  263 C167  7E          	ld	A,(HL)		; SWITCH-EIN
  264                   
  265 C168  C1          USB3:	POP	BC		; B = Steckplatz, C=80h
SLR180 SuperFast Relocating Macro Assembler     			    SLR180 1.31 Page  17
CC48    INC

  266 C169  C5          	PUSH	BC
  267 C16A  D5          	PUSH	DE		; Zeiger in DEVTAB retten
  268                   	; kein Befehl beeinflusst das Z-Flag !
  269 C16B  CC ED48     	CALL	Z,JROM		; Treiber gefunden: INIT im Modul-ROM aufrufen
  270 C16E  CD C392     	CALL	SLOT0		; alle Modulzustaende regenerieren
  271 C171  D1          	POP	DE		; DEVTAB
  272 C172  C1          	POP	BC		; B = Steckplatz, C=80h
  273 C173  7A          	LD	A,D
  274 C174  FE AA       	CP	1+High(DEVTAB)	; 0AAh
  275 C176  20 C7       	JR	NZ,USB4		; weitere Module suchen bis DEVTAB voll ist
  276 C178  3A A920     NOUSB:	LD	A,(DEVTAB+32)	; Treiber 1 vorhanden?
  277 C17B  FE 01       	CP	1
  278 C17D  CC D5D5     	CALL	Z,SET_DD	; dann aktivieren!
  279 C180  C9          	RET
  280                   ;
  281                   ; CAOS-UP zur Verlagerung des IX-Arbeitsbereiches
  282                   ; PE:	A	HW-Teil der IX-Arbeitszellen
  283                   ;	A=FFH	zusaetzlich DEVICE-Tabelle und SUTAB neu aufbauen
  284                   ;
  285 C181  FE FF       SIXC:	CP	0FFH
  286 C183  CA C0A9     	JP	Z,SYSI		; grosse Initialisierung mit Device-Tabelle usw.
  287                   
  288                   ; 19.02.2023: kompletten IX-Bereich, einschliesslich der bisherigen alten
  289                   ; ISR-Tabelle mitnehmen zum neuen IX-Bereich
  290                   ; Vorteil: USB-Tastatur funktioniert nach SIXD weiter
  291 C186  F3          	DI
  292 C187  32 B7D7     	LD	(MIXIT),A	; neuer Wert fuer IXH- und I-Register
  293 C18A  ED 47       	LD	I,A		; I-Register aktualisieren
  294 C18C  ED 5E       	IM	2
  295 C18E  DD E5       	PUSH	IX		; bisheriger IX-Bereich
  296 C190  E1          	POP	HL
  297 C191  2E C4       	LD	L,0C4H		; 01C4H = erste USER-ISR
  298 C193  01 0035     	LD	BC,01F9H-01C4H	; Alles im IX-Bereich von 01C4H bis 01F8H
  299 C196  57          	LD	D,A		; neuer Wert von IXH
  300 C197  5D          	LD	E,L		; DE = neue ISR-Tabelle
  301 C198  ED B0       	LDIR			; kompletten IX-Bereich incl. ISR mitnehmen
  302 C19A  21 D962     	LD	HL,ISRTAB	; ISR-Tabelle fuer System-ISR im ROM
  303 C19D  1E E0       	LD	E,0E0H		; 01E0H = ISR fuer Joystick
  304 C19F  0E 10       	LD	C,IOTAB2-ISRTAB	; Interrupttabelle fuer 8 Interrupts
  305                   				; (B=0 vom vorherigen LDIR)
  306 C1A1  ED B0       	LDIR			; kopieren aus dem ROM nach xxE0h bis xxF0h
  307                   ;	LD	H,(IX+1)
  308                   ;	LD	L,(IX+4)	; alte Merker mitnehmen
  309                   ;	LD	A,(IX+8)
  310 C1A3  D5          	PUSH	DE		; neuer Wert fuer IX = xxF0h
  311 C1A4  DD E1       	POP	IX
  312                   ;	LD	(IX+8),A
  313                   ;	LD	(IX+1),H	; mitgenommene Merker neu eintragen
  314                   ;	LD	(IX+4),L
  315 C1A6  DD 36 0E 2C 	LD	(IX+14),LOW(KTAB) ; Tastaturtabelle
  316 C1AA  DD 36 0F FC 	LD	(IX+15),HIGH(KTAB)
  317 C1AE  DD 36 09 7F 	LD	(IX+9),7FH	; Standard-Prologbyte
  318                   ;	LD	HL,IOTAB2	; PIO A,B und CTC (IOTAB2 folgt auf ISRTAB)
  319 C1B2  CD F554     	CALL	INIMEX		; Ports neu initialisieren
  320 C1B5  21 ED76     	LD	HL,CENINI
  321 C1B8  CD F554     	CALL	INIMEX		; M021 initialisieren
  322 C1BB  FB          	EI
  323 C1BC  C3 F542     	JP	KPUFF		; Kassettenpuffer (IX+5 und IX+6) definieren
SLR180 SuperFast Relocating Macro Assembler     			    SLR180 1.31 Page  18
CC48    INC

  324                   
  325                   ; Systemcheck oder Modulkontrollanzeige (interne Module):
  326                   
  327 C1BF  2E FF       SYSTC:	LD	L,-1		; mit Steckplatz 0 beginnen, vorher aber ROM E
  328 C1C1  CD C286     	CALL	OSTR2
  329 C1C4  43 41 4F 53 	DB	'CAOSE',0
  330 C1CA  DB 88       	IN	A,(PIOAD)
  331 C1CC  E6 01       	AND	1		; CY=0, Z=?
  332 C1CE  18 3A       	JR	WONOF1
  333                   
  334 C1D0  3E 01       SYST0:	LD	A,1		; lesen
  335 C1D2  CD C3B1     	CALL	MODUC
  336 C1D5  CD D340     	CALL	LHD		; Anzeige Steckplatz, Kennbyte, Steuerbyte
  337                   
  338 C1D8  45          	LD	B,L		; Steckplatz
  339 C1D9  04          	INC	B		; +1 wegen folgendem DJNZ
  340 C1DA  10 12       	DJNZ	SYST1		; nach Steckplatz verzweigen
  341                   ; 0
  342 C1DC  CD F0B4     	CALL	OSTR
  343 C1DF  52 41 4D 30 	DB	'RAM0',0
  344 C1E4  DB 88       	IN	A,(PIOAD)
  345 C1E6  E6 0F       	AND	00001111b
  346 C1E8  FE 08       	CP	00001000b	; CY=NOT(Bit 3)
  347 C1EA  CB 4F       	BIT	1,A		; Schaltzustand
  348 C1EC  18 1C       	JR	WONOF1
  349                   ; 1
  350 C1EE  10 1C       SYST1:	DJNZ	SYST2
  351 C1F0  CD F0B4     	CALL	OSTR
  352 C1F3  42 49 4C 44 	DB	'BILD ',0
  353 C1F9  DD 7E 01    	LD	A,(IX+1)
  354 C1FC  E6 04       	AND	00000100b	; Zugriffs-Bit
  355 C1FE  0F          	RRCA		
  356 C1FF  0F          	RRCA
  357 C200  C6 30       	ADD	A,'0'
  358 C202  CD F3BB     	CALL	OCHR		; Bildnummer
  359 C205  3A B801     	LD	A,(MODST+1)
  360 C208  E6 01       	AND	1		; IRM on?
  361 C20A  18 6F       WONOF1:	JR	SYST6
  362                   ; 2
  363 C20C  10 1C       SYST2:	DJNZ	SYST3
  364 C20E  CD F0B4     	CALL	OSTR
  365 C211  55 53 45 52 	DB	'USER ',0
  366 C217  DD 7E 04    	LD	A,(IX+4)
  367 C21A  07          	RLCA			; Bits 5,6
  368 C21B  07          	RLCA
  369 C21C  07          	RLCA			; nach Bits 0,1
  370 C21D  E6 03       	AND	3
  371 C21F  EE 33       	XOR	'3'
  372 C221  CD F3BB     	CALL	OCHR		; Ebene ausgeben
  373 C224  DB 88       	IN	A,(PIOAD)
  374 C226  E6 80       	AND	10000000b	; CY=0, Z=NOT(Bit 7)
  375 C228  18 51       	JR	SYST6
  376                   ; 3
  377 C22A  10 1E       SYST3:	DJNZ	SYST4
  378 C22C  CD F0B4     	CALL	OSTR
  379 C22F  52 41 4D 38 	DB	'RAM8 ',0
  380 C235  DD 7E 01    	LD	A,(IX+1)
  381 C238  0F          	RRCA			; Bits 4,5,6,7
SLR180 SuperFast Relocating Macro Assembler     			    SLR180 1.31 Page  19
CC48    INC

  382 C239  0F          	RRCA
  383 C23A  0F          	RRCA
  384 C23B  0F          	RRCA			; nach 0,1,2,3
  385                   ;	AND	0FH		; redundant: bereits in AHEX0
  386 C23C  D6 02       	SUB	2
  387 C23E  CD F3B3     	CALL	AHEX0		; Ebene ausgeben
  388 C241  DB 89       	IN	A,(PIOBD)
  389 C243  CB 6F       	BIT	5,A		; Schaltzustand
  390 C245  07          	RLCA			; Schreibschutz (Bit 6)
  391 C246  07          	RLCA			; ins Carry-Flag rotieren
  392 C247  3F          	CCF			; und invertieren
  393 C248  18 31       syst7:	JR	SYST6
  394                   ; 4
  395 C24A  10 21       SYST4:	DJNZ	SYST5
  396 C24C  CD F0B4     	CALL	OSTR
  397 C24F  52 41 4D 34 	DB	'RAM4',0
  398 C254  CD F3A2     	CALL	SPACE
  399 C257  3A B804     	LD	A,(MODST+4)
  400 C25A  0F          	RRCA
  401 C25B  0F          	RRCA			; Bit 2
  402 C25C  E6 01       	AND	1
  403 C25E  C6 30       	ADD	A,'0'
  404 C260  CD F3BB     	CALL	OCHR		; Ebene 0/1
  405 C263  DD 7E 04    	LD	A,(IX+4)
  406 C266  CB 47       	BIT	0,A		; Schaltzustand
  407 C268  0F          	RRCA			; Schreibschutz (Bit 1)
  408 C269  0F          	RRCA			; ins Carry-Flag rotieren
  409 C26A  3F          	CCF			; und invertieren
  410 C26B  18 0E       	JR	SYST6
  411                   ; 5
  412 C26D  CD F0B4     SYST5:	CALL	OSTR
  413 C270  43 41 4F 53 	DB	'CAOSC',0
  414 C276  3A B805     	LD	A,(MODST+5)
  415 C279  E6 01       	AND	1
  416 C27B  CD D31F     SYST6:	CALL	WONOF
  417 C27E  2C          	INC	L		; Steckplatz+1
  418 C27F  3E 06       	LD	A,6
  419 C281  BD          	CP	L
  420 C282  C2 C1D0     	JP	NZ,SYST0	; bei 06 abbrechen
  421 C285  C9          	RET
  422                   
  423 C286  CD F0B4     OSTR2:	CALL	OSTR
  424 C289  2D 2D 20 2D 	DB	'-- -- -- ',0
  425 C293  C3 F0B4     	JP	OSTR
  426                   
  427                   ; Modulkontrollanzeige (externe Module):
  428                   
  429 C296  AF          MODULC:	XOR	A
  430 C297  D3 91       	OUT	(91h),A		; M008/M021 PIO-B Daten
  431 C299  DB 91       	IN	A,(91h)
  432 C29B  A7          	AND	A		; PIO vorhanden?
  433 C29C  20 0D       	JR	NZ,MODC1	; nein, nicht anzeigen
  434 C29E  CD C286     	CALL	OSTR2
  435 C2A1  4A 4F 59 2F 	DB	'JOY/CEN',CR,LF,0
  436 C2AB  2E 07       MODC1:	LD	L,7		; ab Platz 7
  437 C2AD  E5          MODC2:	PUSH	HL
  438 C2AE  3E 01       	LD	A,1		; lesen
  439 C2B0  CD C3B1     	CALL	MODUC
SLR180 SuperFast Relocating Macro Assembler     			    SLR180 1.31 Page  20
CC48    INC

  440 C2B3  7C          	LD	A,H
  441 C2B4  3C          	INC	A		; Kennbyte=FFh?
  442 C2B5  28 36       	JR	Z,MODC8		; kein Modul
  443                   
  444 C2B7  CD D340     	CALL	LHD		; Anzeige Steckplatz, Kennbyte, Steuerbyte
  445                   
  446 C2BA  4C          	LD	C,H
  447 C2BB  7C          	ld	a,h
  448 C2BC  FE F3       	cp	0f3h		; M062?
  449 C2BE  28 32       	jr	z,M062		; Test ob RAM- oder ROM-Version
  450 C2C0  FE FB       	cp	0fbh		; Software-Modul?
  451 C2C2  28 45       	jr	z,slot		; Inhalt analysieren!
  452 C2C4  FE FD       	cp	0fdh		; M052?
  453 C2C6  CA C32C     	jp	z,M052		; Test, welche Variante vorliegt
  454 C2C9  21 CFE3     	ld	hl,muser
  455 C2CC  FE C0       	cp	0c0h
  456 C2CE  38 04       	jr	c,MODC3		; kleiner als C0
  457 C2D0  FE D8       	cp	0d8h
  458 C2D2  38 13       	jr	c,MODC6		; USER-Modul von C0-D7
  459 C2D4  21 CE92     MODC3:	LD	HL,MTAB
  460 C2D7  7E          MODC4:	LD	A,(HL)
  461 C2D8  23          	INC	HL
  462 C2D9  FE FF       	CP	0FFH		; Tabelle durchsucht?
  463 C2DB  28 0A       	JR	Z,MODC6
  464 C2DD  B9          	CP	C		; Strukturbyte in Tabelle MTAB?
  465 C2DE  28 07       	JR	Z,MODC6		; Text gefunden
  466 C2E0  7E          MODC5:	LD	A,(HL)
  467 C2E1  23          	INC	HL
  468 C2E2  A7          	AND	A		; Stringende?
  469 C2E3  20 FB       	JR	NZ,MODC5
  470 C2E5  18 F0       	JR	MODC4
  471                   	;
  472 C2E7  CD F8EB     MODC6:	CALL	ZKOUT		; Modulname
  473 C2EA  CD F4C4     MODC7:	CALL	CRLF
  474 C2ED  E1          MODC8:	POP	HL
  475 C2EE  2C          	INC	L		; Steckplatz+1
  476 C2EF  20 BC       	JR	NZ,MODC2	; bis FFh
  477 C2F1  C9          	RET
  478                   ;
  479                   ; Test, ob M062 als 8*8K ROM oder 4*8K RAM vorliegt.
  480                   ; Zur Unterscheidung wird ein RAM-Test durchgefuehrt
  481                   ;
  482                   ; PE:	L=Steckplatz	H=Kennbyte = 0FBH
  483                   ;
  484 C2F2  CD C379     M062:	call	SLOT1		; Modul auf 4000h einblenden
  485                   ;	ld	hl,4000h	; RAM-Inhalt lesen
  486 C2F5  7E          	ld	a,(hl)
  487 C2F6  34          	inc	(hl)		; Inhalt veraendern
  488 C2F7  BE          	cp	(hl)		; RAM oder ROM
  489 C2F8  77          	ld	(hl),a		; regenerieren
  490 C2F9  21 CFF9     	ld	hl,M062B	; ROM
  491 C2FC  28 03       	jr	z,SLOT2
  492 C2FE  21 CFF0     	ld	hl,M062A	; RAM
  493 C301  CD F8EB     SLOT2:	call	zkout		; Testergebnis anzeigen
  494 C304  CD C392     SLOT3:	call	SLOT0		; Modulzustaende nach Tabelle regenerieren
  495 C307  18 E1       	jr	MODC7		; weiter suchen auf naechstem Steckplatz
  496                   ;
  497                   ; Suche nach Inhalt der Softwaremodule M012, M026, M027 usw.
SLR180 SuperFast Relocating Macro Assembler     			    SLR180 1.31 Page  21
CC48    INC

  498                   ; Es wird das erste Menwort gesucht, und dieses als Name angezeigt!
  499                   ; PE:	L=Steckplatz	H=Kennbyte = 0FBH
  500                   ;
  501 C309  CD C379     slot:	call	SLOT1		; Modul auf 4000h einblenden
  502                   ;	ld	hl,4000h	; Suchbereich Beginn
  503 C30C  11 CFE2     	ld	de,MTAB2	; Vergleichskette 0-String
  504 C30F  06 20       	ld	b,20h		; 8K durchsuchen
  505                   ;	ld	a,07Fh		; CAOS-Prologbyte fuer Menuewort-Suche
  506 C311  CD F336     	call	zs0		; erstes Menuewort suchen
  507 C314  38 05       	jr	c,SLOT4		; Menuewort gefunden
  508 C316  21 CFDA     	ld	hl,mtab1	; ansonsten als "Software" anzeigen
  509 C319  18 07       	jr	SLOT6
  510                   	;
  511 C31B  2B          SLOT4:	dec	hl
  512 C31C  7E          	ld	a,(hl)
  513 C31D  FE 7F       	cp	7fh		; zurueck bis zu Prologbyte
  514 C31F  20 FA       	jr	nz,SLOT4
  515 C321  23          SLOT5:	inc	hl
  516 C322  7E          SLOT6:	ld	a,(hl)
  517 C323  FE 20       	cp	20h		; Epilog?
  518 C325  38 DD       	jr	c,SLOT3		; ja
  519 C327  CD F3BB     	call	ochr		; Menuewort anzeigen
  520 C32A  18 F5       	jr	SLOT5
  521                   ;
  522                   ; Testen welche Variante des M052 vorliegt. Dazu werden die Datenports von der
  523                   ; Netzwerk-PIO gelesen und falls ein Wert ungleich FFh kommt, von einem
  524                   ; Kombimodul mit USB+Netzwerk ausgegangen.
  525                   ; M052-Portadressen: 28h..2Bh Netzwerk-PIO / 2Ch..2Fh USB-PIO
  526                   ;
  527                   ; PE:	L=Steckplatz	H=Kennbyte = 0FDH
  528                   
  529 C32C  26 B8       M052:	LD	H,HIGH(MODST)	; Modulsteuerbytespeicher
  530 C32E  7E          	ld	a,(hl)		; aktueller Zustand
  531 C32F  CB D7       	set	2,a		; PIO's ein
  532 C331  45          	ld	b,l		; Steckplatz
  533 C332  0E 80       	ld	c,80h
  534 C334  ED 79       	out	(c),a		; PIO's des M052 einschalten
  535 C336  21 CFE8     	ld	hl,M052A
  536 C339  DB 28       	in	a,(28h)		; M052 PIO NET Daten A
  537 C33B  3C          	inc	a
  538 C33C  20 08       	jr	nz,M052N1	; Netzwerk-PIO gefunden
  539 C33E  DB 29       	in	a,(29h)		; M052 PIO NET Daten B
  540 C340  3C          	inc	a
  541 C341  20 03       	jr	nz,M052N1	; Netzwerk-PIO gefunden
  542 C343  21 CFEC     	ld	hl,M052B
  543 C346  18 B9       M052N1:	JR	SLOT2		; Modulname anzeigen, Schaltzustaende regen.
  544                   
  545                   ; Module lesen und schalten (Menuewort):
  546                   
  547 C348  53          SWIC:	LD	D,E		; Steuerbyte
  548 C349  FE 01       	CP	1
  549 C34B  F5          	PUSH	AF
  550 C34C  28 0D       	JR	Z,SWI3		; nur lesen
  551 C34E  2D          	DEC	L
  552 C34F  20 09       	JR	NZ,SWI2		; nicht IRM
  553 C351  2C          	INC	L
  554 C352  26 B8       	LD	H,HIGH(MODST)	; Modulsteuerbytespeicher
  555 C354  5E          	LD	E,(HL)		; altes Steuerbyte lesen
SLR180 SuperFast Relocating Macro Assembler     			    SLR180 1.31 Page  22
CC48    INC

  556 C355  72          	LD	(HL),D		; neues Steuerbyte eintragen
  557 C356  26 FF       	LD	H,0FFH		; Kennung internes Modul
  558 C358  18 05       	JR	SWI4
  559                   	;
  560 C35A  2C          SWI2:	INC	L
  561 C35B  CD C3B1     SWI3:	CALL	MODUC		; lesen/schalten
  562 C35E  5F          	LD	E,A
  563 C35F  CD F39E     SWI4:	CALL	ALSPC		; Steckplatz L anzeigen
  564 C362  7C          	LD	A,H
  565 C363  CD F39F     	CALL	AHSPC		; Kennbyte Modul
  566 C366  7B          	LD	A,E
  567 C367  CD F3AA     	CALL	AHEX		; Steuerbyte alt
  568 C36A  F1          	POP	AF
  569 C36B  28 09       	JR	Z,SWI5		; das war nur lesen
  570 C36D  3E 09       	LD	A,9
  571 C36F  CD E391     	CALL	CSTBT		; Pfeil nach rechts anzeigen
  572 C372  7A          	LD	A,D
  573 C373  CD F3AA     	CALL	AHEX		; Steuerbyte neu
  574 C376  C3 F4C4     SWI5:	JP	CRLF
  575                   ;
  576                   ; Modul auf Adresse 4000h einblenden
  577                   ; (fuer M012, M026, M027, M052 und M062)
  578                   ; PE:	L =	Steckplatz
  579                   ; PA:	HL = 4000h fuer folgende Operationen
  580                   ; VR:	AF, BC, HL
  581                   ;
  582 C379  01 0880     SLOT1:	LD	BC,0880h	; alle Module von 8 bis L abschalten
  583 C37C  AF          slo1:	XOR	A		; Modul abschalten
  584 C37D  ED 79       	OUT	(C),A		; war vorher ED 71 = OUT (C),0
  585 C37F  04          	inc	b		; naechster Steckplatz
  586 C380  7D          	ld	a,l		; Steckplatz, der zu untersuchen ist
  587 C381  B8          	cp	b		; Steckplatz erreicht?
  588 C382  20 F8       	jr	nz,slo1
  589 C384  3E 41       	ld	a,41h		; Modul auf 4000h einschalten
  590 C386  ED 79       	out	(c),a
  591                   	RESIXA	0,4		; RES 0,(IX+4),A
    1 C388  DD CB 04    	 DB	0DDh,0CBh,4
    2 C38B  87          	 DB	0 SHL 3 OR 10000111b
  592 C38C  D3 86       	OUT	(PORT2),A	; RAM4 aus!
  593 C38E  21 4000     	LD	HL,4000h	; Uebergabe der zu untersuchenden Adresse
  594 C391  C9          	RET
  595                   ;
  596                   ; Modulzustand regenerieren laut Modulsteuerbytetabelle
  597                   ; (erforderlich falls Modulsuche Aenderungen gemacht hat)
  598                   ; PE:	-
  599                   ; PA:	-
  600                   ; VR:	AF, HL, D
  601                   ;
  602 C392  21 B804     SLOT0:	ld	hl,modst+4	; beginnend ab RAM4
  603 C395  56          slo0:	ld	d,(hl)		; gespeicherter Schaltzustand
  604 C396  E5          	push	hl
  605                   ;	ld	a,2		; schalten
  606 C397  CD C3AF     	call	MODUC2		; Schaltzustaende nach Tabelle regenerieren
  607 C39A  E1          	pop	hl
  608 C39B  2C          	inc	l		; naechster Steckplatz
  609 C39C  20 F7       	jr	nz,slo0		; bis FFh
  610 C39E  C9          	ret
  611                   ;
SLR180 SuperFast Relocating Macro Assembler     			    SLR180 1.31 Page  23
CC48    INC

  612                   ; V.24-Modul suchen und einschalten:
  613                   ;
  614                   ; PE:	B	Steckplatz ab dem gesucht wird
  615                   ; PA:	B	Steckplatz des Moduls
  616                   ;	CY = 1	kein M003 vorhanden
  617                   ; VR:	AF, BC, D, HL
  618                   ;
  619 C39F  0E 80       V24SU:	LD	C,80h
  620 C3A1  ED 78       V24S1:	IN	A,(C)
  621 C3A3  FE EE       	CP	0EEH		; M003?
  622 C3A5  28 05       	JR	Z,V24S2		; ja
  623 C3A7  04          	INC	B
  624 C3A8  20 F7       	JR	NZ,V24S1
  625 C3AA  37          	SCF			; nicht gefunden
  626 C3AB  C9          	RET
  627                   	;
  628 C3AC  68          V24S2:	LD	L,B		; Steckplatz
  629 C3AD  16 01       MODUC1:	LD	D,1		; EIN
  630 C3AF  3E 02       MODUC2:	LD	A,2		; Schalten
  631                   
  632                   ; Module schalten:
  633                   ;
  634                   ; PE:	A=1	Modultyp lesen (Register L)
  635                   ;	A=2	Modul schalten (Register D und L)
  636                   ;	L	Modulsteckplatz
  637                   ;	D	Modulsteuerbyte neu
  638                   ; PA:	H	Modultyp (Strukturbyte)
  639                   ;	D	Modulsteuerbyte neu
  640                   ;	A	Modulsteuerbyte alt
  641                   ; VR:	AF, D, H, BC
  642                   
  643 C3B1  26 B8       MODUC:	LD	H,HIGH(MODST)	; Modulsteuerbytespeicher
  644 C3B3  0E 80       	LD	C,80H		; I/O-Adresse
  645 C3B5  45          	LD	B,L		; Steckplatz
  646 C3B6  FE 02       	CP	2		; 2 Parameter angegeben?
  647 C3B8  7E          	LD	A,(HL)		; urspruenglicher Schaltzustand
  648 C3B9  30 04       	JR	NC,MODU1	; Module schalten
  649 C3BB  56          	LD	D,(HL)		; Schaltzustand aus Steuerbytespeicher lesen
  650 C3BC  ED 60       RSTRB:	IN	H,(C)		; Strukturbyte aus Modul lesen
  651 C3BE  C9          	RET
  652                   
  653                   	;Modul schalten
  654 C3BF  F5          MODU1:	PUSH	AF		; alter Zustand
  655 C3C0  72          	LD	(HL),D		; neues Steuerbyte eintragen
  656 C3C1  67          	LD	H,A		; fuer 2. RAM4
  657 C3C2  7D          	LD	A,L
  658 C3C3  FE 06       	CP	6		; interne Module?
  659 C3C5  38 05       	JR	C,MODU2
  660 C3C7  ED 51       	OUT	(C),D		; Steuerbyte an Modul senden
  661 C3C9  F1          	POP	AF		; urspruenglicher Schaltzustand
  662 C3CA  18 F0       	JR	RSTRB		; und noch das Strukturbyte lesen
  663                   
  664                   	;interne Module
  665 C3CC  04          MODU2:	INC	B		; Steckplatz
  666 C3CD  F3          	DI			; damit PIO nicht von einer ISR geaendert wird
  667 C3CE  DB 88       	IN	A,(PIOAD)
  668 C3D0  10 0D       	DJNZ	MODU3		; 0: RAM0?
  669 C3D2  E6 F5       	AND	11110101b
SLR180 SuperFast Relocating Macro Assembler     			    SLR180 1.31 Page  24
CC48    INC

  670 C3D4  67          	LD	H,A
  671 C3D5  7A          	LD	A,D
  672 C3D6  0F          	RRCA			; Bits 0,1 auf 7,0 rotieren
  673 C3D7  E6 81       	AND	10000001b	; CY = 0
  674 C3D9  17          	RLA			; 0 einfuegen, CY = Bit 7
  675 C3DA  17          	RLA			; Bit 0 = CY
  676 C3DB  07          	RLCA			; auf Bits 1,3 rotieren
  677 C3DC  B4          	OR	H
  678 C3DD  18 23       	JR	OUT88
  679                   
  680 C3DF  10 0A       MODU3:	DJNZ	MODU4		; 1: IRM?
  681 C3E1  E6 FB       	AND	11111011b
  682 C3E3  CB 42       	BIT	0,D
  683 C3E5  28 1B       	JR	Z,OUT88
  684 C3E7  F6 04       	OR	00000100b
  685 C3E9  18 17       	JR	OUT88
  686                   
  687 C3EB  10 19       MODU4:	DJNZ	MODU5		; 2: USER-ROM?
  688 C3ED  7A          	LD	A,D
  689 C3EE  2F          	CPL			; negieren
  690 C3EF  07          	RLCA			; Bits 4..5 auf 5..6 rotieren
  691 C3F0  E6 60       	AND	01100000b	; ausfiltern (2 Ebenen)
  692 C3F2  67          	LD	H,A
  693                   ;	DI
  694 C3F3  DD 7E 04    	LD	A,(IX+4)
  695 C3F6  E6 9F       	AND	10011111b
  696 C3F8  B4          	OR	H		; einbauen
  697 C3F9  CD E2A3     	CALL	OUT86		; (IX+4) und PORT2 einstellen
  698                   ;	EI
  699 C3FC  7A          	LD	A,D
  700 C3FD  0F          	RRCA			; CY = Bit 0
  701 C3FE  DB 88       	IN	A,(PIOAD)
  702 C400  17          	RLA			; als Bit 0 einschieben
  703 C401  0F          	RRCA			; und auf Bit 7 rotieren
  704 C402  D3 88       OUT88:	OUT	(PIOAD),A
  705 C404  18 21       	JR	STBFF
  706                   
  707 C406  10 24       MODU5:	DJNZ	MODU6		; 3: RAM8?
  708 C408  3E 03       	LD	A,00000011b	; on/off und Schreibschutz aus Steuerbyte
  709 C40A  A2          	AND	D
  710 C40B  0F          	RRCA			; Bits 0..1 auf 5..6 rotieren
  711 C40C  0F          	RRCA
  712 C40D  0F          	RRCA
  713 C40E  67          	LD	H,A		; in H merken
  714                   ;	DI
  715 C40F  DB 89       	IN	A,(PIOBD)
  716 C411  E6 9F       	AND	10011111b
  717 C413  B4          	OR	H		; on/off und Schreibschutz neu einstellen
  718 C414  D3 89       	OUT	(PIOBD),A
  719                   ;	EI
  720 C416  7A          	LD	A,D
  721 C417  07          	RLCA			; Bits 2..5 auf 4..7 rotieren
  722 C418  07          	RLCA
  723 C419  C6 20       	ADD	A,20h		; Segment-Verschiebung
  724 C41B  E6 F0       	AND	0F0h		; nur Bit 4-7 benutzen
  725 C41D  67          	LD	H,A
  726                   ;	DI
  727 C41E  DD 7E 01    	LD	A,(IX+1)
SLR180 SuperFast Relocating Macro Assembler     			    SLR180 1.31 Page  25
CC48    INC

  728 C421  E6 0F       	AND	0Fh		; Bit 4-7 ruecksetzen
  729 C423  B4          	OR	H		; RAM8-Segment gemaess Steuerbyte einbauen
  730 C424  CD F985     	CALL	OUT84		; (IX+1) und PORT1 einstellen
  731 C427  FB          STBFF:	EI
  732 C428  F1          	POP	AF		; urspruenglicher Zustand
  733 C429  26 FF       	LD	H,0FFh		; internes Modul melden
  734 C42B  C9          	RET
  735                   
  736         0001      IF CAOS2
  737 C42C  10 51       MODU6:	DJNZ	MODU7		; 5=CAOSC
  738                   else
  740                   endif
  741 C42E  7A          	LD	A,D		; 4=RAM4
  742 C42F  AC          	XOR	H		; Vergleich Steuerbyte alt/neu
  743 C430  E6 04       	AND	4		; Aenderung der Ebene?
  744                   ;	DI
  745 C432  28 3F       	JR	Z,RAM41		; nein
  746 C434  DD 7E 04    	LD	A,(IX+4)
  747 C437  F6 03       	OR	3
  748 C439  D3 86       	OUT	(PORT2),A	; RAM4 on
  749 C43B  D5          	PUSH	DE
  750 C43C  E5          	PUSH	HL
  751 C43D  DB 88       	IN	A,(PIOAD)
  752 C43F  F5          	PUSH	AF
  753 C440  CB 87       	RES	0,A
  754                   ; dieser Datenaustausch muss im DI laufen, da der CAOS-ROM E aus ist!
  755 C442  D3 88       	OUT	(PIOAD),A	; CAOSE off
  756 C444  DD 7E 01    	LD	A,(IX+1)
  757 C447  F5          	PUSH	AF
  758 C448  E6 F9       	AND	11111001b
  759 C44A  2E 03       	LD	L,3		; 3 IRM-Ebenen
  760 C44C  01 1000     	LD	BC,1000H	; 800H frei!
  761 C44F  11 4000     	LD	DE,4000H
  762 C452  C6 02       R4IS:	ADD	A,2
  763 C454  D3 84       	OUT	(PORT1),A	; IRM-Ebene
  764 C456  67          	LD	H,A
  765 C457  E5          	PUSH	HL
  766 C458  21 A800     	LD	HL,0A800H
  767 C45B  1A          R4MV:	LD	A,(DE)
  768 C45C  ED A0       	LDI
  769 C45E  2B          	DEC	HL
  770 C45F  77          	LD	(HL),A
  771 C460  23          	INC	HL
  772 C461  EA C45B     	JP	PE,R4MV
  773 C464  E1          	POP	HL
  774 C465  7C          	LD	A,H
  775 C466  06 18       	LD	B,18H		; jetzt 1800H!
  776 C468  2D          	DEC	L
  777 C469  20 E7       	JR	NZ,R4IS
  778 C46B  F1          	POP	AF
  779 C46C  D3 84       	OUT	(PORT1),A	; IRM wie zuvor
  780 C46E  F1          	POP	AF
  781 C46F  D3 88       	OUT	(PIOAD),A	; CAOSE on
  782                   ; ab hier koennte wieder EI eingestellt werden, CAOS-ROM E ist wieder ein
  783 C471  E1          	POP	HL
  784 C472  D1          	POP	DE
  785 C473  DD 7E 04    RAM41:	LD	A,(IX+4)
  786 C476  AA          	XOR	D
SLR180 SuperFast Relocating Macro Assembler     			    SLR180 1.31 Page  26
CC48    INC

  787 C477  E6 FC       	AND	11111100b	; Bits 0..1: a = (0 XOR d) = d
  788 C479  AA          RAM42:	XOR	D		; Bits 2..7: a = (a XOR d) XOR d
  789 C47A  CD E2A3     	CALL	OUT86		; (IX+4) und PORT2 einstellen
  790 C47D  18 A8       	JR	STBFF
  791         0001      if CAOS2
  792 C47F  DD 7E 04    MODU7:	LD	A,(IX+4)
  793 C482  AA          	XOR	D
  794 C483  E6 EF       	AND	11101111b	; Bit 4 schaltet ROM-Ebene (Zeichensatz) um
  795 C485  18 F2       	JR	RAM42
  796                   endif
  797                   
  798                   ; F-Taste belegen:
  799                   
  800 C487  21 B900     KEYC:	LD	HL,FTASTE	; 0B900H
  801 C48A  A7          	AND	A
  802 C48B  20 07       	JR	NZ,KEY0
  803 C48D  06 9C       	LD	B,9CH
  804 C48F  77          KEYCL:	LD	(HL),A		; loeschen
  805 C490  2C          	INC	L
  806 C491  10 FC       	DJNZ	KEYCL
  807 C493  C9          	RET
  808                   	;
  809 C494  FE 10       KEY0:	CP	15+1
  810 C496  D0          	RET	NC		; nur F1 bis FF
  811 C497  47          	LD	B,A
  812 C498  F6 F0       	OR	0F0H
  813 C49A  4F          	LD	C,A
  814 C49B  7E          KEY1:	LD	A,(HL)		; B Dummys auszaehlen
  815 C49C  2C          	INC	L
  816 C49D  C8          	RET	Z
  817 C49E  A7          	AND	A
  818 C49F  20 FA       	JR	NZ,KEY1
  819 C4A1  10 F8       	DJNZ	KEY1
  820 C4A3  7D          	LD	A,L
  821 C4A4  FE 9C       	CP	9CH
  822 C4A6  D0          	RET	NC
  823 C4A7  ED 5B B7A0  	LD	DE,(CURSO)
  824 C4AB  CD C564     	CALL	KEYDI		; praesentieren
  825 C4AE  CD F3D5     KEY2:	CALL	INTB
  826 C4B1  FE 13       	CP	13H
  827 C4B3  20 03       	JR	NZ,KEY3
  828 C4B5  04          	INC	B		; Umschaltung
  829 C4B6  18 F6       	JR	KEY2
  830                   	;
  831 C4B8  CB 40       KEY3:	BIT	0,B
  832 C4BA  28 0D       	JR	Z,KEY4		; interpretieren
  833 C4BC  FE 03       	CP	3
  834 C4BE  28 70       	JR	Z,KEY12		; BRK=Abbruch
  835 C4C0  FE 0D       	CP	CR
  836 C4C2  28 0A       	JR	Z,KEY5		; Enter=belegen
  837 C4C4  CD F3BB     	CALL	OCHR
  838 C4C7  18 E5       	JR	KEY2
  839                   	;
  840 C4C9  CD E391     KEY4:	CALL	CSTBT
  841 C4CC  18 E0       	JR	KEY2
  842                   	;
  843 C4CE  E5          KEY5:	PUSH	HL		; Pos. in Puffer
  844 C4CF  CD E087     	CALL	DABR
SLR180 SuperFast Relocating Macro Assembler     			    SLR180 1.31 Page  27
CC48    INC

  845 C4D2  EB          	EX	DE,HL
  846 C4D3  CD F4CB     	CALL	RHEX		; Fn lesen
  847 C4D6  E1          	POP	HL
  848 C4D7  38 06       	JR	C,KERR		; Formatfehler
  849 C4D9  3A B797     	LD	A,(NUMVX)
  850 C4DC  B9          	CP	C		; geaendert!
  851 C4DD  28 06       	JR	Z,KEY6
  852 C4DF  CD F4C4     KERR:	CALL	CRLF
  853 C4E2  C3 F4BA     	JP	ERRM
  854                   	;
  855 C4E5  13          KEY6:	INC	DE
  856 C4E6  13          	INC	DE
  857 C4E7  06 9B       	LD	B,9BH
  858 C4E9  2F          	CPL
  859 C4EA  A7          	AND	A
  860 C4EB  28 21       	JR	Z,KEY8		; KEY F
  861 C4ED  3C          	INC	A
  862 C4EE  47          	LD	B,A
  863 C4EF  4D          	LD	C,L
  864 C4F0  7E          KEY7:	LD	A,(HL)
  865 C4F1  2C          	INC	L
  866 C4F2  28 EB       	JR	Z,KERR		; Puffer voll!
  867 C4F4  A7          	AND	A
  868 C4F5  20 F9       	JR	NZ,KEY7
  869 C4F7  10 F7       	DJNZ	KEY7		; Ende suchen
  870 C4F9  2D          	DEC	L
  871 C4FA  7D          	LD	A,L
  872 C4FB  FE 9C       	CP	9CH
  873 C4FD  30 E0       	JR	NC,KERR		; Puffer voll!
  874 C4FF  44          	LD	B,H
  875 C500  C5          	PUSH	BC
  876 C501  91          	SUB	C
  877 C502  4F          	LD	C,A
  878 C503  06 00       	LD	B,0
  879 C505  D5          	PUSH	DE
  880 C506  11 B99B     	LD	DE,0B99BH
  881 C509  ED B8       	LDDR			; Rest hinter
  882 C50B  43          	LD	B,E
  883 C50C  D1          	POP	DE
  884 C50D  E1          	POP	HL
  885 C50E  4F          KEY8:	LD	C,A
  886 C50F  2D          KEY9:	DEC	L
  887 C510  7E          	LD	A,(HL)
  888 C511  A7          	AND	A
  889 C512  20 FB       	JR	NZ,KEY9		; zurueck bis 0
  890 C514  2C          KEY10:	INC	L
  891 C515  1A          	LD	A,(DE)
  892 C516  13          	INC	DE
  893 C517  77          	LD	(HL),A		; belegen
  894 C518  B7          	OR	A
  895 C519  28 08       	JR	Z,KEY11
  896 C51B  78          	LD	A,B
  897 C51C  95          	SUB	L
  898 C51D  20 F5       	JR	NZ,KEY10
  899 C51F  36 00       	LD	(HL),0
  900 C521  18 BC       	JR	KERR
  901                   	;
  902 C523  79          KEY11:	LD	A,C
SLR180 SuperFast Relocating Macro Assembler     			    SLR180 1.31 Page  28
CC48    INC

  903 C524  A7          	AND	A
  904 C525  28 09       	JR	Z,KEY12		; KEY F
  905 C527  04          	INC	B
  906 C528  2C          	INC	L
  907 C529  5D          	LD	E,L
  908 C52A  54          	LD	D,H
  909 C52B  68          	LD	L,B
  910 C52C  06 00       	LD	B,0
  911 C52E  ED B0       	LDIR			; Rest nach vorn
  912 C530  C3 F4C4     KEY12:	JP	CRLF
  913                   
  914                   ; Anzeige belegter F-Tasten:
  915                   
  916 C533  21 B901     KEYLIC:	LD	HL,FTASTE+1
  917 C536  01 00F1     	LD	BC,0F1H
  918 C539  7E          KEYLC1:	LD	A,(HL)
  919 C53A  A7          	AND	A
  920 C53B  28 07       	JR	Z,KEYLC2
  921 C53D  CD C564     	CALL	KEYDI		; Belegung
  922 C540  CD F4C4     	CALL	CRLF
  923 C543  04          	INC	B		; Zaehler
  924 C544  2C          KEYLC2:	INC	L
  925 C545  7D          	LD	A,L
  926 C546  FE 9C       	CP	9CH
  927 C548  30 03       	JR	NC,KEYLC3
  928 C54A  0C          	INC	C
  929 C54B  20 EC       	JR	NZ,KEYLC1	; F1 bis FF
  930 C54D  04          KEYLC3:	INC	B
  931 C54E  05          	DEC	B
  932 C54F  C0          	RET	NZ
  933 C550  CD F0B4     	CALL	OSTR
  934 C553  46 2D 54 61 	DB	'F-Tasten leer'
  935 C560  0D 0A 00    	DB	CR,LF,0
  936 C563  C9          	RET
  937                   
  938 C564  3E 02       KEYDI:	LD	A,2
  939 C566  CD F3BB     	CALL	OCHR		; Zeile loeschen
  940 C569  79          	LD	A,C
  941 C56A  CD F0B1     	CALL	AHOSTR		; Fn
  942 C56D  20 3A 00    	DB	' :',0
  943 C570  7E          KEYD1:	LD	A,(HL)
  944 C571  B7          	OR	A
  945 C572  C8          	RET	Z
  946 C573  CD E391     	CALL	CSTBT
  947 C576  23          	INC	HL
  948 C577  7D          	LD	A,L
  949 C578  FE 9C       	CP	9CH
  950 C57A  D0          	RET	NC
  951 C57B  18 F3       	JR	KEYD1
  952                   
  953                   ; COLOR-Menuewort:
  954                   
  955 C57D  A7          COLRC:	AND	A		; Anzahl Parameter
  956 C57E  20 1E       	JR	NZ,SETCO	; 1 oder 2 -> Farben einstellen
  957 C580  67          	LD	H,A		; 0 = aktuelle Farben anzeigen
  958 C581  3A B7A3     	LD	A,(COLOR)
  959 C584  0F          	RRCA
  960 C585  0F          	RRCA
SLR180 SuperFast Relocating Macro Assembler     			    SLR180 1.31 Page  29
CC48    INC

  961 C586  0F          	RRCA
  962 C587  E6 1F       	AND	1FH
  963 C589  6F          	LD	L,A
  964 C58A  CD EDA4     	CALL	HLDEZ		; Anzeige Vordergrundfarbe
  965 C58D  CD F3A2     	CALL	SPACE
  966 C590  3A B7A3     	LD	A,(COLOR)
  967 C593  E6 07       	AND	7
  968 C595  6F          	LD	L,A
  969 C596  CD EDA4     	CALL	HLDEZ		; Anzeige Hintergrundfarbe
  970 C599  CD F4C4     	CALL	CRLF
  971 C59C  18 18       	JR	COLRC2
  972                   
  973                   ; COLOR-Unterprogramm = Farbe setzen (aus L und E)
  974                   
  975 C59E  3E 1F       SETCO:	LD	A,1FH		; 1 oder 2 
  976 C5A0  A5          	AND	L		; Maske fuer Vordergrundfarbe
  977 C5A1  17          	RLA
  978 C5A2  17          	RLA
  979 C5A3  17          	RLA
  980 C5A4  6F          	LD	L,A
  981 C5A5  3A B781     	LD	A,(ARGN)
  982 C5A8  FE 02       	CP	2		; auch Hintergrund einstellen?
  983 C5AA  7B          	LD	A,E		; neue Hintergrundfarbe
  984 C5AB  30 03       	JR	NC,COLRC1
  985 C5AD  3A B7A3     	LD	A,(COLOR)	; alte Hintergrundfarbe
  986 C5B0  E6 07       COLRC1:	AND	7
  987 C5B2  B5          	OR	L
  988 C5B3  32 B7A3     	LD	(COLOR),A	; neuer Farbwert
  989 C5B6  C3 FB87     COLRC2:	JP	COFF
  990                   
  991                   ; WINDOW-Menuewort
  992                   ; 21.05.2021: Bedeutung der Argumente wie bei BASIC angepasst
  993                   ; PE:	A	Anzahl Argumente
  994                   ;	A=0	Standardfenster (volle Groesse) einstellen
  995                   ;	A=1	Fenster mit Nr. aufrufen
  996                   ;	A=4(5)	Fenster (mit Nr.) definieren
  997                   ;	L	Erste Zeile / Fensternummer bei A=1
  998                   ;	E	Letzte Zeile	(bisher Anzahl Zeilen)
  999                   ;	C	Erste Spalte
 1000                   ;	(ARG4)	Letzte Spalte	(bisher Anzahl Spalten)
 1001                   ;	(ARG5)	Fensternummer
 1002                   ;
 1003 C5B9  A7          WINDC:	AND	A		; Kein Argument?
 1004 C5BA  28 21       	JR	Z,WINC0		; Standardfenster initialisieren
 1005 C5BC  3D          	DEC	A		; 1 Arg?
 1006 C5BD  28 29       	JR	Z,WINAKL	; Aufruf Nummer L
 1007 C5BF  D6 03       	SUB	3
 1008 C5C1  38 17       	JR	C,WINCJE	; 2..3 Arg => ERROR
 1009 C5C3  28 03       	JR	Z,WINC1		; Fenster Nr. 0
 1010 C5C5  3A B78A     	LD	A,(ARG5)	; Fenster nr definieren
 1011 C5C8  47          WINC1:	LD	B,A		; Fensternummer
 1012                   
 1013 C5C9  7B          	LD	A,E		; letzte Zeile
 1014 C5CA  95          	SUB	L		; erste Zeile
 1015                   ;	JR	C,WINCE		; Anfang > Ende (wird von WININ ueberwacht)
 1016 C5CB  3C          	INC	A
 1017 C5CC  57          	LD	D,A		; Anzahl Zeilen (Fensterhoehe)
 1018                   
SLR180 SuperFast Relocating Macro Assembler     			    SLR180 1.31 Page  30
CC48    INC

 1019 C5CD  3A B788     	LD	A,(ARG4)	; letzte Spalte
 1020 C5D0  91          	SUB	C		; erste Spalte
 1021                   ;	JR	C,WINCE		; Anfang > Ende (wird von WININ ueberwacht)
 1022 C5D1  3C          	INC	A
 1023 C5D2  5F          	LD	E,A		; Anzahl Spalten (Fensterbreite)
 1024                   
 1025 C5D3  65          	LD	H,L		; H = erste Zeile
 1026 C5D4  69          	LD	L,C		; L = erste Spalte
 1027 C5D5  78          	LD	A,B		; A = Fensternummer
 1028                   
 1029 C5D6  CD C619     	CALL	WININC		; Fenster initialisieren
 1030 C5D9  D0          	RET	NC		; OK
 1031 C5DA  C3 F4BA     WINCJE:	JP	ERRM		; ansonsten Fehler anzeigen
 1032                   
 1033 C5DD  11 B79B     WINC0:	LD	DE,WINNR	; von Fensternummer
 1034 C5E0  21 C002     WINC2:	LD	HL,WIN0		; bis WEND-Adresse
 1035 C5E3  01 000B     	LD	BC,WIN1-WIN0	; mit Standardwerten aus ROM
 1036 C5E6  18 2E       	JR	LDIRET		; Fenster 0 neu initialisieren
 1037                   
 1038                   ; definiertes Fenster aufrufen:
 1039                   ; PE:	A	Fensternummer 0..9
 1040                   ; PA:	CY=1	Fehler
 1041                   ; VR:	AF,BC,DE,HL
 1042                   
 1043 C5E8  7D          WINAKL:	LD	A,L		; Fensternummer
 1044 C5E9  CD C606     WINAKC:	CALL	WCOPY		; aktuelles Fenster retten
 1045 C5EC  32 B79B     	LD	(WINNR),A	; neue Fensternummer
 1046                   ;Einsprung fuer BASIC (PRINT AT)
 1047 C5EF  CD C5F9     WINAKB:	CALL	WINADR		; Adresse Vektorspeicher in DE
 1048 C5F2  D8          	RET	C		; Nr. ausserhalb
 1049 C5F3  EB          	EX	DE,HL		; HL=Adresse der gespeicherten Fensterdaten
 1050 C5F4  11 B79C     	LD	DE,WINON	; gespeichertes Fenster laden
 1051 C5F7  18 1A       	JR	WCOP1
 1052                   
 1053                   ; Testet Fenster-Nr. und berechnet Position in Fenstervektorspeicher
 1054                   ; PE:	A	Fensternummer 0-9
 1055                   ; PA:	CY=1	Nr. zu gross
 1056                   ;	DE	Adresse im Fenstervektorspeicher
 1057                   
 1058 C5F9  C6 F6       WINADR:	ADD	A,-10
 1059 C5FB  D8          	RET	C		; zu gross
 1060 C5FC  87          	ADD	A,A	; *2
 1061 C5FD  5F          	LD	E,A
 1062 C5FE  87          	ADD	A,A	; *4
 1063 C5FF  87          	ADD	A,A	; *8
 1064 C600  83          	ADD	A,E	; *10
 1065 C601  5F          	LD	E,A
 1066 C602  16 B9       	LD	D,High(WNDFN)	; Adresse im Fenstervektorspeicher
 1067 C604  A7          	AND	A		; CY=0
 1068 C605  C9          	RET
 1069                   
 1070                   ; aktuelles Fenster (WINNR) in Fenstervektorspeicher retten
 1071                   ; PE:	A	Fensternummer 0..9
 1072                   ; PA:	CY=1	Nr. zu gross
 1073                   ;	BC=0
 1074                   ; VR:	F,BC,DE,HL
 1075                   
 1076 C606  F5          WCOPY:	PUSH	AF
SLR180 SuperFast Relocating Macro Assembler     			    SLR180 1.31 Page  31
CC48    INC

 1077 C607  3A B79B     	LD	A,(WINNR)	; aktuelle Fensternummer
 1078 C60A  CD C5F9     	CALL	WINADR		; Adresse berechnen
 1079 C60D  38 0E       	JR	C,WINIE		; Fehler
 1080 C60F  F1          	POP	AF
 1081 C610  21 B79C     	LD	HL,WINON	; ab Fensteranfang 10 Byte retten
 1082 C613  01 000A     WCOP1:	LD	BC,10		; Laenge Fenstervektor
 1083 C616  ED B0       LDIRET:	LDIR
 1084 C618  C9          	RET
 1085                   
 1086                   ; Initialisierung eines Fensters
 1087                   ; PE:	A	Fensternummer 0..9
 1088                   ;	HL	Fensteranfang
 1089                   ;	DE	Fenstrergroesse
 1090                   ; PA:	CY=1	Fehler
 1091                   ; VR:	AF,BC,DE,HL
 1092                   
 1093 C619  F5          WININC:	PUSH	AF
 1094 C61A  CD C620     	CALL	WININ1
 1095 C61D  F1          WINIE:	POP	AF		; Fehlerende
 1096 C61E  37          	SCF
 1097 C61F  C9          	RET
 1098                   	;
 1099 C620  FE 0A       WININ1:	CP	10		; Fensternummer
 1100 C622  D0          	RET	NC		; nur 10 Fenster moeglich
 1101 C623  7A          	LD	A,D		; Zeilen
 1102 C624  A7          	AND	A
 1103 C625  C8          	RET	Z		; Zeilenanzahl=0 -> ERROR
 1104 C626  84          	ADD	A,H
 1105 C627  D8          	RET	C		; Anzahl+Anfang>256 -> ERROR
 1106 C628  FE 21       	CP	33
 1107 C62A  D0          	RET	NC		; Anzahl+Anfang>32 -> ERROR
 1108 C62B  7B          	LD	A,E		; Spalten
 1109 C62C  A7          	AND	A
 1110 C62D  C8          	RET	Z		; Spaltenanzahl=0 -> ERROR
 1111 C62E  85          	ADD	A,L
 1112 C62F  D8          	RET	C		; Anzahl+Anfang>256 -> ERROR
 1113 C630  FE 29       	CP	41
 1114 C632  D0          	RET	NC		; Anzahl+Anfang>40 -> ERROR
 1115 C633  F1          	POP	AF		; Ruecksprung nach WINIE vom Stack
 1116 C634  F1          	POP	AF
 1117                   ;Einsprung fuer BASIC (PRINT AT)
 1118 C635  D5          WININB:	PUSH	DE
 1119 C636  E5          	PUSH	HL
 1120 C637  CD C606     	CALL	WCOPY		; aktuelles Fenster retten
 1121 C63A  E1          	POP	HL
 1122 C63B  D1          	POP	DE
 1123 C63C  22 B79C     	LD	(WINON),HL	; Fensteranfang
 1124 C63F  ED 53 B79E  	LD	(WINLG),DE	; Fenstergroesse
 1125 C643  ED 43 B7A0  	LD	(CURSO),BC	; BC=0
 1126 C647  32 B79B     	LD	(WINNR),A	; Fensternummer
 1127 C64A  A7          	AND	A		; CY=0
 1128 C64B  C9          	RET
 1129                   
 1130         0001      if SYSROM
 1131                   ;
 1132                   ; 13.06.2021:
 1133                   ; JUMP-Erweiterung zum Sprung in 8 verschiedene CAOS-Versionen.
 1134                   ; PE:	A=0-7
SLR180 SuperFast Relocating Macro Assembler     			    SLR180 1.31 Page  32
CC48    INC

 1135                   ;
 1136 C64C  F3          JUMPC:	DI			; Interrupt global sperren
 1137 C64D  11 B7A6     	LD	DE,NCAOS+2-LENX	; im IRM vor dem JUMP zu NCAOS
 1138 C650  D5          	PUSH	DE		; ist gleichzeitig Sprungziel
 1139 C651  21 C659     	LD	HL,CODEX	; Umschalt-Code vom ROM
 1140 C654  01 0010     	LD	BC,LENX		; Laenge
 1141 C657  18 BD       	JR	LDIRET		; in IRM kopieren und dort starten
 1142                   ; ueberschreibt zwar CCTL-Zeichentabellen und auch den System-SP-Merker sowie
 1143                   ; den Zeiger auf die SUTAB - macht aber nichts, da mit dem Sprung zu F012H das
 1144                   ; gesamte System neu initialisiert wird (entspricht RESET)
 1145                   
 1146 C659  47          CODEX:	LD	B,A		; CAOS-Ebene 0..7
 1147 C65A  04          	INC	B		; Ebene 1-8
 1148 C65B  3E E7       	ld	a,0E7h		; CAOS-C ein, RAM4 ein, Reset-Impuls ein
 1149 C65D  D3 86       	OUT	(PORT2),A
 1150 C65F  F6 08       R0:	OR	8		; Zaehl-Impuls ein
 1151 C661  D3 86       	OUT	(PORT2),A	; Impuls ausloesen
 1152 C663  E6 F3       	AND	0F3h		; RESET-Impuls und Zaehl-Impuls aus
 1153 C665  D3 86       	OUT	(PORT2),A	; Impuls wieder aus
 1154 C667  10 F6       	DJNZ	R0		; Bis n Impulse ausgegeben sind, danach:
 1155                   ;	JP	0F012H		; in neues System springen
 1156         0010      LENX	EQU $-CODEX
 1157                   endif
 1158                   
 1159                   ; Linie zeichnen					**3E**
 1160                   ; von (ARG1)/(ARG2) nach (ARG3)/(ARG4)
 1161                   
 1162 C669  ED 5B B784  LINEC:	 LD	DE,(ARG2)	; YANF
 1163 C66D  2A B788     	 LD	HL,(ARG4)	; YEND
 1164 C670  D9          	 EXX
 1165 C671  ED 5B B782  	LD	DE,(ARG1)	; XANF
 1166 C675  D5          	PUSH	DE
 1167 C676  2A B786     	LD	HL,(ARG3)	; XEND
 1168 C679  3E 08       	LD	A,8		; X=Master
 1169 C67B  B7          	OR	A
 1170 C67C  ED 52       	SBC	HL,DE		; HL=XSTEPS
 1171 C67E  30 06       	JR	NC,LINC1	; vorwaerts
 1172 C680  19          	ADD	HL,DE
 1173 C681  EB          	EX	DE,HL
 1174 C682  F6 01       	OR	1		; rueckwaerts
 1175 C684  ED 52       	SBC	HL,DE
 1176 C686  D9          LINC1:	 EXX
 1177 C687  D5          	 PUSH	DE		; YANF
 1178 C688  ED 52       	 SBC	HL,DE		; HL'=YSTEPS
 1179 C68A  30 06       	 JR	NC,LINC2	; steigend
 1180 C68C  19          	 ADD	HL,DE
 1181 C68D  EB          	 EX	DE,HL
 1182 C68E  F6 02       	 OR	2		; fallend
 1183 C690  ED 52       	 SBC	HL,DE
 1184 C692  E5          LINC2:	 PUSH	HL		; YSTEPS
 1185 C693  D9          	 EXX			; HL=XSTEPS
 1186 C694  C1          	POP	BC		; BC=YSTEPS
 1187 C695  E5          	PUSH	HL
 1188 C696  ED 42       	SBC	HL,BC		; flach/steil?
 1189 C698  E1          	POP	HL
 1190 C699  C5          	PUSH	BC
 1191 C69A  30 05       	JR	NC,LINC3	; flach
 1192 C69C  E3          	EX	(SP),HL
SLR180 SuperFast Relocating Macro Assembler     			    SLR180 1.31 Page  33
CC48    INC

 1193 C69D  CB 9F       	RES	3,A		; X=Slave
 1194 C69F  CB D7       	SET	2,A		; Y=Master
 1195 C6A1  E5          LINC3:	PUSH	HL		; HL=MAX(STEPS)
 1196 C6A2  44          	LD	B,H
 1197 C6A3  4D          	LD	C,L		; Pixelzaehler
 1198 C6A4  D9          	 EXX
 1199 C6A5  C1          	 POP	BC		; BC'=MAX(...)
 1200 C6A6  D1          	 POP	DE		; DE'=MIN(...)
 1201 C6A7  60          	 LD	H,B
 1202 C6A8  69          	 LD	L,C
 1203 C6A9  CB 3C       	 SRL	H		; Slave mit 1/2
 1204 C6AB  CB 1D       	 RR 	L		; HL=1/2*MAX(...)
 1205 C6AD  D9          	 EXX
 1206 C6AE  D1          	POP	DE		; DE=YANF
 1207 C6AF  E1          	POP	HL		; HL=XANF
 1208                   
 1209                   ; Hauptschleife
 1210                   ; AF Bitregister
 1211                   ; HL lfd. X-Koordinate	HL' Slave
 1212                   ; DE lfd. Y-Koordinate	DE' -Master
 1213                   ; BC Punktezaehler	BC' +Master
 1214                   
 1215 C6B0  F5          LINCS:	PUSH	AF
 1216 C6B1  08          	EX	AF,AF'		; Bitreg merken
 1217 C6B2  F1          	POP	AF
 1218 C6B3  E5          	PUSH	HL
 1219 C6B4  21 B7ED     	LD	HL,LINTYP
 1220 C6B7  CB 06       	RLC	(HL)
 1221 C6B9  E1          	POP	HL
 1222 C6BA  DC C757     	CALL	C,POINT		; Punkt setzen
 1223 C6BD  D9          	 EXX
 1224 C6BE  A7          	 AND	A
 1225 C6BF  ED 52       	 SBC	HL,DE		; -Master subtrahieren
 1226 C6C1  30 01       	 JR	NC,LINC4	; kein Uebertrag - kein Sprung!
 1227 C6C3  09          	 ADD	HL,BC		; +Master addieren (CY bleibt =1)
 1228 C6C4  D9          LINC4:	 EXX
 1229 C6C5  30 02       	JR	NC,LINC5
 1230 C6C7  F6 0C       	OR	0CH		; X und Y!
 1231 C6C9  CB 5F       LINC5:	BIT	3,A		; X?
 1232 C6CB  28 07       	JR	Z,LINC6
 1233 C6CD  23          	INC	HL
 1234 C6CE  CB 47       	BIT	0,A
 1235 C6D0  28 02       	JR	Z,LINC6
 1236 C6D2  2B          	DEC	HL
 1237 C6D3  2B          	DEC	HL
 1238 C6D4  CB 57       LINC6:	BIT	2,A		; Y?
 1239 C6D6  28 07       	JR	Z,LINC7
 1240 C6D8  13          	INC	DE
 1241 C6D9  CB 4F       	BIT	1,A
 1242 C6DB  28 02       	JR	Z,LINC7
 1243 C6DD  1B          	DEC	DE
 1244 C6DE  1B          	DEC	DE
 1245 C6DF  78          LINC7:	LD	A,B
 1246 C6E0  B1          	OR	C		; letzter Punkt?
 1247 C6E1  C8          	RET	Z	; CY=0
 1248 C6E2  0B          	DEC	BC
 1249 C6E3  08          	EX	AF,AF'		; Bitreg
 1250 C6E4  18 CA       	JR	LINCS
SLR180 SuperFast Relocating Macro Assembler     			    SLR180 1.31 Page  34
CC48    INC

 1251                   
 1252                   ; Kreis zeichnen					**3F**
 1253                   
 1254 C6E6  3A B786     CIRCLC:	LD	A,(ARG3)	; Radius R
 1255 C6E9  4F          	LD	C,A
 1256 C6EA  51          	LD	D,C
 1257 C6EB  CD FB9F     	CALL	MULT		; BA=C*D
 1258 C6EE  60          	LD	H,B
 1259 C6EF  6F          	LD	L,A		; HL = R*R
 1260 C6F0  54          	LD	D,H
 1261 C6F1  5D          	LD	E,L		; DE = HL
 1262 C6F2  79          	LD	A,C
 1263 C6F3  06 00       	LD	B,0		; BC=Radius
 1264 C6F5  CB 21       	SLA	C
 1265 C6F7  CB 10       	RL	B		; BC=Radius*2
 1266 C6F9  0B          	DEC	BC
 1267 C6FA  C5          	PUSH	BC
 1268 C6FB  01 0001     	LD	BC,1
 1269 C6FE  D9          	EXX
 1270 C6FF  4F          	 LD	C,A
 1271 C700  06 00       	 LD	B,0		; BC=Radius
 1272                   ;
 1273 C702  E5          CLOOP:	 PUSH	HL
 1274 C703  21 B7ED     	 LD	HL,LINTYP	; Linientype beruecksichtigen
 1275 C706  CB 06       	 RLC	(HL)		; CY=1 wenn Punkt zu setzen ist
 1276 C708  E1          	 POP	HL
 1277 C709  30 06       	 JR	NC,CIRN		; keinen Punkt setzen
 1278 C70B  CD C731     	 CALL	QUA		; und jeweils 8
 1279 C70E  CD C731     	 CALL	QUA		; Punkte setzen
 1280 C711  D9          CIRN:	EXX
 1281 C712  A7          	AND	A
 1282 C713  ED 42       	SBC	HL,BC
 1283 C715  03          	INC	BC
 1284 C716  03          	INC	BC
 1285 C717  ED 52       	SBC	HL,DE
 1286 C719  19          	ADD	HL,DE
 1287 C71A  D9          	EXX
 1288 C71B  30 0C       	 JR	NC,CIR3
 1289 C71D  D9          	EXX
 1290 C71E  E3          	EX	(SP),HL
 1291 C71F  EB          	EX	DE,HL
 1292 C720  A7          	AND	A
 1293 C721  ED 52       	SBC	HL,DE
 1294 C723  1B          	DEC	DE
 1295 C724  1B          	DEC	DE
 1296 C725  EB          	EX	DE,HL
 1297 C726  E3          	EX	(SP),HL
 1298 C727  D9          	EXX
 1299 C728  0D          	 DEC	C
 1300 C729  04          CIR3:	 INC	B
 1301 C72A  79          	 LD	A,C
 1302 C72B  B8          	 CP	B
 1303 C72C  30 D4       	 JR	NC,CLOOP
 1304 C72E  F1          	POP	AF
 1305 C72F  B7          	OR	A	; CY=0 (wegen BASIC erforderlich)
 1306 C730  C9          	RET
 1307                   
 1308                   ; setzt 4 Punkte um Mittelpunkt
SLR180 SuperFast Relocating Macro Assembler     			    SLR180 1.31 Page  35
CC48    INC

 1309                   
 1310 C731  78          QUA:	LD	A,B
 1311 C732  41          	LD	B,C
 1312 C733  4F          	LD	C,A
 1313 C734  AF          	XOR	A
 1314 C735  57          	LD	D,A
 1315 C736  2A B784     	LD	HL,(ARG2)	; Y-Mittelpunkt
 1316 C739  E5          	PUSH	HL
 1317 C73A  59          	LD	E,C
 1318 C73B  19          	ADD	HL,DE		; oberhalb vom Mittelpunkt
 1319 C73C  CD C745     	CALL	UPP		; 2 Punkte setzen
 1320 C73F  AF          	XOR	A	; CY=0
 1321 C740  57          	LD	D,A
 1322 C741  E1          	POP	HL
 1323 C742  59          	LD	E,C
 1324 C743  ED 52       	SBC	HL,DE		; unterhalb vom Mittelpunkt
 1325                   	;			; und reinlaufen
 1326 C745  E5          UPP:	PUSH	HL
 1327 C746  2A B782     	LD	HL,(ARG1)	; X-Mittelpunkt
 1328 C749  58          	LD	E,B
 1329 C74A  A7          	AND	A	; CY=0
 1330 C74B  ED 52       	SBC	HL,DE		; links vom Mittelpunkt
 1331 C74D  D1          	POP	DE		; Y-Koordinate
 1332 C74E  CD C757     	CALL	POINT		; 1 Punkt setzen
 1333 C751  D5          	PUSH	DE
 1334 C752  57          	LD	D,A
 1335 C753  58          	LD	E,B
 1336 C754  19          	ADD	HL,DE
 1337 C755  19          	ADD	HL,DE		; rechts vom Mittelpunkt
 1338 C756  D1          	POP	DE		; und reinlaufen
 1339                   
 1340                   ;***************************************************************
 1341                   ; universelles Punkt(re)set-Programm
 1342                   ; PE:	HL	X-Koordinate
 1343                   ;	DE	Y-Koordinate
 1344                   ;	(FARB)	Bit 3...7 : Farbe
 1345                   ;		Bit 2=1   : Farbebene nicht aendern
 1346                   ;		Bit 1=1   : PRESET
 1347                   ;		Bit 0=1   : PXOR
 1348                   ; VR:	-
 1349                   
 1350 C757  E5          POINT:	PUSH	HL
 1351 C758  D5          	PUSH	DE
 1352 C759  C5          	PUSH	BC
 1353 C75A  F5          	PUSH	AF
 1354 C75B  CD C806     	CALL	CALXY		; Grafikposition berechnen
 1355 C75E  D4 C764     	CALL	NC,PUSET	; Punkt setzen wenn OK
 1356 C761  C3 E0B7     	JP	POP4		; POP	AF,BC,DE,HL   RET
 1357                   	;
 1358 C764  DD CB 01 5E PUSET:	BIT	3,(IX+1)	; HiRes?
 1359 C768  28 29       	JR	Z,HIRES		; Punkt in Vordergrundfarbe setzen
 1360 C76A  CB 4A       	BIT	1,D
 1361 C76C  20 21       	JR	NZ,PUERA	; Punkt loeschen
 1362 C76E  CB 42       	BIT	0,D
 1363 C770  20 03       	JR	NZ,PUXOR	; Punkt invertieren
 1364                   
 1365                   ; Punkt setzen:
 1366 C772  B6          	OR	(HL)		; Bit setzen
SLR180 SuperFast Relocating Macro Assembler     			    SLR180 1.31 Page  36
CC48    INC

 1367 C773  18 03       	JR	PUCOL
 1368                   
 1369                   ; Punkt invertieren:
 1370 C775  AE          PUXOR:	XOR	(HL)		; alternierend
 1371 C776  CB 82       	RES	0,D
 1372 C778  77          PUCOL:	LD	(HL),A		; in Pixel-RAM eintragen
 1373 C779  CB 52       	BIT	2,D		; Bit 2 in CAOS 3.4 und ab CAOS 4.7 benutzt
 1374 C77B  C0          	RET	NZ		; wenn Bit 2=1, dann Farbe nicht setzen
 1375 C77C  DD 7E 01    	LD	A,(IX+1)
 1376 C77F  5F          	LD	E,A
 1377 C780  EE 02       	XOR	2		; Farbebene
 1378                   ;	 DI
 1379                   ;	 OUT	(PORT1),A	; Umschaltung Farbebene
 1380 C782  CD F985     	CALL	OUT84		; Umschaltung Farbebene (IX+1) und PORT1
 1381 C785  7E          	LD	A,(HL)
 1382 C786  E6 07       	AND	7		; alte vFarbe loeschen
 1383 C788  B2          	OR	D		; neue vFarbe einbauen
 1384 C789  77          HIR2:	LD	(HL),A		; und in Color-RAM eintragen
 1385 C78A  7B          HIR3:	LD	A,E
 1386                   ;	 OUT	(PORT1),A	; zurueck zu Pixelebene
 1387                   ;	 EI
 1388 C78B  CD F985     	CALL	OUT84		; zurueck zu Pixelebene (IX+1) und PORT1
 1389 C78E  C9          	RET
 1390                   
 1391                   ; Punkt loeschen:
 1392 C78F  2F          PUERA:	CPL
 1393 C790  A6          	AND	(HL)		; loeschen
 1394 C791  77          	LD	(HL),A
 1395 C792  C9          	RET
 1396                   
 1397                   ; Punkt im HIRES-Modus setzen:
 1398 C793  47          HIRES:	LD	B,A		; Bitmaske
 1399 C794  B6          	OR	(HL)		; Bit setzen in
 1400 C795  CB 5A       	BIT	3,D		; Pixelebene?
 1401 C797  20 01       	JR	NZ,HIR1
 1402 C799  A8          	XOR	B		; wieder loeschen
 1403 C79A  77          HIR1:	LD	(HL),A
 1404 C79B  DD 7E 01    	LD	A,(IX+1)
 1405 C79E  5F          	LD	E,A
 1406 C79F  EE 02       	XOR	2		; Farbebene
 1407                   ;	 DI
 1408                   ;	 OUT	(PORT1),A	; Umschaltung Farbebene
 1409 C7A1  CD F985     	CALL	OUT84		; Umschaltung Farbebene (IX+1) und PORT1
 1410 C7A4  78          	LD	A,B
 1411 C7A5  B6          	OR	(HL)		; Bit setzen in
 1412 C7A6  CB 62       	BIT	4,D		; Farbebene?
 1413 C7A8  20 DF       	JR	NZ,HIR2
 1414 C7AA  A8          	XOR	B		; wieder loeschen
 1415 C7AB  18 DC       	JR	HIR2
 1416                   
 1417                   ; Punkt setzen						**30**
 1418                   
 1419 C7AD  E5          PUSEC:	PUSH	HL
 1420 C7AE  D5          	PUSH	DE
 1421 C7AF  C5          	push	bc		; B-Register bei HIRES benutzt
 1422 C7B0  CD C7FD     	CALL	CALHV		; Grafikposition berechnen
 1423 C7B3  D4 C764     	CALL	NC,PUSET	; Punkt setzen wenn OK
 1424 C7B6  18 42       	JR	PUDEE
SLR180 SuperFast Relocating Macro Assembler     			    SLR180 1.31 Page  37
CC48    INC

 1425                   
 1426                   ; Punkt loeschen (HIRES nur testen)			**2F**
 1427                   
 1428 C7B8  E5          PUDEC:	PUSH	HL
 1429 C7B9  D5          	PUSH	DE
 1430 C7BA  C5          	push	bc		; B-Register bei HIRES benutzt
 1431 C7BB  CD C7FD     	CALL	CALHV		; Grafikposition berechnen
 1432 C7BE  38 3A       	JR	C,PUDEE		; ausserhalb
 1433 C7C0  DD CB 01 5E 	BIT	3,(IX+1)	; HiRes?
 1434 C7C4  20 1E       	JR	NZ,PUDEL
 1435                   ; Punktfarbe HIRES ermitteln
 1436 C7C6  16 00       	LD	D,0
 1437 C7C8  47          	LD	B,A		; Bitmaske
 1438 C7C9  7E          	LD	A,(HL)
 1439 C7CA  A0          	AND	B		; Bit in Pixelebene gesetzt?
 1440 C7CB  28 02       	JR	Z,HIR4
 1441 C7CD  CB C2       	SET	0,D
 1442 C7CF  DD 7E 01    HIR4:	LD	A,(IX+1)
 1443 C7D2  5F          	LD	E,A
 1444 C7D3  EE 02       	XOR	2		; Farbebene
 1445                   ;	 DI
 1446                   ;	 OUT	(PORT1),A	; Umschaltung Farbebene
 1447 C7D5  CD F985     	CALL	OUT84		; Umschaltung Farbebene (IX+1) und PORT1
 1448 C7D8  7E          	LD	A,(HL)
 1449 C7D9  A0          	AND	B		; Bit in Farbebene gesetzt?
 1450 C7DA  CD C78A     	CALL	HIR3		; zurueck zu Pixelebene
 1451 C7DD  28 02       	JR	Z,HIR5
 1452 C7DF  CB CA       	SET	1,D
 1453 C7E1  04          HIR5:	INC	B		; Z=0 (Bitmaske)
 1454 C7E2  18 15       	JR	HIR6		; Farbbyte uebergeben
 1455                   	;
 1456 C7E4  47          PUDEL:	LD	B,A		; Bitmaske
 1457 C7E5  4E          	LD	C,(HL)		; Pixel-RAM lesen
 1458 C7E6  2F          	CPL			; Bitmaske invertieren
 1459 C7E7  A1          	AND	C		; Bit loeschen
 1460 C7E8  77          	LD	(HL),A		; und in Pixel-RAM schreiben
 1461 C7E9  DD 7E 01    	LD	A,(IX+1)
 1462 C7EC  5F          	LD	E,A
 1463 C7ED  EE 02       	XOR	2
 1464                   ;	 DI
 1465                   ;	 OUT	(PORT1),A	; Umschaltung Farbebene
 1466 C7EF  CD F985     	CALL	OUT84		; Umschaltung Farbebene (IX+1) und PORT1
 1467 C7F2  56          	LD	D,(HL)		; Color-RAM lesen
 1468 C7F3  7B          	LD	A,E
 1469                   ;	 OUT	(PORT1),A	; zurueck zu Pixelebene
 1470                   ;	 EI
 1471 C7F4  CD F985     	CALL	OUT84		; zurueck zu Pixelebene (IX+1) und PORT1
 1472 C7F7  78          	LD	A,B		; Bitmaske
 1473 C7F8  A1          	AND	C		; Z=1: Punkt war geloescht
 1474 C7F9  7A          HIR6:	LD	A,D		; Farbbyte
 1475 C7FA  C3 E0B8     PUDEE:	JP	POP3		; POP	BC,DE,HL   RET
 1476                   ;
 1477                   ; Grafikposition berechnen fuer Punktroutinen
 1478                   ; PE:	HL	X-Koordinate (Horizontalposition)
 1479                   ;	DE	Y-Koordinate (Vertikal-  "	)
 1480                   ; PA:	HL	IRM-Adresse Pixel/Farbe
 1481                   ;	D	Farbwert
 1482                   ;	A	Bit-Maske
SLR180 SuperFast Relocating Macro Assembler     			    SLR180 1.31 Page  38
CC48    INC

 1483                   ;	CY	Fehler (ausserhalb)
 1484                   ; VR:	AF,DE,HL
 1485                   ;
 1486 C7FD  2A B7D3     CALHV:	LD	HL,(HOR)
 1487 C800  ED 5B B7D5  	LD	DE,(VERT)
 1488 C804  16 00       	LD	D,0
 1489 C806  C5          CALXY:	PUSH	BC
 1490 C807  01 FDF8     	LD	BC,BITTAB
 1491 C80A  7D          	LD	A,L
 1492 C80B  E6 07       	AND	7
 1493 C80D  81          	ADD	A,C
 1494 C80E  4F          	LD	C,A		; Bit
 1495 C80F  7D          	LD	A,L
 1496 C810  CB 3C       	SRL	H
 1497 C812  1F          	RRA
 1498 C813  CB 3C       	SRL	H
 1499 C815  1F          	RRA
 1500 C816  CB 3C       	SRL	H
 1501 C818  1F          	RRA			; Spalte
 1502 C819  FE 28       	CP	40
 1503 C81B  30 11       	JR	NC,CALEN
 1504 C81D  F6 80       	OR	80H		; IRM
 1505 C81F  67          	LD	H,A
 1506 C820  3E FF       	LD	A,0FFH
 1507 C822  82          	ADD	A,D
 1508 C823  38 09       	JR	C,CALEN
 1509 C825  AB          	XOR	E		; CY=0, kein Fehler
 1510 C826  6F          	LD	L,A		; Zeile
 1511 C827  3A B7D6     	LD	A,(FARB)
 1512 C82A  57          	LD	D,A
 1513 C82B  0A          	LD	A,(BC)		; Bitmaske
 1514 C82C  C1          	POP	BC
 1515 C82D  C9          	RET
 1516                   	;
 1517 C82E  C1          CALEN:	POP	BC
 1518 C82F  37          	SCF			; CY=1, Fehler: ausserhalb
 1519 C830  C9          	RET
 1520                   ;
 1521                   ; MENU-HACK damit DISPLAY immer mit D abgekuerzt werden kann
 1522                   ;
 1523 C831  7F7F        	DW	7F7FH
 1524 C833  44 20       	DB	'D '		; verstecktes Menuewort
 1525 C835  03          	DB	3		; mindestens 1 Argument
 1526                   
 1527                   ; Anzeige Speicherbereich:
 1528                   ; HL=Adresse, E=Listblocklaenge
 1529                   ; C=Anzahl Bytes pro Zeile
 1530                   ; A=Anzahl Argumente
 1531                   
 1532 C836  FE 03       DISPC:	CP	3
 1533 C838  30 08       	JR	NC,DISP1
 1534 C83A  0E 08       	LD	C,8		; default = 8 Bytes/Zeile
 1535 C83C  FE 02       	CP	2
 1536 C83E  30 02       	JR	NC,DISP1
 1537 C840  1E 04       	LD	E,4		; default = 4 Zeilen
 1538 C842  D5          DISP1:	PUSH	DE
 1539 C843  CD D7AC     DISP2:	CALL	DPMEMO		; 1 Zeile anzeigen
 1540 C846  CD F4C4     	CALL	CRLF
SLR180 SuperFast Relocating Macro Assembler     			    SLR180 1.31 Page  39
CC48    INC

 1541 C849  CD F664     	CALL	BRKT
 1542 C84C  38 06       	JR	C,DISP4
 1543 C84E  1D          	DEC	E
 1544 C84F  20 F2       	JR	NZ,DISP2	; E*
 1545 C851  CD F3D5     DISP3:	CALL	INTB		; Warten auf Tastenbetaetigung
 1546 C854  D1          DISP4:	POP	DE
 1547 C855  FE 03       	CP	3		; BRK?
 1548 C857  C8          	RET	Z
 1549 C858  FE 0F       	CP	0FH
 1550 C85A  20 05       	JR	NZ,DISP5
 1551 C85C  CD F3BB     	CALL	OCHR		; Hardcopy
 1552 C85F  18 F0       	JR	DISP3
 1553                   	;
 1554 C861  FE 13       DISP5:	CP	13H		; STOP?
 1555 C863  20 DD       	JR	NZ,DISP1
 1556 C865  18 07       	JR	MODI1
 1557                   
 1558                   ; Anzeige/Veraendern Speicherbereich
 1559                   ; HL=Adresse, E=Anzahl Bytes pro Zeile
 1560                   ; A=Anzahl Argumente
 1561                   
 1562 C867  4B          MODIC:	LD	C,E		; Breite
 1563 C868  FE 02       	CP	2		; 2 Argumente?
 1564 C86A  30 02       	JR	NC,MODI1
 1565 C86C  0E 01       	LD	C,1		; Standardbreite
 1566 C86E  CD D7AC     MODI1:	CALL	DPMEMO		; 1 Zeile anzeigen
 1567 C871  3E 05       	LD	A,5
 1568 C873  32 B7A0     	LD	(CURSO),A
 1569 C876  CD F47E     	CALL	INLIN		; Eingabe
 1570 C879  D8          	RET	C		; BRK
 1571 C87A  E5          	PUSH	HL
 1572 C87B  CD F4CB     	CALL	RHEX		; Adresse erfassen
 1573 C87E  7E          	LD	A,(HL)
 1574 C87F  E1          	POP	HL
 1575 C880  38 56       	JR	C,MODI9		; Fehler
 1576 C882  A7          	AND	A
 1577 C883  28 E9       	JR	Z,MODI1
 1578 C885  2A B797     	LD	HL,(NUMVX)
 1579 C888  E5          MODI2:	PUSH	HL
 1580 C889  CD F4CB     	CALL	RHEX		; Datenbyte
 1581 C88C  7E          	LD	A,(HL)
 1582 C88D  A7          	AND	A		; kein Zeichen
 1583 C88E  23          	INC	HL		; einlesbar?
 1584 C88F  7E          	LD	A,(HL)
 1585 C890  E1          	POP	HL
 1586 C891  28 04       	JR	Z,MODI4
 1587 C893  CD FB5E     MODI3:	CALL	LDMAE		; eintragen
 1588 C896  23          	INC	HL
 1589 C897  1A          MODI4:	LD	A,(DE)
 1590 C898  FE 2E       	CP	'.'		; Abschluss?
 1591 C89A  C8          	RET	Z
 1592 C89B  FE 2C       	CP	','		; 1 Zeichen?
 1593 C89D  20 05       	JR	NZ,MODI5
 1594 C89F  13          	INC	DE
 1595 C8A0  1A          	LD	A,(DE)		; vom Video-RAM
 1596 C8A1  13          	INC	DE
 1597 C8A2  18 EF       	JR	MODI3		; eintragen
 1598                   	;
SLR180 SuperFast Relocating Macro Assembler     			    SLR180 1.31 Page  40
CC48    INC

 1599 C8A4  FE 3A       MODI5:	CP	':'		; Rueckschritt?
 1600 C8A6  20 06       	JR	NZ,MODI6
 1601 C8A8  06 00       	LD	B,0
 1602 C8AA  ED 42       	SBC	HL,BC		; C Bytes zurueck
 1603 C8AC  18 C0       	JR	MODI1
 1604                   	;
 1605 C8AE  FE 2F       MODI6:	CP	'/'		; neue Adresse?
 1606 C8B0  20 0B       	JR	NZ,MODI0
 1607 C8B2  13          	INC	DE
 1608 C8B3  CD F4CB     	CALL	RHEX		; Adresse erfassen
 1609 C8B6  38 20       	JR	C,MODI9		; Fehler
 1610 C8B8  2A B797     	LD	HL,(NUMVX)
 1611 C8BB  18 B1       	JR	MODI1
 1612                   	;
 1613 C8BD  FE 27       MODI0:	CP	27H		; Zeichenkette?
 1614 C8BF  20 10       	JR	NZ,MODI8
 1615 C8C1  13          	INC	DE
 1616 C8C2  1A          MODI7:	LD	A,(DE)		; Zeichen holen
 1617 C8C3  13          	INC	DE
 1618 C8C4  A7          	AND	A		; Dummy-Ende?
 1619 C8C5  28 A7       	JR	Z,MODI1
 1620 C8C7  FE 27       	CP	27H		; Ende Kette?
 1621 C8C9  28 CC       	JR	Z,MODI4
 1622 C8CB  CD FB5E     	CALL	LDMAE		; eintragen
 1623 C8CE  23          	INC	HL
 1624 C8CF  18 F1       	JR	MODI7
 1625                   	;
 1626 C8D1  A7          MODI8:	AND	A		; Ende Zeile?
 1627 C8D2  28 9A       	JR	Z,MODI1
 1628 C8D4  FE 20       	CP	' '		; Leerzeichen?
 1629 C8D6  28 B0       	JR	Z,MODI2
 1630 C8D8  CD F4BA     MODI9:	CALL	ERRM		; sonst ERROR
 1631 C8DB  18 91       	JR	MODI1
 1632                   
 1633                   ; Initialisierung der Druckerausgabe:
 1634                   ;
 1635                   ; PE:	(ARGN)	0..5 Argumente	(0 = M003 ab Steckplatz 7 suchen)
 1636                   ;	(ARG1)	Steckplatz	(0 = M021)
 1637                   ;	(ARG2)	SIO-Kanal	(0..1 = A, 2 = B)
 1638                   ;	(ARG3)	User-Kanal	(2 = UOUT1, 3 = UOUT2)
 1639                   ;	(ARG4)	ShCLR-Reaktion	(0 = keine, 1 = Protokoll, 2 = Hardcopy)
 1640                   ;	(ARG5)	Druckertyp	(0..12)
 1641                   ; PA:	-
 1642                   ; VR:	AF, BC, DE, HL
 1643                   ;
 1644 C8DD  CD F5F4     LSTC:	CALL	LARG		; Arg's laden
 1645 C8E0  CD C923     	CALL	LSTCA		; Druckerinitialisierung (intern)
 1646 C8E3  DA F4BA     	JP	C,ERRM		; Modul nicht gefunden oder Parameterfehler
 1647 C8E6  3E 0D       	LD	A,CR		; CR+LF drucken
 1648                   ;	CALL	OFILT
 1649                   ;	LD	A,LF
 1650 C8E8  C3 B7E9     	JP	OFILT
 1651                   
 1652 C8EB  3A B7E1     LSTC1:	LD	A,(HCPZ)	; bisheriges Steuerbyte
 1653 C8EE  E6 F0       	AND	0F0h		; Druckertyp uebernehmen
 1654 C8F0  0F          	RRCA			; und auf Bits 1..4 rotieren
 1655 C8F1  0F          	RRCA
 1656 C8F2  0F          	RRCA
SLR180 SuperFast Relocating Macro Assembler     			    SLR180 1.31 Page  41
CC48    INC

 1657 C8F3  18 3D       	JR	LSTC6
 1658                   
 1659                   ; M021
 1660 C8F5  CD C98C     LSTC2:	CALL	USRARG		; Steuerwort aus Argumenten bilden (CY war 0)
 1661 C8F8  AF          	XOR	A
 1662 C8F9  D3 91       	OUT	(91h),A		; M021 PIO-B Daten
 1663 C8FB  DB 91       	IN	A,(91h)
 1664 C8FD  C6 FF       	ADD	A,-1		; 0 zurueckgelesen?
 1665 C8FF  D8          	RET	C		; sonst kein M021 vorhanden
 1666 C900  C5          	PUSH	BC
 1667 C901  21 FA04     	LD	HL,M021PR
 1668 C904  18 53       	JR	LSTC7
 1669                   
 1670                   ; M003:
 1671 C906  2E 07       LSTC3:	LD	L,7		; ab Steckplatz 7
 1672 C908  CD C982     LSTC4:	CALL	SIOARG		; Steuerwort aus Argumenten bilden
 1673 C90B  C5          	PUSH	BC		; Adresse ShCLR-Reaktionsprogramm
 1674 C90C  45          	LD	B,L
 1675 C90D  CD C39F     	CALL	V24SU		; M003 suchen und einschalten
 1676 C910  50          	LD	D,B		; Steckplatz in D zurueckgeben
 1677 C911  38 6C       	JR	C,IOEPOP	; nicht gefunden, keine weitere Initialisierung
 1678 C913  3A B7E4     	LD	A,(INTV1L)
 1679 C916  47          	LD	B,A
 1680 C917  2A B7E2     	LD	HL,(INTV1)
 1681 C91A  7B          	LD	A,E		; Steuerbyte
 1682 C91B  CD CA18     	CALL	INISIO
 1683 C91E  21 FA1C     	LD	HL,V24PR
 1684 C921  18 36       	JR	LSTC7
 1685                   
 1686                   ; Initialisierung der Druckerausgabe (intern):
 1687                   ;
 1688                   ; PE:	A	0..5 Argumente	(0 = M003 ab Steckplatz 7 suchen)
 1689                   ;	L	Steckplatz	(0 = M021)
 1690                   ;	E	SIO-Kanal	(0..1 = A, 2 = B)
 1691                   ;	C	User-Kanal	(2 = UOUT1, 3 = UOUT2)
 1692                   ;	(ARG4)	ShCLR-Reaktion	(0 = keine, 1 = Protokoll, 2 = Hardcopy)
 1693                   ;	(ARG5)	Druckertyp	(0..12)
 1694                   ; PA:	D	Steckplatz M003	(nur gueltig fuer A = 0)
 1695                   ;	CY	Fehlerstatus	(0 = OK, 1 = Fehler)
 1696                   ; VR:	AF, BC, DE, HL
 1697                   ;
 1698 C923  67          LSTCA:	LD	H,A		; Anzahl Argumente
 1699 C924  3E 05       	LD	A,5
 1700 C926  BC          	CP	H		; (ARGN) <= 5?
 1701 C927  D8          	RET	C		; mehr als 5 Argumente!
 1702 C928  20 C1       	JR	NZ,LSTC1	; Druckertyp erhalten
 1703 C92A  3A B78A     LSTC5:	LD	A,(ARG5)	; neuer Druckertyp
 1704 C92D  FE 0D       	CP	13		; (ARG5) < 13?
 1705 C92F  30 4F       	JR	NC,IOERET	; Fehler: Druckertyp nicht passend
 1706 C931  87          	ADD	A,A		; 0 fuer Bit 3 einschieben
 1707 C932  57          LSTC6:	LD	D,A
 1708 C933  7C          	LD	A,H		; Anzahl Argumente
 1709 C934  A7          	AND	A		; Steckplatz angegeben?
 1710 C935  28 CF       	JR	Z,LSTC3		; nein, M003 ab Steckplatz 7 suchen
 1711 C937  7D          	LD	A,L
 1712 C938  A7          	AND	A		; Steckplatz = 0?
 1713 C939  28 BA       	JR	Z,LSTC2		; M021
 1714 C93B  C5          	PUSH	BC
SLR180 SuperFast Relocating Macro Assembler     			    SLR180 1.31 Page  42
CC48    INC

 1715 C93C  45          	LD	B,L
 1716 C93D  0E 80       	LD	C,80h
 1717 C93F  ED 78       	IN	A,(C)
 1718 C941  C1          	POP	BC
 1719 C942  D6 EE       	SUB	0EEh		; M003?
 1720 C944  28 C2       	JR	Z,LSTC4
 1721 C946  3D          	DEC	A		; M001?
 1722 C947  20 37       	JR	NZ,IOERET	; Fehler: kein passendes Modul
 1723                   
 1724                   ; M001:
 1725 C949  CD C98C     	CALL	USRARG		; Steuerwort aus Argumenten bilden (CY war 0)
 1726 C94C  C5          	PUSH	BC		; Adresse ShCLR-Reaktionsprogramm
 1727                   ;	LD	A,2
 1728                   ;	LD	D,1
 1729 C94D  CD C3AD     	CALL	MODUC1		; M001 einschalten
 1730 C950  21 D94A     	LD	HL,DIOINI
 1731 C953  CD CA4B     	CALL	IMEXDI		; PIO konfigurieren
 1732 C956  21 F9F3     	LD	HL,M001PR
 1733 C959  22 B7EA     LSTC7:	LD	(OFILT + 1),HL
 1734 C95C  E1          	POP	HL
 1735 C95D  22 B799     	LD	(HCADR),HL	; ShCLR-Reaktionsprogramm setzen
 1736 C960  7B          	LD	A,E
 1737 C961  32 B7E1     	LD	(HCPZ),A	; Steuerbyte eintragen
 1738 C964  21 F9E3     	LD	HL,PRINT
 1739 C967  01 F4A4     	LD	BC,NOOP
 1740 C96A  A7          	AND	A		; CY = 0
 1741                   ;
 1742                   ; Eintragen der Sprungadressen eines I/O-Kanals:
 1743                   ;
 1744                   ; PE:	E = Steuerwort
 1745                   ;	BC = Sprungadresse fuer Eingabe
 1746                   ;	HL = Sprungadresse fuer Ausgabe
 1747                   ; PA:	-
 1748                   ; VR:	F
 1749                   ;
 1750 C96B  CB 4B       SETUIO:	BIT	1,E		; Ausgabekanal #2 oder #3?
 1751 C96D  20 08       	JR	NZ,SETU2
 1752 C96F  22 B7BE     	LD	(UOUT1+1),HL
 1753 C972  ED 43 B7C1  	LD	(UIN1+1),BC
 1754 C976  C9          	RET
 1755                   	;
 1756 C977  22 B7C4     SETU2:	LD	(UOUT2+1),HL
 1757 C97A  ED 43 B7C7  	LD	(UIN2+1),BC
 1758 C97E  C9          	RET
 1759                   
 1760 C97F  E1          IOEPOP:	POP	HL
 1761 C980  37          IOERET:	SCF			; Fehler-Flag
 1762 C981  C9          	RET
 1763                   
 1764                   ; Auswertung der Argumente 2..4 fuer I/O-Initialisierung:
 1765                   ;
 1766                   ; PE:	H	Argumentzahl
 1767                   ;	E	SIO-Kanal	(0..1 = A, 2 = B)
 1768                   ;	C	User-Kanal	(2 = UOUT1, 3 = UOUT2)
 1769                   ;	(ARG4)	ShCLR-Reaktion
 1770                   ;	D	bisheriges Steuerwort
 1771                   ; PA:	E	Steuerwort	(3 neue Bits von rechts einrotiert)
 1772                   ;	BC	Adresse ShCLR-Reaktionsprogramm
SLR180 SuperFast Relocating Macro Assembler     			    SLR180 1.31 Page  43
CC48    INC

 1773                   ;	CY	Fehlerstatus	(0 = OK, 1 = Fehler)
 1774                   ; VR:	AF, BC, DE, SP
 1775                   ;
 1776                   ; Stack-Unwinding: Im Fehlerfall wird die eigentliche Ruecksprungadresse vom
 1777                   ; Stack genommen, und dann ein RET ausgefuehrt.  Die aufrufende Routine darf
 1778                   ; keine Daten auf dem Stack zu liegen haben!
 1779                   ;
 1780 C982  3E 01       SIOARG:	LD	A,1
 1781 C984  BC          	CP	H		; mehr als 1 Argument?
 1782 C985  30 2B       	JR	NC,NOARG2	; nein, SIO-Kanal nicht angegeben
 1783 C987  1D          	DEC	E		; (ARG2): SIO-Kanal
 1784 C988  93          	SUB	E		; 1 <= (ARG2) <= 2?
 1785 C989  38 F4       	JR	C,IOEPOP	; Fehler: ungueltiger SIO-Kanal
 1786 C98B  BB          	CP	E		; CY = 1 wenn K2
 1787 C98C  5A          USRARG:	LD	E,D		; bisheriges Steuerbyte
 1788 C98D  CB 13       	RL	E		; Bit 2 neu einschieben
 1789 C98F  3E 02       	LD	A,2
 1790 C991  57          	LD	D,A
 1791 C992  BC          	CP	H		; mehr als 2 Argumente?
 1792 C993  30 20       	JR	NC,NOARG3	; nein. I/O-Kanal nicht angegeben
 1793 C995  79          	LD	A,C		; (ARG3): User-I/O-Kanal
 1794 C996  92          	SUB	D
 1795 C997  BA          	CP	D		; 2 <= (ARG3) <= 3?
 1796 C998  30 E5       	JR	NC,IOEPOP	; Fehler: ungueltiger I/O-Kanal
 1797 C99A  0F          	RRCA			; CY = 1 wenn User-Kanal #3
 1798 C99B  CB 13       	RL	E		; Bit 1 einschieben
 1799                   ;	LD	BC,NOOP
 1800 C99D  14          	INC	D		; D = 3
 1801 C99E  7A          	LD	A,D
 1802 C99F  BC          	CP	H		; mehr als 3 Argumente?
 1803 C9A0  30 15       	JR	NC,NOARG4	; nein, ShCLR-Reaktion nicht angegeben
 1804 C9A2  3A B788     	LD	A,(ARG4)	; Reaktion auf ShCLR
 1805 C9A5  A7          	AND	A		; (ARG4) = 0?
 1806 C9A6  28 0F       	JR	Z,NOARG4
 1807 C9A8  92          	SUB	D		; 0 <= (ARG4) <= 2?
 1808 C9A9  30 D4       	JR	NC,IOEPOP	; Fehler: ungueltiger ShCLR-Parameter
 1809 C9AB  01 ED8E     	LD	BC,HCPGM
 1810 C9AE  0F          	RRCA			; CY = 1 wenn Hardcopy
 1811 C9AF  CB 13       	RL	E		; Bit 0 einschieben
 1812 C9B1  C9          	RET
 1813                   
 1814 C9B2  5A          NOARG2:	LD	E,D		; bisheriges Steuerbyte
 1815 C9B3  CB 03       	RLC	E		; Bit 2 wie bisher erhalten
 1816 C9B5  CB 03       NOARG3:	RLC	E		; Bit 1 wie bisher erhalten
 1817 C9B7  CB 03       NOARG4:	RLC	E		; Bit 0 wie bisher erhalten
 1818 C9B9  01 F4A4     	LD	BC,NOOP		; keine Reaktion auf Sh-CLR
 1819 C9BC  A7          	AND	A		; CY=0
 1820 C9BD  C9          	RET
 1821                   
 1822                   ; Initialisierung V.24-Duplexbetrieb:
 1823                   ;
 1824                   ; PE:	(ARGN)	0..3 Argumente	(0 = M003 ab Steckplatz 7 suchen)
 1825                   ;	(ARG1)	Steckplatz
 1826                   ;	(ARG2)	SIO-Kanal	(0..1 = A, 2 = B)
 1827                   ;	(ARG3)	User-Kanal	(2 = UOUT1, 3 = UOUT2)
 1828                   ; PA:	CY	Fehlerstatus	(0 = OK, 1 = Fehler)
 1829                   ; VR:	AF, BC, DE, HL
 1830                   ;
SLR180 SuperFast Relocating Macro Assembler     			    SLR180 1.31 Page  44
CC48    INC

 1831 C9BE  CD F5F4     V24DC:	CALL	LARG		; Arg's laden
 1832 C9C1  67          	LD	H,A
 1833 C9C2  3E 03       	LD	A,3
 1834 C9C4  BC          	CP	H		; (ARGN) <= 3?
 1835 C9C5  D8          	RET	C		; mehr als 3 Argumente -> Fehler
 1836 C9C6  3A B7E8     	LD	A,(HCPZ2)	; bisheriges Steuerwort
 1837 C9C9  0F          	RRCA
 1838 C9CA  0F          	RRCA			; zur Vorbereitung 3x rotieren
 1839 C9CB  0F          	RRCA
 1840 C9CC  57          	LD	D,A
 1841 C9CD  CD C982     	CALL	SIOARG		; neues Steuerwort aus Argumenten 2-4 bilden
 1842 C9D0  E5          	PUSH	HL
 1843 C9D1  3A B7E7     	LD	A,(INTV2L)	; Laenge Duplexinitialisierung
 1844 C9D4  47          	LD	B,A
 1845 C9D5  2A B7E5     	LD	HL,(INTV2)	; Duplexinitialisierung
 1846 C9D8  23          	INC	HL
 1847 C9D9  18 17       	JR	V24DC5
 1848                   
 1849 C9DB  3E 80       V24DC1:	LD	A,10000000b	; Empfangseinstellungen (7/8 Bit)
 1850 C9DD  18 10       	JR	V24DC3
 1851                   
 1852 C9DF  7E          V24DC2:	LD	A,(HL)		; Initialisierungsdaten lesen
 1853 C9E0  E6 07       	AND	00000111b	; Registerauswahl?
 1854 C9E2  28 11       	JR	Z,V24DC6	; nein
 1855 C9E4  23          	INC	HL
 1856 C9E5  FE 03       	CP	3		; WR3?
 1857 C9E7  28 F2       	JR	Z,V24DC1
 1858 C9E9  FE 05       	CP	5		; WR5?
 1859 C9EB  20 05       	JR	NZ,V24DC5
 1860 C9ED  3E 68       	LD	A,01101000b	; Sendeeinstellungen (5-8 Bit, ein/aus)
 1861 C9EF  A6          V24DC3:	AND	(HL)		; benoetigte Bits abtrennen
 1862 C9F0  B3          	OR	E		; und in Steuerbyte einbauen
 1863 C9F1  5F          V24DC4:	LD	E,A
 1864 C9F2  05          V24DC5:	DEC	B
 1865 C9F3  28 8A       	JR	Z,IOEPOP	; fehlendes Initialisierungsbyte
 1866 C9F5  23          V24DC6:	INC	HL
 1867 C9F6  10 E7       	DJNZ	V24DC2
 1868                   
 1869 C9F8  E1          	POP	HL
 1870 C9F9  7C          	LD	A,H
 1871 C9FA  06 07       	LD	B,7		; Suche ab Steckplatz 7
 1872 C9FC  A7          	AND	A		; Steckplatz angegeben?
 1873 C9FD  28 01       	JR	Z,V24DC7
 1874 C9FF  45          	LD	B,L		; angegebener Steckplatz
 1875 CA00  CD C39F     V24DC7:	CALL	V24SU		; M003 suchen und einschalten
 1876 CA03  D8          	RET	C		; Modul nicht gefunden
 1877 CA04  21 FA31     	LD	HL,V24OT
 1878 CA07  01 FA3C     	LD	BC,V24IN
 1879 CA0A  CD C96B     	CALL	SETUIO		; I/O-Sprungadressen eintragen
 1880 CA0D  3A B7E7     V24DC8:	LD	A,(INTV2L)
 1881 CA10  47          	LD	B,A
 1882 CA11  2A B7E5     	LD	HL,(INTV2)
 1883 CA14  7B          	LD	A,E		; Duplex-Steuerbyte
 1884 CA15  32 B7E8     	LD	(HCPZ2),A	; eintragen
 1885                   
 1886                   ; SIO-Initialisierung:
 1887                   ;
 1888                   ; PE:	HL	Initialisierungstabelle
SLR180 SuperFast Relocating Macro Assembler     			    SLR180 1.31 Page  45
CC48    INC

 1889                   ;	B	Laenge der Tabelle (>= 3)
 1890                   ;	A	Steuerbyte
 1891                   ; PA:	CY = 0
 1892                   ; VR:	AF, BC, HL
 1893                   ;
 1894 CA18  E6 04       INISIO:	AND	00000100b
 1895 CA1A  0F          	RRCA
 1896 CA1B  0F          	RRCA
 1897 CA1C  C6 0C       	ADD	A,0Ch		; CTC-Port
 1898 CA1E  4F          	LD	C,A
 1899 CA1F  78          	LD	A,B
 1900 CA20  06 02       	LD	B,2		; 2 Byte fuer CTC-Initialisierung
 1901 CA22  90          	SUB	B
 1902 CA23  F3          	DI
 1903 CA24  ED B3       	OTIR			; CTC initialisieren
 1904 CA26  47          	LD	B,A
 1905 CA27  0D          	DEC	C		; SIO-Steuerport
 1906 CA28  0D          	DEC	C
 1907 CA29  ED B3       	OTIR			; SIO initialisieren
 1908 CA2B  FB          	EI
 1909 CA2C  A7          	AND	A		; CY = 0
 1910 CA2D  C9          	RET
 1911                   
 1912                   ; V.24-Modul suchen und initialisieren (bei POWER-ON und RESET):
 1913                   ;	-Tabellen in IRM kopieren
 1914                   ;	-M003 suchen und einschalten
 1915                   ;	-M003-Steckplatz merken
 1916                   
 1917 CA2E  21 D82A     V24INI:	LD	HL,V24TAB	; vorbereitete V24-Tabelle
 1918 CA31  11 A800     	LD	DE,V24PL	; Steckplatz (A800H)
 1919 CA34  01 0012     	LD	BC,V24UMT - V24TAB
 1920 CA37  ED B0       	LDIR			; in IRM kopieren
 1921 CA39  AF          	XOR	A		; ARGN=0: M003 suchen
 1922 CA3A  CD C923     	CALL	LSTCA		; SIO-A: Druckerinitialisierung
 1923 CA3D  D8          	RET	C		; kein M003 gefunden
 1924 CA3E  7A          	LD	A,D
 1925 CA3F  32 A800     	LD	(V24PL),A	; Steckplatz eintragen
 1926 CA42  21 FA31     	LD	HL,V24OT	; Duplex-Ausgaberoutine
 1927 CA45  22 B7C4     	LD	(UOUT2 + 1),HL	; fuer User-Kanal #3 eintragen
 1928 CA48  21 D83C     	LD	HL,V24UMT	; SIO-B: Empfangs-Interrupt
 1929                   
 1930                   ; Initialisierung mehrerer Ports mit Sperren von Interrupts:
 1931                   ;
 1932                   ; PE:	HL	Initialisierungstabelle
 1933                   ;	(HL)	Anzahl der Kanaele
 1934                   ; PA:	-
 1935                   ; VR:	F, D, HL
 1936                   ;
 1937 CA4B  56          IMEXDI:	LD	D,(HL)		; Anzahl Kanaele
 1938 CA4C  23          	INC	HL
 1939 CA4D  C3 F55D     	JP	INIME		; Ports initialisieren
 1940                   
 1941                   ; allgemeine Druckroutine
 1942                   
 1943 CA50  F5          PRINTC:	PUSH	AF
 1944 CA51  3A B7E1     	LD	A,(HCPZ)
 1945 CA54  CB 7F       	BIT	7,A
 1946 CA56  28 29       	JR	Z,PRINT3	; Drucker
SLR180 SuperFast Relocating Macro Assembler     			    SLR180 1.31 Page  46
CC48    INC

 1947                   	;Schreibmaschine
 1948 CA58  E6 F0       	AND	0F0H
 1949 CA5A  FE 90       	CP	90H
 1950 CA5C  28 17       	JR	Z,S6005
 1951 CA5E  FE A0       	CP	0A0H
 1952 CA60  20 1F       	JR	NZ,PRINT3
 1953 CA62  F1          S6010:	POP	AF
 1954 CA63  E5          	PUSH	HL
 1955 CA64  C5          	PUSH	BC
 1956 CA65  21 D980     	LD	HL,ZIBM
 1957 CA68  01 0007     	LD	BC,7
 1958 CA6B  ED B1       	CPIR
 1959 CA6D  20 0F       	JR	NZ,PRINT1
 1960 CA6F  0E 06       	LD	C,6
 1961 CA71  09          	ADD	HL,BC
 1962 CA72  7E          	LD	A,(HL)
 1963 CA73  18 09       	JR	PRINT1
 1964                   
 1965 CA75  F1          S6005:	POP	AF
 1966 CA76  FE 7E       	CP	7EH
 1967 CA78  20 08       	JR	NZ,PRINT4
 1968 CA7A  3E 83       	LD	A,83H
 1969 CA7C  18 04       	JR	PRINT4
 1970 CA7E  C1          PRINT1:	POP	BC
 1971 CA7F  E1          	POP	HL
 1972 CA80  F5          	PUSH	AF
 1973 CA81  F1          PRINT3:	POP	AF
 1974 CA82  FE 09       PRINT4:	CP	9		; CUR
 1975 CA84  28 0D       	JR	Z,PRINT5
 1976 CA86  F5          	PUSH	AF
 1977 CA87  3A B7A2     	LD	A,(STBT)
 1978 CA8A  CB 5F       	BIT	3,A		; Steuerzeichen
 1979 CA8C  28 0E       	JR	Z,PRINT7	; ausfuehren
 1980 CA8E  F1          	POP	AF
 1981 CA8F  FE 7F       	CP	7FH		; und 7Fh
 1982 CA91  20 02       	JR	NZ,PRINT6
 1983 CA93  3E 20       PRINT5:	LD	A,20H		; nach SPC
 1984 CA95  FE 20       PRINT6:	CP	20H		; und Steuerzeichen
 1985 CA97  30 04       	JR	NC,PRINT8
 1986 CA99  3E 5F       	LD	A,'_'		; nach '_' wandeln
 1987 CA9B  F5          	PUSH	AF
 1988 CA9C  F1          PRINT7:	POP	AF
 1989 CA9D  C3 B7E9     PRINT8:	JP	OFILT		; in IRM
 1990                   
 1991                   ; ShCLR-Reaktionsprogramm
 1992                   
 1993 CAA0  E5          HCPGMC:	PUSH	HL
 1994 CAA1  D5          	PUSH	DE
 1995 CAA2  3A B7E1     	LD	A,(HCPZ)
 1996 CAA5  CB 47       	BIT	0,A		; Hardcopy?
 1997 CAA7  20 2E       	JR	NZ,COPIES
 1998                   
 1999                   ; Protokollfunktion
 2000                   
 2001 CAA9  2A B7B9     	LD	HL,(OUTAB)
 2002 CAAC  5F          	LD	E,A		; E = (HCPZ)
 2003 CAAD  7E          	LD	A,(HL)
 2004 CAAE  A7          	AND	A		; CRT?
SLR180 SuperFast Relocating Macro Assembler     			    SLR180 1.31 Page  47
CC48    INC

 2005 CAAF  20 12       	JR	NZ,PROTO2
 2006 CAB1  CB 4B       	BIT	1,E		; USER1/2?
 2007 CAB3  21 F9E0     	LD	HL,ECHO		; CRT+PRINT
 2008 CAB6  11 F00B     	LD	DE,ZEI3		; UP 03H = UOUT2
 2009 CAB9  20 12       	JR	NZ,PROTO3
 2010 CABB  11 F008     	LD	DE,ZEI2		; UP 02H = UOUT1
 2011 CABE  22 B7BE     PROTO4:	LD	(UOUT1+1),HL
 2012 CAC1  18 0D       	JR	PROTO5
 2013                   	;
 2014 CAC3  21 F9E3     PROTO2:	LD	HL,PRINT	; Protokoll deaktivieren
 2015 CAC6  11 F020     	LD	DE,OUTT1	; UP 00H = CRT
 2016 CAC9  FE 02       	CP	2
 2017 CACB  28 F1       	JR	Z,PROTO4
 2018 CACD  22 B7C4     PROTO3:	LD	(UOUT2+1),HL	; Sprungadresse der Routine
 2019 CAD0  ED 53 B7B9  PROTO5:	LD	(OUTAB),DE	; und Zeiger setzen
 2020 CAD4  D1          	POP	DE
 2021 CAD5  E1          	POP	HL
 2022 CAD6  C9          	RET
 2023                   
 2024                   ; Hard- oder Screencopy
 2025                   
 2026 CAD7  C5          COPIES:	PUSH	BC
 2027 CAD8  F5          	PUSH	AF
 2028 CAD9  E6 F0       	AND	0F0H
 2029 CADB  F2 CB02     	JP	P,HCOPYC	; Hardcopy
 2030                   
 2031                   ; Screencopy
 2032                   
 2033 CADE  2A B7CB     	LD	HL,(VRAM)
 2034 CAE1  06 20       	LD	B,32
 2035 CAE3  0E 28       SCOPY1:	LD	C,40
 2036 CAE5  7E          SCOPY2:	LD	A,(HL)
 2037 CAE6  23          	INC	HL
 2038 CAE7  FE 20       	CP	20H
 2039 CAE9  30 02       	JR	NC,SCOPY4
 2040 CAEB  3E 20       	LD	A,' '		; statt Steuerzeichen
 2041 CAED  CD F9E3     SCOPY4:	CALL	PRINT
 2042 CAF0  0D          	DEC	C		; 40 Spalten
 2043 CAF1  20 F2       	JR	NZ,SCOPY2
 2044 CAF3  3E 0D       	LD	A,CR
 2045 CAF5  CD CA82     	CALL	PRINT4
 2046 CAF8  3E 0A       	LD	A,LF
 2047 CAFA  CD CA82     	CALL	PRINT4
 2048 CAFD  10 E4       	DJNZ	SCOPY1		; 32 Zeilen
 2049 CAFF  C3 E0B7     HCEND:	JP	POP4		; POP	AF,BC,DE,HL   RET
 2050                   
 2051 CB02              HCOPYC:	;..nach Typ verzweigen
 2052 CB02  E6 F0       	AND	0F0H
 2053 CB04  FE 10       	CP	10H
 2054 CB06  CA CBD0     	JP	Z,K6314		; ESC/P breit
 2055 CB09  FE 20       	CP	20H
 2056 CB0B  CA CC0E     	JP	Z,K6311		; mit ANSI
 2057 CB0E  FE 30       	CP	30H
 2058 CB10  CA CC3C     	JP	Z,K6312		; ANSI breit
 2059 CB13  FE 50       	CP	50H
 2060 CB15  28 3B       	JR	Z,HCMIN		; ESC/P2 (Mini)
 2061 CB17  FE 70       	CP	70H
 2062 CB19  28 67       	JR	Z,ESCP2		; ESC/P2 24 Nadel
SLR180 SuperFast Relocating Macro Assembler     			    SLR180 1.31 Page  48
CC48    INC

 2063                   
 2064                   ; K6313, K6304, ESC/P2 mit 8 Nadeln
 2065                   
 2066 CB1B  26 00       K6313:	LD	H,0		; Zeile 0
 2067 CB1D  CD CCDB     K6313a:	CALL	PRZK		; Grafik init
 2068 CB20  2E 00       	LD	L,0		; Spalte 0
 2069 CB22  0E 08       K6313b:	LD	C,8		; 8 Nadeln
 2070 CB24  CD CD01     	CALL	CBYTES
 2071 CB27  E5          	PUSH	HL
 2072 CB28  06 08       K6313c:	LD	B,8
 2073 CB2A  21 B700     	LD	HL,CASS
 2074 CB2D  CB 16       K6313d:	RL 	(HL)
 2075 CB2F  17          	RLA
 2076 CB30  23          	INC	HL
 2077 CB31  10 FA       	DJNZ	K6313d
 2078 CB33  CD B7E9     	CALL	OFILT
 2079 CB36  0D          	DEC	C
 2080 CB37  20 EF       	JR	NZ,K6313c	; naechster Cursor
 2081 CB39  E1          	POP	HL
 2082 CB3A  2C          	INC	L
 2083 CB3B  3E 28       	LD	A,40
 2084 CB3D  BD          	CP	L
 2085 CB3E  20 E2       	JR	NZ,K6313b
 2086 CB40  7C          	LD	A,H
 2087 CB41  C6 08       	ADD	A,8		; naechste Zeile
 2088 CB43  67          	LD	H,A
 2089 CB44  30 D7       	JR	NC,K6313a
 2090 CB46  3E 0D       HCCRLF:	LD	A,CR
 2091 CB48  CD B7E9     	CALL	OFILT
 2092 CB4B  3E 0A       	LD	A,LF
 2093 CB4D  CD B7E9     	CALL	OFILT
 2094 CB50  18 AD       	JR	HCEND
 2095                   
 2096                   ; ESC/P2 Miniformat
 2097                   
 2098 CB52  21 0000     HCMIN:	LD	HL,0		; Zeile=0, Spalte=0
 2099 CB55  CD CCDB     MINIa:	CALL	PRZK
 2100 CB58  0E 18       MINIb:	LD	C,24		; 24 Pixel
 2101 CB5A  CD CD01     	CALL	CBYTES
 2102 CB5D  CD CCBC     	CALL	S3PRS
 2103 CB60  20 F6       	JR	NZ,MINIb
 2104 CB62  7C          	LD	A,H
 2105 CB63  C6 18       	ADD	A,24
 2106 CB65  67          	LD	H,A
 2107 CB66  2E 00       	LD	L,0		; Spalte=0
 2108 CB68  FE F0       	CP	240
 2109 CB6A  20 E9       	JR	NZ,MINIa
 2110 CB6C  CD CCDB     	CALL	PRZK
 2111 CB6F  0E 10       MINIc:	LD	C,16
 2112 CB71  CD CD01     	CALL	CBYTES
 2113 CB74  06 08       	LD	B,8
 2114 CB76  AF          	XOR	A
 2115 CB77  12          MINId:	LD	(DE),A		; 8 Nadeln frei
 2116 CB78  13          	INC	DE
 2117 CB79  10 FC       	DJNZ	MINId
 2118 CB7B  CD CCBC     	CALL	S3PRS
 2119 CB7E  20 EF       	JR	NZ,MINIc
 2120 CB80  18 C4       	JR	HCCRLF
SLR180 SuperFast Relocating Macro Assembler     			    SLR180 1.31 Page  49
CC48    INC

 2121                   
 2122                   ; ESC/P2 mit 24 Nadeln
 2123                   
 2124 CB82  26 00       ESCP2:	LD	H,0		; Zeile 0
 2125 CB84  CD CCDB     ESCP2a:	CALL	PRZK
 2126 CB87  2E 00       	LD	L,0		; Spalte 0
 2127 CB89  06 08       ESCP2b:	LD	B,8		; 8 Pixel
 2128 CB8B  E5          	PUSH	HL
 2129 CB8C  CD E067     	CALL	PADR
 2130 CB8F  11 B700     	LD	DE,CASS
 2131 CB92  7E          ESCP2c:	LD	A,(HL)
 2132 CB93  12          	LD	(DE),A
 2133 CB94  13          	INC	DE
 2134 CB95  12          	LD	(DE),A		; 3 mal ablegen
 2135 CB96  13          	INC	DE
 2136 CB97  12          	LD	(DE),A
 2137 CB98  13          	INC	DE
 2138 CB99  2C          	INC	L
 2139 CB9A  10 F6       	DJNZ	ESCP2c
 2140 CB9C  0E 08       	LD	C,8
 2141 CB9E  06 18       ESCP2d:	LD	B,24		; 3*8 Bytes
 2142 CBA0  21 B700     	LD	HL,CASS
 2143 CBA3  CB 16       ESCP2e:	RL	(HL)
 2144 CBA5  CB 13       	RL	E
 2145 CBA7  CB 12       	RL	D
 2146 CBA9  17          	RLA
 2147 CBAA  23          	INC	HL
 2148 CBAB  10 F6       	DJNZ	ESCP2e		; Wandlung
 2149 CBAD  77          	LD	(HL),A
 2150 CBAE  06 03       	LD	B,3		; 3 mal drucken
 2151 CBB0  7E          ESCP2f:	LD	A,(HL)
 2152 CBB1  CD B7E9     	CALL	OFILT		; 1.
 2153 CBB4  7A          	LD	A,D
 2154 CBB5  CD B7E9     	CALL	OFILT		; 2.
 2155 CBB8  7B          	LD	A,E
 2156 CBB9  CD B7E9     	CALL	OFILT		; 3. Byte
 2157 CBBC  10 F2       	DJNZ	ESCP2f
 2158 CBBE  0D          	DEC	C
 2159 CBBF  20 DD       	JR	NZ,ESCP2d
 2160 CBC1  E1          	POP	HL
 2161 CBC2  2C          	INC	L
 2162 CBC3  3E 28       	LD	A,40		; Zeilenende?
 2163 CBC5  BD          	CP	L
 2164 CBC6  20 C1       	JR	NZ,ESCP2b
 2165 CBC8  7C          	LD	A,H
 2166 CBC9  C6 08       	ADD	A,8
 2167 CBCB  67          	LD	H,A
 2168 CBCC  30 B6       	JR	NC,ESCP2a
 2169 CBCE  18 3B       	JR	JHCRLF
 2170                   
 2171                   ; ESC/P 9-Nadeln (breit)
 2172                   
 2173 CBD0  26 00       K6314:	LD	H,0
 2174 CBD2  CD CCDB     K6314a:	CALL	PRZK
 2175 CBD5  2E 00       	LD	L,0
 2176 CBD7  06 04       K6314b:	LD	B,4
 2177 CBD9  E5          	PUSH	HL
 2178 CBDA  CD E067     	CALL	PADR
SLR180 SuperFast Relocating Macro Assembler     			    SLR180 1.31 Page  50
CC48    INC

 2179 CBDD  11 B700     	LD	DE,CASS
 2180 CBE0  7E          K6314c:	LD	A,(HL)
 2181 CBE1  12          	LD	(DE),A
 2182 CBE2  13          	INC	DE
 2183 CBE3  12          	LD	(DE),A
 2184 CBE4  13          	INC	DE
 2185 CBE5  2C          	INC	L
 2186 CBE6  10 F8       	DJNZ	K6314c		; 4*
 2187 CBE8  0E 08       	LD	C,8
 2188 CBEA  06 08       K6314d:	LD	B,8
 2189 CBEC  21 B700     	LD	HL,CASS
 2190 CBEF  CB 16       K6314e:	RL 	(HL)
 2191 CBF1  17          	RLA
 2192 CBF2  23          	INC	HL
 2193 CBF3  10 FA       	DJNZ	K6314e
 2194 CBF5  CD B7E9     	CALL	OFILT
 2195 CBF8  CD B7E9     	CALL	OFILT
 2196 CBFB  0D          	DEC	C
 2197 CBFC  20 EC       	JR	NZ,K6314d
 2198 CBFE  E1          	POP	HL
 2199 CBFF  2C          	INC	L
 2200 CC00  3E 28       	LD	A,40
 2201 CC02  BD          	CP	L
 2202 CC03  20 D2       	JR	NZ,K6314b
 2203 CC05  7C          	LD	A,H
 2204 CC06  C6 04       	ADD	A,4
 2205 CC08  67          	LD	H,A
 2206 CC09  30 C7       	JR	NC,K6314a
 2207 CC0B  C3 CB46     JHCRLF:	JP	HCCRLF
 2208                   
 2209                   ; ANSI-Drucker
 2210                   
 2211 CC0E  CD CCDB     K6311:	CALL	PRZK
 2212 CC11  06 2A       	LD	B,256/6
 2213 CC13  21 0000     	LD	HL,0
 2214 CC16  0E 06       K6311a:	LD	C,6
 2215 CC18  CD CD01     	CALL	CBYTES
 2216 CC1B  CD CC68     	CALL	SPRS		; 6*8-Feld ausg.
 2217 CC1E  20 F6       	JR	NZ,K6311a
 2218 CC20  3E 06       	LD	A,6		; 6 Pixel tiefer
 2219 CC22  84          	ADD	A,H
 2220 CC23  67          	LD	H,A
 2221 CC24  2E 00       	LD	L,0
 2222 CC26  CD CCDB     	CALL	PRZK
 2223 CC29  05          	DEC	B
 2224 CC2A  20 EA       	JR	NZ,K6311a
 2225 CC2C  0E 04       K6311b:	LD	C,256 MOD 6	; den Rest
 2226 CC2E  CD CD01     	CALL	CBYTES
 2227 CC31  AF          	XOR	A
 2228 CC32  12          	LD	(DE),A		; letzte beiden
 2229 CC33  13          	INC	DE		; Zeilen leeren
 2230 CC34  12          	LD	(DE),A
 2231 CC35  CD CC68     	CALL	SPRS
 2232 CC38  20 F2       	JR	NZ,K6311b
 2233 CC3A  18 CF       	JR	JHCRLF
 2234                   
 2235                   ; ANSI breit
 2236                   
SLR180 SuperFast Relocating Macro Assembler     			    SLR180 1.31 Page  51
CC48    INC

 2237 CC3C  CD CCDB     K6312:	CALL	PRZK
 2238 CC3F  06 55       	LD	B,256/3
 2239 CC41  21 0000     	LD	HL,0
 2240 CC44  0E 03       K6312a:	LD	C,3
 2241 CC46  CD CD0F     	CALL	CBYTS2
 2242 CC49  CD CC91     	CALL	S2PRS
 2243 CC4C  20 F6       	JR	NZ,K6312a
 2244 CC4E  24          	INC	H
 2245 CC4F  24          	INC	H
 2246 CC50  24          	INC	H
 2247 CC51  2E 00       	LD	L,0
 2248 CC53  CD CCDB     	CALL	PRZK
 2249 CC56  10 EC       	DJNZ	K6312a
 2250 CC58  0E 04       K6312b:	LD	C,256 MOD 6	; den Rest
 2251 CC5A  CD CD0F     	CALL	CBYTS2
 2252 CC5D  AF          	XOR	A
 2253 CC5E  12          	LD	(DE),A
 2254 CC5F  13          	INC	DE
 2255 CC60  12          	LD	(DE),A
 2256 CC61  CD CC91     	CALL	S2PRS
 2257 CC64  20 F2       	JR	NZ,K6312b
 2258 CC66  18 A3       	JR	JHCRLF
 2259                   
 2260                   ; 8* 6-Nadel-Sprosse ausgeben
 2261                   
 2262 CC68  E5          SPRS:	PUSH	HL
 2263 CC69  C5          	PUSH	BC
 2264 CC6A  2E 80       	LD	L,80H
 2265 CC6C  06 00       SPRS1:	LD	B,0
 2266 CC6E  11 B700     	LD	DE,CASS
 2267 CC71  1A          SPRS2:	LD	A,(DE)
 2268 CC72  A5          	AND	L		; CY=0
 2269 CC73  28 01       	JR	Z,SPRS3
 2270 CC75  37          	SCF			; CY=1
 2271 CC76  CB 10       SPRS3:	RL 	B
 2272 CC78  13          	INC	DE
 2273 CC79  3E 06       	LD	A,6		; fuer 6 Bit
 2274 CC7B  BB          	CP	E
 2275 CC7C  20 F3       	JR	NZ,SPRS2	; ob. Nadel war 0
 2276 CC7E  A7          	AND	A		; unt. Nadel = 0
 2277 CC7F  CB 10       	RL 	B
 2278 CC81  78          	LD	A,B
 2279 CC82  CD B7E9     	CALL	OFILT
 2280 CC85  CB 0D       	RRC	L
 2281 CC87  F2 CC6C     	JP	P,SPRS1
 2282 CC8A  C1          	POP	BC
 2283 CC8B  E1          	POP	HL
 2284 CC8C  2C          	INC	L
 2285 CC8D  3E 28       	LD	A,40
 2286 CC8F  BD          	CP	L
 2287 CC90  C9          	RET
 2288                   
 2289                   ; 8* 6-Nadel-Sprosse doppelt out
 2290                   
 2291 CC91  E5          S2PRS:	PUSH	HL
 2292 CC92  C5          	PUSH	BC
 2293 CC93  2E 80       	LD	L,80H
 2294 CC95  06 00       S2PR1:	LD	B,0
SLR180 SuperFast Relocating Macro Assembler     			    SLR180 1.31 Page  52
CC48    INC

 2295 CC97  11 B700     	LD	DE,CASS		; Kassetten-Puffer
 2296 CC9A  1A          S2PR2:	LD	A,(DE)
 2297 CC9B  A5          	AND	L
 2298 CC9C  28 01       	JR	Z,S2PR3
 2299 CC9E  37          	SCF
 2300 CC9F  CB 10       S2PR3:	RL 	B
 2301 CCA1  13          	INC	DE
 2302 CCA2  3E 06       	LD	A,6
 2303 CCA4  BB          	CP	E
 2304 CCA5  20 F3       	JR	NZ,S2PR2
 2305 CCA7  78          	LD	A,B
 2306 CCA8  17          	RLA			; untere beiden
 2307 CCA9  17          	RLA			; Nadeln tot
 2308 CCAA  CD B7E9     	CALL	OFILT
 2309 CCAD  CD B7E9     	CALL	OFILT
 2310 CCB0  CB 0D       	RRC	L
 2311 CCB2  F2 CC95     	JP	P,S2PR1
 2312 CCB5  C1          	POP	BC
 2313 CCB6  E1          	POP	HL
 2314 CCB7  2C          	INC	L
 2315 CCB8  3E 28       	LD	A,40
 2316 CCBA  BD          	CP	L
 2317 CCBB  C9          	RET
 2318                   
 2319                   ; 8* 24-Nadel-Sprosse ausgeben
 2320                   
 2321 CCBC  E5          S3PRS:	PUSH	HL
 2322 CCBD  1E 08       	LD	E,8
 2323 CCBF  0E 03       S3PR1:	LD	C,3		; 24 Nadeln = 3 Byte
 2324 CCC1  21 B700     	LD	HL,CASS
 2325 CCC4  06 08       S3PR2:	LD	B,8
 2326 CCC6  CB 16       S3PR3:	RL	(HL)
 2327 CCC8  17          	RLA
 2328 CCC9  23          	INC	HL
 2329 CCCA  10 FA       	DJNZ	S3PR3		; Wandlung
 2330 CCCC  CD B7E9     	CALL	OFILT
 2331 CCCF  0D          	DEC	C
 2332 CCD0  20 F2       	JR	NZ,S3PR2
 2333 CCD2  1D          	DEC	E
 2334 CCD3  20 EA       	JR	NZ,S3PR1
 2335 CCD5  E1           	POP	HL
 2336 CCD6  2C          	INC	L
 2337 CCD7  3E 28       	LD	A,40
 2338 CCD9  BD          	CP	L
 2339 CCDA  C9          	RET
 2340                   
 2341                   ; Druckerinitialisierung entsprechend HCPZ
 2342                   
 2343 CCDB  E5          PRZK:	PUSH	HL
 2344 CCDC  C5          	PUSH	BC
 2345 CCDD  AF          	XOR	A
 2346 CCDE  21 B7E1     	LD	HL,HCPZ
 2347 CCE1  ED 6F       	RLD
 2348 CCE3  4F          	LD	C,A		; Druckertyp
 2349 CCE4  ED 67       	RRD
 2350 CCE6  0C          	INC	C
 2351 CCE7  21 D7CB     	LD	HL,C6313
 2352 CCEA  46          PRZK1:	LD	B,(HL)		; Laenge
SLR180 SuperFast Relocating Macro Assembler     			    SLR180 1.31 Page  53
CC48    INC

 2353 CCEB  0D          	DEC	C
 2354 CCEC  28 09       	JR	Z,PRZK2
 2355 CCEE  04          	INC	B
 2356 CCEF  7D          	LD	A,L
 2357 CCF0  80          	ADD	A,B
 2358 CCF1  6F          	LD	L,A
 2359 CCF2  30 F6       	JR	NC,PRZK1
 2360 CCF4  24          	INC	H
 2361 CCF5  18 F3       	JR	PRZK1
 2362 CCF7  23          PRZK2:	INC	HL
 2363 CCF8  7E          	LD	A,(HL)
 2364 CCF9  CD B7E9     	CALL	OFILT
 2365 CCFC  10 F9       	DJNZ	PRZK2
 2366 CCFE  C1          POP2:	POP	BC
 2367 CCFF  E1          	POP	HL
 2368 CD00  C9          	RET
 2369                   
 2370                   ; C Bytes zum Puffer
 2371                   
 2372 CD01  E5          CBYTES:	PUSH	HL
 2373 CD02  C5          	PUSH	BC
 2374 CD03  CD E067     	CALL	PADR
 2375 CD06  11 B700     	LD	DE,CASS
 2376 CD09  06 00       	LD	B,0
 2377 CD0B  ED B0       	LDIR
 2378 CD0D  18 EF       	JR	POP2	; POP BC, HL	RET
 2379                   
 2380                   ; C Bytes zum Puffer & doppeln
 2381                   
 2382 CD0F  E5          CBYTS2:	PUSH	HL
 2383 CD10  CD E067     	CALL	PADR
 2384 CD13  11 B700     	LD	DE,CASS
 2385 CD16  7E          C2BYTL:	LD	A,(HL)
 2386 CD17  12          	LD	(DE),A
 2387 CD18  13          	INC	DE
 2388 CD19  12          	LD	(DE),A
 2389 CD1A  13          	INC	DE
 2390 CD1B  2C          	INC	L
 2391 CD1C  0D          	DEC	C
 2392 CD1D  20 F7       	JR	NZ,C2BYTL
 2393 CD1F  E1          	POP	HL
 2394 CD20  C9          	RET
 2395                   
 2396                   ; Byteausgabe von Datentraeger (BASIC-Schnittstelle)	**38**
 2397                   
 2398                   ; Zunaechst Puffer fuellen und nur wenn Puffer voll ist in die
 2399                   ; MBOUT-Routine(n) des eingestellten Treibers springen
 2400                   
 2401                   ; PE:	A	Datenbyte
 2402                   ;	D	Steuerbyte
 2403                   ;		Bit 3 = 1 INIT (Block 01)
 2404                   ;		Bit 6 = 1 Close (Block FF)
 2405                   ;	HL	Name nur bei INIT (Adresszeiger 11 Byte)
 2406                   ; PA:	CY=1	Fehler
 2407                   ; VR:	AF,DE,HL
 2408                   ;
 2409 CD21  5A          MBOC:	LD	E,D		; Steuerbyte
 2410 CD22  57          	LD	D,A		; Datenbyte
SLR180 SuperFast Relocating Macro Assembler     			    SLR180 1.31 Page  54
CC48    INC

 2411 CD23  D5          	PUSH	DE
 2412 CD24  C5          	PUSH	BC
 2413 CD25  CB 5B       	BIT	3,E		; Init?
 2414 CD27  28 32       	JR	Z,NOINIT
 2415 CD29  DD CB 07 CE 	SET	1,(IX+7)	; INIT merken
 2416 CD2D  3E D5       	LD	A,'U'+80H
 2417 CD2F  BE          	CP	(HL)		; List-Ausgabe?
 2418 CD30  D5          	PUSH	DE
 2419 CD31  11 00A0     	LD	DE,160		; kurze Vortonlaenge normal
 2420 CD34  20 03       	JR	NZ,NOHIU
 2421 CD36  11 0500     	LD	DE,1280		; bei 'U' gedehnt
 2422 CD39  ED 53 B7D8  NOHIU:	LD	(VORTN),DE
 2423 CD3D  CD D790     	CALL	BNAME		; Dateiname konvertieren/merken fuer ISRO
 2424 CD40  CD E4D8     	CALL	CLC		; Kassettenpuffer loeschen
 2425 CD43  CD ED6D     	CALL	DEV		; Kassette?
 2426 CD46  20 05       	JR	NZ,MBONN	; nein
 2427 CD48  01 000B     	LD	BC,11		; Laenge Dateiname + Typ
 2428 CD4B  ED B0       	LDIR			; bei TAPE zunaechst mit Name fuellen
 2429 CD4D  EB          MBONN:	EX	DE,HL		; HL jetzt Zeiger in Puffer
 2430 CD4E  D1          	POP	DE
 2431 CD4F  72          	LD	(HL),D		; 1. Datenbyte eintragen
 2432 CD50  2C          	INC	L
 2433 CD51  7D          MBOC1:	LD	A,L
 2434 CD52  32 B7DA     MBOC0:	LD	(DTPTR),A	; Zeiger neu setzen
 2435 CD55  A7          MBOCE:	AND	A		; CY=0 / kein Fehler (zusaetzlich ab CAOS 4.7)
 2436 CD56  C1          MBCERR:	POP	BC
 2437 CD57  D1          	POP	DE
 2438 CD58  CB 9B       	RES	3,E		; Init zuruecksetzen
 2439 CD5A  C9          	RET
 2440                   	;
 2441 CD5B  2A B7DA     NOINIT:	LD	HL,(DTPTR)	; Zeiger holen
 2442 CD5E  26 B7       	LD	H,High(CASS)	; und mit Kassettenpuffer verbinden
 2443 CD60  72          	LD	(HL),D		; Datenbyte eintragen
 2444 CD61  CB 73       	BIT	6,E		; Close?
 2445 CD63  20 26       	JR	NZ,MCLOS	; letzten Block schreiben
 2446 CD65  2C          	INC	L		; Zeiger auf naechstes Byte
 2447 CD66  F2 CD51     	JP	P,MBOC1		; Puffer noch nicht voll
 2448 CD69  DD CB 07 4E 	BIT	1,(IX+7)	; steht INIT noch aus?
 2449 CD6D  20 0A       	JR	NZ,MBOC2	; ja, dann erst einmal den Vorblock ausgeben!
 2450 CD6F  CD CE81     	CALL	MBLO		; Datenblock ausgeben, Blocknummer anzeigen
 2451 CD72  38 E2       	JR	C,MBCERR	; BRK oder Fehler -> IO-Error
 2452 CD74  CD E4D8     MBOC6:	CALL	CLC		; Kassettenpuffer jetzt wieder loeschen
 2453 CD77  18 D9       	JR	MBOC0		; Zeiger zuruecksetzen
 2454                   	;
 2455 CD79  DD CB 07 8E MBOC2:	RES	1,(IX+7)	; INIT ruecksetzen
 2456 CD7D  21 B7F5     	LD	HL,FNAME	; Dateiname fuer Ausgabe
 2457 CD80  CD E4E1     	CALL	PV7
 2458 CD83  02          	DB	2		; Vorblock ausgeben mit ISRO
 2459                   ;	JR	C,MBCERR	; Fehler
 2460 CD84  D4 CE8A     	CALL	NC,MBLO1	; Blocknummer anzeigen, neue Zeile, BRK-Test
 2461 CD87  38 CD       	JR	C,MBCERR	; BRK oder Fehler
 2462 CD89  18 E9       	JR	MBOC6		; Zeiger auf leeren Puffer stellen
 2463                   	;
 2464 CD8B  DD CB 07 4E MCLOS:	BIT	1,(IX+7)	; steht noch INIT aus?
 2465 CD8F  28 09       	JR	Z,MBOC3		; nein, nur noch der Endeblock
 2466 CD91  21 B7F5     	LD	HL,FNAME	; Dateiname fuer Ausgabe
 2467 CD94  CD E4E1     	CALL	PV7
 2468 CD97  02          	DB	2		; sonst erst noch ISRO ausfuehren
SLR180 SuperFast Relocating Macro Assembler     			    SLR180 1.31 Page  55
CC48    INC

 2469 CD98  18 07       	JR	MBOC4		; und danach sofort Close
 2470                   ;
 2471                   ; 17.02.2019
 2472                   ; Bei der byteweisen Ausgabe wurde bisher der Endeblock immer 2x ausgegeben.
 2473                   ; Dateien auf Diskette und USB-Laufwerken sind deshalb immer einen Block zu lang
 2474                   ;
 2475                   ; 24.11.2020
 2476                   ; Offenbar wurde dieses Verhalten mit Absicht eingebaut, denn BASIC benoetigt
 2477                   ; nach Einlesen des letzten Datenbytes eine gewisse "Bedenkzeit" bevor das Close
 2478                   ; zum Lesen des Endebytes 03h folgt. Wird also der erste Ende-Block nicht
 2479                   ; erwischt, dann folgt noch ein weiterer. Ohne diesen zusaetzlichen Block bleibt
 2480                   ; BASIC beim Lesen hengen und man muss zurueckspulen und den letzten Block
 2481                   ; nochmals abspielen.
 2482                   ; -> Also wird bei TAPE der Endeblock weiterhin 2x nacheinander ausgegeben.
 2483                   ;
 2484 CD9A  CD ED6D     MBOC3:	CALL	DEV		; Kassette?
 2485 CD9D  CC CE81     	CALL	Z,MBLO		; bei TAPE letzten Block als Datenblock ausgeben
 2486 CDA0  D8          	RET	C		; BRK oder Fehler
 2487 CDA1  ED 4B B7D8  MBOC4:	LD	BC,(VORTN)
 2488 CDA5  CD E4E1     	CALL	PV7
 2489 CDA8  03          	DB	3		; Endeblock ausgeben mit CSRO
 2490 CDA9  F5          	PUSH	AF		; CY=1 bei Fehler
 2491 CDAA  CD F4C4     	CALL	CRLF
 2492 CDAD  F1          	POP	AF		; Fehlerflag
 2493 CDAE  18 04       	JR	MBRES		; fertig
 2494                   ;
 2495 CDB0  CD E4E1     MBICL:	CALL	PV7
 2496 CDB3  05          	DB	5		; Dateieingabe stoppen mit CSRI
 2497 CDB4  DD CB 07 AE MBRES:	RES	5,(IX+7)	; 'U'-Merker ruecksetzen (Blocknummern anzeigen)
 2498 CDB8  18 9C       	JR	MBCERR		; fertig
 2499                   
 2500                   ; Byteeingabe von Datentraeger (BASIC-Schnittstelle)	**37**
 2501                   
 2502                   ; Zunaechst Daten aus Puffer entnehmen und nur wenn Puffer leer ist in die
 2503                   ; MBIN-Routine(n) des eingestellten Treibers springen
 2504                   
 2505                   ; PE:	D	Steuerbyte
 2506                   ;		Bit 3 = 1 INIT (Block 01)
 2507                   ;		Bit 6 = 1 Close (Block FF)
 2508                   ;	HL	Name nur bei INIT (Adresszeiger 11 Byte)
 2509                   ; PA:	A	Datenbyte
 2510                   ;	CY=1	Fehler
 2511                   ; VR:	AF, DE, HL
 2512                   ;
 2513 CDBA  5A          MBIC:	LD	E,D		; Steuerbyte
 2514                   ;	LD	D,A		; Datenbyte (PA!)
 2515 CDBB  D5          	PUSH	DE
 2516 CDBC  C5          	PUSH	BC
 2517 CDBD  CB 73       	BIT	6,E		; Close?
 2518 CDBF  20 EF       	JR	NZ,MBICL	; ja, Bandeingabe stoppen
 2519 CDC1  CB 5B       	BIT	3,E		; Init?
 2520 CDC3  28 64       	JR	Z,MBIU		; nein, Datenbyte holen
 2521                   ; Init
 2522 CDC5  E5          	PUSH	HL		; Dateiname merken
 2523                   ;
 2524                   ; 29.03.2021:
 2525                   ; Dateityp hier schon testen zur Unterdrueckung bei BASIC-Listings *.UUU
 2526                   ; der Test nach dem Einlesen des ersten -blocks funktioniert nur bei TAPE.
SLR180 SuperFast Relocating Macro Assembler     			    SLR180 1.31 Page  56
CC48    INC

 2527                   ;
 2528 CDC6  7E          	LD	A,(HL)		; vorangestellter Dateityp: 1. Zeichen testen
 2529 CDC7  FE D5       	CP	'U'+80H		; hohes 'U'?
 2530 CDC9  20 04       	JR	NZ,MBIC0
 2531 CDCB  DD CB 07 EE 	SET	5,(IX+7)	; merken zur Blocknummernausgabeunterdrueckung
 2532                   				; beim Einlesen von ASCII-Listings
 2533 CDCF  CD D790     MBIC0:	CALL	BNAME		; Dateiname konvertieren/merken fuer ISRI
 2534 CDD2  21 B7F5     	LD	HL,FNAME	; konvertierter Dateiname
 2535 CDD5  CD E4E1     	CALL	PV7
 2536 CDD8  04          	DB	4		; Block 01h einlesen mit ISRI
 2537 CDD9  E1          MBIC1:	POP	HL		; gesuchter Dateiname fuer Vergleich
 2538 CDDA  DA CE6F     MBIC2:	JP	C,JBLERR	; Lesefehler: '*'
 2539 CDDD  DD 7E 02    	LD	A,(IX+2)	; gelesener Block
 2540 CDE0  3D          	DEC	A
 2541 CDE1  C2 CE6F     	JP	NZ,JBLERR	; falsche Blocknummer: '*'
 2542 CDE4  DD CB 07 BE 	RES	7,(IX+7)	; Kopfblock ist geladen
 2543 CDE8  DD 34 03    	INC	(IX+3)		; naechster erwarteter Block
 2544 CDEB  11 B700     	LD	DE,CASS		; Daten stehen jetzt im Kassettenpuffer
 2545 CDEE  CD ED6D     	CALL	DEV		; Kassette?
 2546 CDF1  20 2B       	JR	NZ,MBINN	; nein, sofort Datenbyte entnehmen
 2547                   	
 2548                   ; Dateiname anzeigen/vergleichen
 2549 CDF3  06 0B       	LD	B,11		; Laenge des Dateinamens bei Tape im Kassettenpuffer
 2550 CDF5  1A          	LD	A,(DE)		; vorangestellter Dateityp: 1. Zeichen testen
 2551                   ;	CP	'U'+80H		; hohes 'U'?
 2552                   ;	JR	NZ,MBIC3
 2553                   ;	SET	5,(IX+7)	; merken zur Blocknummernausgabeunterdrueckung
 2554                   ;				; beim Einlesen von ASCII-Listings
 2555 CDF6  C6 29       MBIC3:	ADD	A,29H		; geschuetztes Programm?
 2556 CDF8  30 0A       	JR	NC,MBIC4
 2557 CDFA  1A          	LD	A,(DE)		; geschuetzte BASIC-Programme
 2558 CDFB  D6 04       	SUB	4		; als ungeschuetzt anzeigen
 2559 CDFD  12          	LD	(DE),A		; 1. Zeichen vom Dateityp
 2560 CDFE  13          	INC	DE
 2561 CDFF  12          	LD	(DE),A		; 2. Zeichen vom Dateityp
 2562 CE00  13          	INC	DE
 2563 CE01  12          	LD	(DE),A		; 3. Zeichen vom Dateityp
 2564                   ;	LD	(DATFLG),A	; <=hier LIST/EDIT/BYE-Schutz setzen
 2565                   ;	SET	6,(IX+7)	; Das war ein RESET-Schutz bei CAOS 3.1
 2566 CE02  1B          	DEC	DE
 2567 CE03  1B          	DEC	DE		; DE wieder auf Anfang Kassettenpuffer
 2568 CE04  1A          MBIC4:	LD	A,(DE)		; Name aus Kassettenpuffer
 2569 CE05  CD F3BB     	CALL	OCHR		; anzeigen
 2570 CE08  BE          	CP	(HL)		; stimmt Name?
 2571 CE09  28 04       	JR	Z,MBIC5
 2572 CE0B  DD CB 07 FE 	SET	7,(IX+7)	; nein-merken
 2573 CE0F  23          MBIC5:	INC	HL
 2574 CE10  13          	INC	DE
 2575 CE11  10 F1       	DJNZ	MBIC4
 2576 CE13  CD F4C4     	CALL	CRLF
 2577 CE16  DD CB 07 7E 	BIT	7,(IX+7)	; war der Name korrekt?
 2578 CE1A  37          	SCF			; Fehlerflag
 2579 CE1B  C2 CD56     	JP	NZ,MBCERR	; Name falsch -> ?IO ERROR
 2580 CE1E  EB          MBINN:	EX	DE,HL
 2581 CE1F  56          MBIC6:	LD	D,(HL)		; Datenbyte aus Kassettenpuffer entnehmen
 2582 CE20  2C          	INC	L		; Zeiger auf naechstes Byte
 2583 CE21  7D          	LD	A,L
 2584 CE22  32 B7DA     	LD	(DTPTR),A	; Zeiger neu setzen
SLR180 SuperFast Relocating Macro Assembler     			    SLR180 1.31 Page  57
CC48    INC

 2585 CE25  7A          	LD	A,D		; Datenbyte in A bereitstellen
 2586 CE26  C3 CD55     	JP	MBOCE		; fertig
 2587                   
 2588                   ; Datenbyte holen
 2589                   
 2590 CE29  2A B7DA     MBIU:	LD	HL,(DTPTR)	; Zeiger
 2591 CE2C  26 B7       	LD	H,HIGH(CASS)	; in Kassettenpuffer
 2592 CE2E  CB 7D       	BIT	7,L		; Pufferende erreicht?
 2593 CE30  28 ED       	JR	Z,MBIC6		; Daten aus Puffer entnehmen
 2594 CE32  CD E4E1     MBIU1:	CALL	PV7
 2595 CE35  01          	DB	1		; einen Block lesen mit MBI
 2596 CE36  38 2A       	JR	C,MERR		; Lesefehler
 2597 CE38  3E FF       	LD	A,0FFH
 2598 CE3A  DD BE 02    	CP	(IX+2)		; Block FF?
 2599 CE3D  28 13       	JR	Z,MBIU3		; FF immer als korrekt durchgehen lassen
 2600 CE3F  DD 7E 03    	LD	A,(IX+3)
 2601 CE42  DD BE 02    	CP	(IX+2)		; erwarteter Block?
 2602 CE45  28 0B       	JR	Z,MBIU3		; ja, stimmt!
 2603 CE47  CD F63C     	CALL	BLNOT		; nicht erwarteter Block mit * anzeigen
 2604 CE4A  CD F664     MBIU2:	CALL	BRKT		; Abbruch mit BRK?
 2605 CE4D  30 E3       	JR	NC,MBIU1	; weiter versuchen
 2606 CE4F  C3 CD56     JMBERR:	JP	MBCERR		; BRK => IO-ERROR
 2607                   	;
 2608 CE52  DD 34 03    MBIU3:	INC	(IX+3)		; naechsten Block erwarten
 2609 CE55  3D          	DEC	A
 2610 CE56  DD CB 07 6E 	BIT	5,(IX+7)	; Blocknummer unterdruecken?
 2611 CE5A  CC F64F     	CALL	Z,LUP5		; Blocknummer ausgeben, ">" anhaengen und zum
 2612                   				; Zeilenanfan gehen
 2613 CE5D  21 B700     MBIU4:	LD	HL,CASS		; Pufferbeginn
 2614 CE60  18 BD       	JR	MBIC6		; jetzt Datenbyte entnehmen
 2615                   
 2616                   ; Lesefehler
 2617 CE62  CD ED6D     MERR:	CALL	DEV		; Kassette?
 2618 CE65  20 0B       	JR	NZ,JBLE1	; nein, Abbruch bei anderen Devices
 2619 CE67  CD F640     	CALL	BLERR		; Blocknummer mit ? anzeigen
 2620 CE6A  CD F4C4     	CALL	CRLF		; neue Zeile
 2621                   ;	CALL	OSTR
 2622                   ;	DB	9,9,9,9,'?',0	; Fehler im Block
 2623                   ;	CALL	BNROST		; mit Blocknummer anzeigen
 2624                   ;	DB	1EH,0		; neue Zeile
 2625 CE6D  18 DB       	JR	MBIU2		; BRK testen, sonst weiter versuchen
 2626                   
 2627                   ; falsche Blocknummer oder Lesefehler beim Kopfblock
 2628 CE6F  CD ED6D     JBLERR:	CALL	DEV		; Kassette?
 2629 CE72  37          JBLE1:	SCF			; Fehlerkennung
 2630 CE73  20 DA       	JR	NZ,JMBERR	; Abbruch wenn nicht Kassette
 2631 CE75  CD F63C     	CALL	BLNOT		; nicht erwartete Blocknummer mit * anzeigen
 2632                   ;	CALL	OSTR
 2633                   ;	DB	'*',8,0		; nicht erwarteter 1. Block
 2634                   ;	CALL	BRKT
 2635 CE78  38 D5       	JR	C,JMBERR	; BRK => IO-ERROR
 2636 CE7A  CD E4E1     	CALL	PV7
 2637 CE7D  01          	DB	1		; Block erneut lesen mit MBI
 2638 CE7E  C3 CDDA     	JP	MBIC2
 2639                   
 2640                   ; Datenblock ausgeben innerhalb der Byte-Routinen
 2641                   ; PA:	CY=1	Fehler
 2642                   
SLR180 SuperFast Relocating Macro Assembler     			    SLR180 1.31 Page  58
CC48    INC

 2643 CE81  ED 4B B7D8  MBLO:	LD	BC,(VORTN)	; Vortonlaenge
 2644 CE85  CD E4E1     	CALL	PV7
 2645 CE88  00          	DB	0		; Block ausgeben mit MBO
 2646 CE89  D8          	RET	C		; Fehler
 2647 CE8A  DD CB 07 6E MBLO1:	BIT	5,(IX+7)	; Blocknummern unterdruecken?
 2648 CE8E  C0          	RET	NZ		; ja
 2649 CE8F  C3 F639     	JP	SUP5		; Blocknummer anzeigen, neue Zeile, BRK-Test
 2650                   
 2651                   ; Tabelle der Modulnamen:
 2652                   
 2653 CE92  00 56 41 52 MTAB:	DB	000h,'VARIABEL',0	; M042 (Tim Henning)
 2654 CE9C  01 53 54 41 	DB	001H,'START-ROM',0	; M033 z.B. Typestar
 2655 CEA7  70 33 32 4B 	DB	070H,'32K ROM',0	; M045
 2656 CEB0  71 36 34 4B 	DB	071H,'64K ROM',0	; M046
 2657 CEB9  72 31 32 38 	DB	072H,'128K ROM',0	; M047
 2658 CEC3  73 32 35 36 	DB	073H,'256K ROM',0	; M048 (Mario Leubner)
 2659 CECD  74 35 31 32 	DB	074H,'512K ROM',0	; M049 (Andreas Schlechte)
 2660                   ;	DB	075H,'1M ROM',0		; M050 reserviert!
 2661 CED7  76 34 4D 20 	DB	076H,'4M ROM',0		; M044 (Bert Lange, Andreas Schlechte)
 2662 CEDF  77 36 34 4B 	DB	077H,'64K RAM',0	; M032 - 64k-Variante
 2663 CEE8  78 31 32 38 	DB	078H,'128K RAM',0	; M036
 2664 CEF2  79 32 35 36 	DB	079H,'256K RAM',0	; M032 - 256k-Variante
 2665 CEFC  7A 35 31 32 	DB	07AH,'512K RAM',0	; M034
 2666 CF06  7B 31 4D 20 	DB	07BH,'1M RAM',0		; M035, M035x4
 2667                   ;	DB	07CH,'32K EEPROM',0	; reserviert!
 2668                   ;	DB	07DH,'64K EEPROM',0	; reserviert!
 2669                   ;	DB	07EH,'128K EEPROM',0	; reserviert!
 2670                   ;	DB	07FH,'256K EEPROM',0	; M109 '256x8K CMOS RAM' (Tim Henning)
 2671 CF0E  A7 46 4C 4F 	DB	0A7H,'FLOPPY',0		; D004, D008
 2672 CF16  BF 4D 54 30 	DB	0BFH,'MT02',0		; MT02 (Nachbau Pruefmodul MT01)
 2673                   ;	DB	0D8h,'Z8E',0		; M127 (reserviert fuer Thomas Schramm)
 2674 CF1C  D9 45 50 52 	DB	0D9H,'EPROMER 32K',0	; M030 (fuer 2k-32k EPROMs)
 2675                   ;	DB	0DAH,'PIO-3',0		; M002 (geplantes Modul mit 3*PIO)
 2676 CF29  DA 57 45 41 	DB	0DAH,'WEATHER',0	; M004 (Wetter-Modul, Rene Nitzsche)
 2677 CF32  DB 45 50 52 	DB	0DBH,'EPROMER 64K',0	; M030 (fuer 1k-64k EPROMs)
 2678 CF3F  DC 53 4F 55 	DB	0DCH,'SOUND',0		; M066 (Soundmodul, Rene Nitzsche)
 2679 CF46  DF 4D 50 33 	DB	0DFH,'MP3',0		; M366 (MP3-Modul, Rene Nitsche)
 2680 CF4B  E3 44 41 55 	DB	0E3H,'DAU1',0		; M029
 2681 CF51  E7 41 44 55 	DB	0E7H,'ADU1',0		; M010
 2682 CF57  EC 53 43 41 	DB	0ECH,'SCANNER',0	; M051 (KC-Club)
 2683 CF60  EE 56 2E 32 	DB	0EEH,'V.24',0		; M003, M053
 2684 CF66  EF 44 49 47 	DB	0EFH,'DIGITAL I/O',0	; M001
 2685 CF73  F0 38 4B 20 	DB	0F0H,'8K CMOS-RAM',0	; M120 (Nachbau Thomas Schramm)
 2686 CF80  F1 31 36 4B 	DB	0F1H,'16K CMOS-RAM',0	; M122
 2687 CF8E  F2 33 32 4B 	DB	0F2H,'32K CMOS-RAM',0	; M124
 2688                   ;	DB	0F3H,'8*8K EPROM',0	; M062-RAM/ROM       (Sonderbehandlung!)
 2689 CF9C  F4 31 36 4B 	DB	0F4H,'16K RAM',0	; M022
 2690 CFA5  F5 33 32 4B 	DB	0F5H,'32K RAM',0	; M024
 2691 CFAE  F6 36 34 4B 	DB	0F6H,'64K RAM',0	; M011
 2692 CFB7  F7 38 4B 20 	DB	0F7H,'8K ROM',0		; M025, M040
 2693 CFBF  F8 31 36 4B 	DB	0F8H,'16K ROM',0	; M028, M040, M041
 2694 CFC8  F9 47 49 44 	DB	0F9H,'GIDE',0		; M064 (Mario Leubner, 2016)
 2695                   ;	DB	0FBH,'8K SOFTWARE',0	; M012, M026, M027   (Sonderbehandlung!)
 2696 CFCE  FC 42 41 53 	DB	0FCH,'BASIC',0		; M006
 2697                   ;	DB	0FDH,'USB+NET',0	; M052               (Sonderbehandlung!)
 2698 CFD5  FF 3F 3F 3F 	DB	0FFH,'???',0		; unbekanntes Modul
 2699 CFDA  53 4F 46 54 MTAB1:	DB	'SOFTWARE'		; Standardanzeige falls ohne Menuewort
 2700 CFE2  00          MTAB2:	DB	0
SLR180 SuperFast Relocating Macro Assembler     			    SLR180 1.31 Page  59
CC48    INC

 2701                   
 2702 CFE3  55 53 45 52 MUSER:	DB	'USER',0		; M005 (USER-Module C0-D7)
 2703                   	;
 2704 CFE8  4E 45 54 2B M052A:	DB	'NET+'			; M052 (USB+Netzwerk, 32K EEPROM 4 * 8K)
 2705 CFEC  55 53 42 00 M052B:	DB	'USB',0			; M052 (nur USB, 8K EEPROM)
 2706                   	;
 2707 CFF0  34 2A 38 4B M062A:	DB	'4*8K RAM',0		; M062-RAM (E. Mueller)
 2708 CFF9  38 2A 38 4B M062B:	DB	'8*8K ROM',0		; M062-ROM (E. Mueller)
 2709                   
 2710                   ;	ABSFILL	0D000h,<ROM-C-Ende>
  235                   
  236                   	INCLUDE	CD48.INC	; ROM-D (D000-DAB7)
    1                   ;*****************************************
    2                   ;**	CAOS 4.8	ROM D		**
    3                   ;**					**
    4                   ;**	Adresse:  D000h bis DAB7h	**
    5                   ;**					**
    6                   ;**	letzte Aenderung: 19.02.2023	**
    7                   ;*****************************************
    8                   
    9                   ;	ORG	0D000H
   10                   
   11                   ;*******************************************************************************
   12                   ;	DEVICE-Treiber fuer Kassette (ab CAOS 4.7 im ROM-D)
   13                   ;*******************************************************************************
   14                   
   15                   ; Zeitkonstanten fuer TAPE-Schreiben:
   16                   
   17                   			; Vorton	"1"-Bits
   18         005D      ZKKAT	EQU	93	; Trennzeichen	Vollschwingung ca.  557 Hz
   19         0017      ZKKA0	EQU	23	; "0"		Vollschwingung ca. 1950 Hz
   20         002F      ZKKA1	EQU	47	; "1"		Vollschwingung ca. 1050 Hz
   21                   ;
   22                   ; Zeitkonstanten fuer TAPE-Lesen:
   23                   ;
   24         00A3      IKEZK	EQU	163	; Zeitkonstante fuer CTC
   25         005D      IKEGN	EQU	93	; Erkennung Nullbit
   26         00BA      IKEG1	EQU	186	; Erkennung Einsbit
   27                   
   28                   ; Initialisierung Bandausgabe:				**08**
   29                   ; PA:	CY=0	(kein Fehler bei Bandausgabe)
   30                   
   31 D002  F3          TISRO:	DI
   32 D003  DB 88       	IN	A,(PIOAD)
   33 D005  F6 60       	OR	01100000b	; Motor+LED ein
   34 D007  CD E470     	CALL	ISRO1		; Initialisierung
   35 D00A  DD 36 02 00 	LD	(IX+2),0	; Block 1 (Vorblock)
   36 D00E  01 1000     	LD	BC,4096		; langer Vorton
   37                   
   38                   ; Ausgabe 1 Block					**01**
   39                   ; PE:	BC	Laenge Vorton
   40                   
   41 D011  DD 34 02    TMBO:	INC	(IX+2)
   42 D014  3E 87       	LD	A,10000111b	; EI,ZG16,Res
   43 D016  F3          	DI
   44 D017  D3 8D       	OUT	(CTC1),A
   45 D019  3E 2F       	LD	A,ZKKA1		; Vorton "1"
   46 D01B  D3 8D       	OUT	(CTC1),A
SLR180 SuperFast Relocating Macro Assembler     			    SLR180 1.31 Page  60
CD48    INC

   47 D01D  FB          	EI
   48 D01E  5F          	LD	E,A		; E=47 (ZK Vorton)
   49 D01F  CD D064     MBO1:	CALL	BITOUT		; Vorton ausgeben
   50 D022  ED A1       	CPI
   51 D024  EA D01F     	JP	PE,MBO1		; BC mal
   52 D027  CD D062     	CALL	ZTON		; Trennzeichen
   53 D02A  DD 7E 02    	LD	A,(IX+2)
   54 D02D  CD D04F     	CALL	BYTOT		; Blocknummer
   55 D030  DD 6E 05    	LD	L,(IX+5)
   56 D033  DD 66 06    	LD	H,(IX+6)	; Blockanfang
   57 D036  06 80       	LD	B,128		; Zaehler
   58 D038  7E          BLKOT:	LD	A,(HL)
   59 D039  CD D04F     	CALL	BYTOT		; 128 Datenbyte ausgeben
   60 D03C  79          	LD	A,C
   61 D03D  86          	ADD	A,(HL)		; Pruefsumme
   62 D03E  4F          	LD	C,A		; nebenher berechnen in Register C
   63 D03F  23          	INC	HL
   64 D040  10 F6       	DJNZ	BLKOT
   65 D042  CD D04F     	CALL	BYTOT		; Pruefsumme ausgeben
   66                   
   67                   ; Bei einer Halbschwingung als Endimpuls aendert sich mit jedem Block die
   68                   ; Polaritaet der Signale. Das ist bei allen CAOS-Versionen so ausser CAOS 4.5.
   69                   ; Eventuell ist das ja besser - deshalb ab CAOS 4.6 wieder eine Halbschwingung
   70                   ; als Endimpuls. (bemerkt von Micha im Forum am 02.02.2015)
   71                   
   72 D045  CD D067     	CALL	HBITOT		; Trennzeichen (2. Halbschwingung)
   73 D048  5D          	LD	E,L
   74 D049  54          	LD	D,H		; DE=HL (Pufferende+1)
   75 D04A  3E 03       	LD	A,3		; CTC stoppen
   76 D04C  D3 8D       	OUT	(CTC1),A
   77 D04E  C9          	RET
   78                   
   79                   ; Ausgabe eines Bytes auf Kassette
   80                   ; PE:	A	Datenbyte
   81                   ; PA:	CY=0
   82                   ;	E	Zeitkonstante fuer Trennzeichen
   83                   ; VR:	AF, E
   84                   
   85 D04F  C5          BYTOT:	PUSH	BC
   86 D050  4F          	LD	C,A
   87 D051  06 08       	LD	B,8		; 8 Bit ausgeben
   88 D053  CB 09       BYTOUT:	RRC	C		; mit Bit 0 beginnend
   89 D055  1E 17       	LD	E,ZKKA0
   90 D057  D4 D064     	CALL	NC,BITOUT	; CY=0 / Nullbit ausgeben
   91 D05A  1E 2F       	LD	E,ZKKA1	
   92 D05C  DC D064     	CALL	C,BITOUT	; CY=1 / Einsbit ausgeben
   93 D05F  10 F2       	DJNZ	BYTOUT		; 8x wiederholen
   94 D061  C1          	POP	BC
   95 D062  1E 5D       ZTON:	LD	E,ZKKAT		; ZK Trennzeichen
   96                   
   97                   ; Ausgabe einer Vollschwingung
   98                   ; PE:	E	Zeitkonstante
   99                   
  100 D064  CD D067     BITOUT:	CALL	HBITOT		; Aufrufen und reinlaufen
  101 D067  DD 73 00    HBITOT:	LD	(IX),E		; Zeitkonstante -> (IX)
  102 D06A  DD 7E 00    HBIT1:	LD	A,(IX)		; Warten bis Zeitkonstante von
  103 D06D  A7          	AND	A		; Interruptroutine zurueckgesetzt
  104 D06E  20 FA       	JR	NZ,HBIT1
SLR180 SuperFast Relocating Macro Assembler     			    SLR180 1.31 Page  61
CD48    INC

  105 D070  C9          	RET
  106                   
  107                   ; Initialisierung Bandeingabe				**0A**
  108                   ; PE:	HL	Dateiname
  109                   ; PA:	CY=1	Fehler
  110                   ;	CY=0	Block korrekt gelesen
  111                   ; VR:	AF,BC
  112                   
  113 D071  CD E465     TISRI:	CALL	ISRI1		; Motor ein, LED aus
  114                   
  115                   ; Einen Block einlesen:					**05**
  116                   ; PA:	CY=1	Fehler
  117                   ;	CY=0	Block korrekt gelesen
  118                   ; VR:	AF,BC
  119                   
  120 D074  3E 83       TMBI:	LD	A,10000011b
  121 D076  D3 8A       	OUT	(PIOAS),A	; EI an PIO A (Kassette)
  122 D078  E5          	PUSH	HL
  123 D079  D5          	PUSH	DE
  124 D07A  06 16       MBI1:	LD	B,22
  125 D07C  CD D0CF     MBI2:	CALL	STOP1		; Lesen einer Vollschwingung
  126 D07F  38 F9       	JR	C,MBI1		; kein Einsbit ?
  127 D081  FE BA       	CP	IKEG1		; Einsbit ?
  128 D083  CD D0C4     	CALL	LEDOO		; LED on/off
  129 D086  38 F2       	JR	C,MBI1
  130 D088  10 F2       	DJNZ	MBI2		; 22 korrekte Schwingungen abwarten
  131 D08A  06 02       MBI3:	LD	B,2
  132 D08C  AF          MBI4:	XOR	A
  133 D08D  CD D0D3     	CALL	STOP2		; Lesen einer Halbschwingung
  134 D090  FE 5D       	CP	IKEGN		; Nullbit ?
  135 D092  30 F6       	JR	NC,MBI3
  136 D094  10 F6       	DJNZ	MBI4		; Warten auf ein komplettes Nullbit
  137 D096  DD 6E 05    	LD	L,(IX+5)	; Blockpuffer
  138 D099  DD 66 06    	LD	H,(IX+6)
  139 D09C  CD D0E4     	CALL	BYTIN		; Blocknummer lesen
  140 D09F  38 1B       	JR	C,MBI5		; Stoerung
  141 D0A1  DD 77 02    	LD	(IX+2),A	; Blocknummer eintragen
  142 D0A4  06 80       	LD	B,128		; Blocklaenge
  143 D0A6  1E 00       	LD	E,0		; Pruefsumme=0
  144 D0A8  CD D0E4     BLKIN:	CALL	BYTIN		; Datenbyte lesen
  145 D0AB  38 0F       	JR	C,MBI5		; Stoerung
  146 D0AD  77          	LD	(HL),A
  147 D0AE  83          	ADD	A,E		; Pruefsumme berechnen
  148 D0AF  5F          	LD	E,A
  149 D0B0  23          	INC	HL
  150 D0B1  10 F5       	DJNZ	BLKIN
  151 D0B3  6F          	LD	L,A		; berechnete Pruefsumme
  152 D0B4  CD D0E4     	CALL	BYTIN		; Vergleichspruefsumme einlesen
  153 D0B7  38 03       	JR	C,MBI5		; Stoerung
  154 D0B9  95          	SUB	L		; Pruefsumme richtig?
  155 D0BA  C6 FF       	ADD	A,-1		; CY:=/Z
  156 D0BC  D1          MBI5:	POP	DE
  157 D0BD  E1          	POP	HL
  158 D0BE  F3          	DI
  159 D0BF  3E 03       	LD	A,3		; DI an PIO A
  160 D0C1  D3 8A       	OUT	(PIOAS),A
  161 D0C3  FB          	EI
  162 D0C4  DB 88       LEDOO:	IN	A,(PIOAD)	; LED ein/aus
SLR180 SuperFast Relocating Macro Assembler     			    SLR180 1.31 Page  62
CD48    INC

  163 D0C6  CB EF       	SET	5,A		; je nach CY
  164 D0C8  30 02       	JR	NC,MBI6
  165 D0CA  CB AF       	RES	5,A
  166 D0CC  D3 88       MBI6:	OUT	(PIOAD),A
  167 D0CE  C9          	RET
  168                   ;
  169                   ; 1 Bit (Vollschwingung) einlesen:
  170                   ; PA:	A	Zeitwert
  171                   ;	CY=0	Einsbit
  172                   ;	CY=1	Nullbit
  173                   ; VR:	AF, C
  174                   ;
  175 D0CF  AF          STOP1:	XOR	A		; mit 0 beginnen
  176 D0D0  CD D0D3     	CALL	STOP2		; erst aufrufen, dann reinlaufen
  177 D0D3  4F          STOP2:	LD	C,A		; 'Zeit' der 1. Halbschwingung in C merken
  178 D0D4  DD 36 00 00 	LD	(IX),0
  179 D0D8  DB 88       STOP21:	IN	A,(PIOAD)
  180 D0DA  D3 88       	OUT	(PIOAD),A	; PIO-Logik freigeben
  181                   ;	LD	A,(IX)		; CTC-Stand von Interrupt
  182                   ;	OR	A		; eingetragen?
  183 D0DC  AF          	XOR	A
  184 D0DD  DD B6 00    	OR	(IX)		; CTC-Stand von Interrupt eingetragen
  185 D0E0  28 F6       	JR	Z,STOP21	; Warten auf 2. Halbschwingung
  186 D0E2  81          	ADD	A,C		; beide 'Zeiten' addieren
  187 D0E3  C9          	RET
  188                   
  189                   ; Einlesen eines Bytes von Kassette
  190                   ; PA:	A	Byte
  191                   ;	CY=1	Trennzeichen, Stoerung
  192                   ; VR:	AF, C, D
  193                   
  194 D0E4  16 80       BYTIN:	LD	D,80H		; D=Bitschieberegister und Zaehler (Bit 7)
  195 D0E6  CD D0CF     IB1:	CALL	STOP1		; Bit Eingabe
  196 D0E9  38 03       	JR	C,IB2		; Nullbit ?
  197 D0EB  FE BA       	CP	IKEG1		; Einsbit
  198 D0ED  D8          	RET	C		; CY=1: Trennzeichen
  199 D0EE  3F          IB2:	CCF
  200 D0EF  CB 1A       	RR 	D		; Bit einschieben
  201 D0F1  30 F3       	JR	NC,IB1		; bis 8 Bit abgearbeitet sind
  202 D0F3  CD D0CF     	CALL	STOP1		; Trennzeichen (mit CY-Rueckmeldung)
  203 D0F6  7A          	LD	A,D		; Byte in A
  204 D0F7  C9          	RET
  205                   
  206                   ;*******************************************************************************
  207                   ;	DEVICE-Treiber fuer Floppy D004/D008 (ab CAOS 4.6)
  208                   ;*******************************************************************************
  209                   
  210                   ; Eingabedatei oeffnen und Block 01 einlesen		**0A**
  211                   ; PE:	HL	Dateiname
  212                   ; PA:	CY=1	Fehler
  213                   
  214 D0F8  DD 36 02 00 FISRI:	LD	(IX+2),0	; 1. Block lesen
  215 D0FC  DD 36 03 01 	LD	(IX+3),1	; erwarteter Block = 1
  216 D100  CD D196     	CALL	NAMOUT		; Dateiname ausgeben zum D004
  217 D103  3E 09       	LD	A,9		; Lesen oeffnen
  218 D105  21          	DB	21h		; LD HL,nn
  219                   
  220                   ; Einlesen Datenblock 128 Byte				**05**
SLR180 SuperFast Relocating Macro Assembler     			    SLR180 1.31 Page  63
CD48    INC

  221                   ; PE:	(IX+3)	erwartete Blocknummer
  222                   ; PA:	(IX+2)	gelesene Blocknummer
  223                   ;	CY=1	Lesefehler
  224                   ; VR:	AF,BC
  225                   
  226 D106  3E 01       FMBI:	LD	A,1		; Lesen normal
  227 D108  CD D14C     	CALL	STEUER
  228 D10B  D8          	RET	C		; Fehler
  229 D10C  0D          	DEC	C		; STBYT1 -> FDATA (80F2H)
  230 D10D  E5          	PUSH	HL
  231 D10E  DD 6E 05    	LD	L,(IX+5)
  232 D111  DD 66 06    	LD	H,(IX+6)	; Kassettenpuffer
  233 D114  ED 78       FMBI1:	IN	A,(C)
  234 D116  CD FB5E     	CALL	LDMAE		; Daten in Speicher ablegen
  235 D119  23          	INC	HL
  236 D11A  04          	INC	B
  237 D11B  20 F7       	JR	NZ,FMBI1	; CY von allen Befehlen nach RET C unbeeinflusst
  238 D11D  E1          	POP	HL
  239                   ;	LD	A,(IX+3)	; erwarteten Block
  240                   ;	LD	(IX+2),A	; als gelesenen Block melden
  241 D11E  DD 34 02    	INC	(IX+2)		; Blocknummer erhoehen
  242 D121  C9          	RET
  243                   
  244                   ; Eingabedatei schliessen				**0B**
  245                   ; PE:
  246                   ; PA:	CY=1	bei Fehler
  247                   
  248 D122  3E 41       FCSRI:	LD	A,41H		; READ - close
  249 D124  18 26       	JR	STEUER
  250                   
  251                   ; Ausgabedatei oeffnen und ersten Block 01h ausgeben	**08**
  252                   ; PE:	Kassettenpuffer mit Daten des Vorblocks
  253                   ;	HL	Dateiname
  254                   ; PA:	CY=1	Fehler
  255                   ; VR:	AF,BC,DE,HL
  256                   
  257 D126  DD 36 02 00 FISRO:	LD	(IX+2),0	; mit Block 1 beginnen
  258                   ;	LD	L,(IX+5)	; HL = Dateiname im Kassettenpuffer
  259                   ;	LD	H,(IX+6)
  260 D12A  CD D196     	CALL	NAMOUT		; Dateiname ausgeben zum D004
  261 D12D  3E 0B       	LD	A,0BH		; Schreiben oeffnen
  262 D12F  21          	DB	21h		; LD HL,nn
  263                   
  264                   ; Ausgabe Datenblock 128 Byte				**01**
  265                   ; PE:	Datenblock im Kassettenpuffer
  266                   ; PA:	CY=1	Fehler
  267                   ; VR:	AF,BC,DE,HL
  268                   
  269 D130  3E 03       FMBO:	LD	A,3		; Schreiben normal
  270 D132  DD 34 02    	INC	(IX+2)		; Blocknummer erhoehen
  271 D135  DD 6E 05    	LD	L,(IX+5)	; Kassettenpuffer
  272 D138  DD 66 06    	LD	H,(IX+6)
  273 D13B  01 80F2     	LD	BC,FDATA	; 80F2H
  274 D13E  1E 80       	LD	E,128
  275 D140  08          	EX	AF,AF'		; Kommando in A' merken
  276 D141  CD FB6E     FMBO1:	 CALL	LDAME		; Daten aus Speicher holen
  277 D144  ED 79       	 OUT	(C),A		; und in Koppel-RAM schreiben
  278 D146  23          	 INC	HL
SLR180 SuperFast Relocating Macro Assembler     			    SLR180 1.31 Page  64
CD48    INC

  279 D147  04          	 INC	B
  280 D148  1D          	 DEC	E
  281 D149  20 F6       	 JR	NZ,FMBO1
  282 D14B  08          	EX	AF,AF'		; Kommando zurueck nach A
  283                   ;
  284                   ; Steuerbyte 1 ausgeben, bei Fehler: Fehlercode/-text anzeigen
  285                   ; PE:	A	Kommando-Steuerbyte
  286                   ; PA:	A	Antwort von DEP
  287                   ;	CY=1	Fehler aufgetreten
  288                   ; VR:	AF, BC
  289                   ;
  290 D14C  01 80F3     STEUER:	LD	BC,STBYT1	; 80F3H
  291 D14F  ED 79       STEU0:	OUT	(C),A
  292 D151  C5          STEU1:	PUSH	BC
  293 D152  3E 01       	LD	A,1		; 6ms
  294 D154  CD FC24     	CALL	WAIT		; warten
  295 D157  C1          	POP	BC
  296 D158  ED 78       	IN	A,(C)
  297 D15A  A7          	AND	A		; CY-Flag=0
  298 D15B  CB 47       	BIT	0,A
  299 D15D  20 F2       	JR	NZ,STEU1	; fertig?
  300 D15F  CB 7F       	BIT	7,A		; Bit 7 gesetzt?
  301 D161  C8          	RET	Z		; kein Fehler
  302 D162  01 83F1     FLERR:	LD	BC,DEPVER	; 83F1H
  303 D165  ED 78       	IN	A,(C)
  304 D167  FE 20       	CP	20H		; DEP ab 2.0?
  305 D169  30 0D       	JR	NC,FLER1	; ja
  306 D16B  01 81F3     	LD	BC,FCODE	; 81F3H
  307 D16E  ED 78       	IN	A,(C)		; Fehlernummer
  308 D170  CD F3AA     	CALL	AHEX		; anzeigen
  309 D173  CD F4BA     	CALL	ERRM
  310 D176  37          FLER3:	SCF			; CY=1: Fehler
  311 D177  C9          	RET
  312                   	;
  313 D178  06 00       FLER1:	LD	B,HIGH(ERRTX)	; 00F1H = Fehlertext von DEP 2.0
  314 D17A  ED 78       FLER2:	IN	A,(C)
  315 D17C  04          	INC	B
  316 D17D  A7          	AND	A
  317 D17E  28 F6       	JR	Z,FLER3		; 00=Ende
  318 D180  CD F3BB     	CALL	OCHR
  319 D183  18 F5       	JR	FLER2
  320                   ;
  321                   ; Steuerbyte 2 ausgeben, bei Fehler: Fehlercode/-text anzeigen
  322                   ; PE:	A	Kommando-Steuerbyte
  323                   ; PA:	A	Antwort von DEP
  324                   ;	CY=1	Fehler aufgetreten
  325                   ; VR:	AF, BC
  326                   ;
  327 D185  01 80F1     STEUB2:	LD	BC,STBYT2	; 80F1H
  328 D188  18 C5       	JR	STEU0
  329                   
  330                   ; Ausgabedatei schliessen und Endeblock FFh ausgeben	**09**
  331                   ; PE:	Datenblock im Kassettenpuffer
  332                   ; PA:	CY=1	bei Fehler
  333                   ; VR:	AF,BC,DE,HL
  334                   
  335 D18A  DD 36 02 FE FCSRO:	LD	(IX+2),0FEH	; Nr. letzter Block
  336 D18E  CD D130     	CALL	FMBO		; Datenblock ausgeben
SLR180 SuperFast Relocating Macro Assembler     			    SLR180 1.31 Page  65
CD48    INC

  337 D191  D8          	RET	C		; Fehler
  338 D192  3E 43       	LD	A,43H		; write close
  339 D194  18 B6       	JR	STEUER
  340                   
  341                   ; Dateiname ausgeben
  342                   ; PE:	HL	Dateiname, Ende mit 00 (max. 12 Zeichen)
  343                   ;	D	Maske FFh (Trennzeichen=0) oder DFh (Trennzeichen=SPC oder 0)
  344                   ; VR:	AF,BC,E,HL
  345                   
  346 D196  11 FF0C     NAMOUT:	LD	DE,0FF0Ch	; D=Maske, E=max. Laenge Dateiname 8.3 (12)
  347 D199  01 82F3     NAMO1:	LD	BC,DIRBUF	; 82F3H
  348 D19C  7E          NAMO2:	LD	A,(HL)
  349 D19D  ED 79       	OUT	(C),A		; Dateiname zum D004 ausgeben
  350 D19F  A2          	AND	D		; war das ein Trennzeichen?
  351 D1A0  28 01       	JR	Z,NAMO3
  352 D1A2  23          	INC	HL		; naechstes Zeichen solange kein Trennzeichen
  353 D1A3  04          NAMO3:	INC	B
  354 D1A4  1D          	DEC	E
  355 D1A5  20 F5       	JR	NZ,NAMO2
  356 D1A7  C9          	RET
  357                   ;
  358                   ; Name ein-, ausgeben: (fuer RENAME)
  359                   ; PE:	DE	Zeiger auf Dateinamen, wenn 0 dann Eingabe
  360                   ; PA:	CY=1	BRK
  361                   ;	DE	Zeiger auf Zeichen nach Dateinamen (2. Name bei REN)
  362                   ;
  363 D1A8  CD F566     FNAM1:	CALL	NAMHL		; Dateiname eingeben
  364 D1AB  D8          	RET	C		; BRK
  365 D1AC  11 DF0C     FNAM2:	LD	DE,0DF0Ch	; D=Maske, E=max. Laenge Dateiname 8.3 (12)
  366 D1AF  CD D199     	CALL	NAMO1		; ausgeben zum D004	
  367 D1B2  EB          	EX	DE,HL		; Zeiger jetzt wieder in DE
  368 D1B3  13          	INC	DE		; Trennzeichen uebergehen
  369 D1B4  C9          	RET
  370                   
  371                   ; CAOS-D-Teil der Pixelausgaberoutine WPIX
  372                   
  373 D1B5  79          WPIXD:	LD	A,C
  374 D1B6  01 DC00     	LD	BC,0DC00H
  375 D1B9  87          	ADD	A,A
  376 D1BA  38 2C       	JR	C,WPX02		; 80..FF
  377 D1BC  05          	DEC	B
  378 D1BD  FE 40       	CP	40H
  379 D1BF  38 27       	JR	C,WPX02		; 00..1F
  380 D1C1  06 ED       	LD	B,0EEH-1	; Grossbuchstaben
  381 D1C3  FE B6       	CP	2*5BH
  382 D1C5  38 21       	JR	C,WPX02		; 20..5A
  383 D1C7  FE BC       	CP	2*5EH
  384 D1C9  38 0C       	JR	C,WPX01		; 5B..5D
  385 D1CB  FE C0       	CP	2*60H
  386 D1CD  38 19       	JR	C,WPX02		; 5E..5F
  387 D1CF  28 06       	JR	Z,WPX01		; 60
  388 D1D1  06 FC       	LD	B,0FEH-2	; Kleinbuchstaben
  389 D1D3  FE F6       	CP	2*7BH
  390 D1D5  38 11       	JR	C,WPX02		; 61..7A
  391 D1D7  01 DAB8     WPX01:	LD	BC,0DAB8H	; Zusatztabelle
  392 D1DA  D6 B6       	SUB	2*5BH
  393 D1DC  FE 06       	CP	6
  394 D1DE  38 08       	JR	C,WPX02		; 5B..5D
SLR180 SuperFast Relocating Macro Assembler     			    SLR180 1.31 Page  66
CD48    INC

  395 D1E0  D6 04       	SUB	4
  396 D1E2  FE 06       	CP	6
  397 D1E4  28 02       	JR	Z,WPX02		; 60
  398 D1E6  D6 34       	SUB	34H
  399 D1E8  6F          WPX02:	LD	L,A
  400 D1E9  26 00       	LD	H,0
  401 D1EB  29          	ADD	HL,HL		; *4
  402 D1EC  C3 E0EB     	JP	WPX07		; Zurueck zu CAOS-E
  403                   
  404                   ; Rolle Fenster fuer Scrollroutine
  405                   
  406 D1EF  E5          MOVELN:	PUSH	HL
  407 D1F0  D5          	PUSH	DE
  408 D1F1  C5          	PUSH	BC
  409 D1F2  F5          	PUSH	AF
  410 D1F3  08          	EX	AF,AF'
  411 D1F4  F5          	PUSH	AF
  412 D1F5  79          	LD	A,C		; BC: Pixelzeilen
  413 D1F6  08          	EX	AF,AF'
  414 D1F7  3A B79E     	LD	A,(WINLG)	; Spalten
  415 D1FA  E5          MOLN1:	PUSH	HL
  416 D1FB  D5          	PUSH	DE
  417 D1FC  ED A0       MOLN2:	LDI			; zeichenweise
  418 D1FE  ED A0       	LDI
  419 D200  ED A0       	LDI
  420 D202  ED A0       	LDI
  421 D204  ED A0       	LDI
  422 D206  ED A0       	LDI
  423 D208  ED A0       	LDI
  424 D20A  ED A0       	LDI
  425 D20C  EA D1FC     	JP	PE,MOLN2
  426 D20F  D1          	POP	DE
  427 D210  E1          	POP	HL
  428 D211  24          	INC	H		; neue Spalte
  429 D212  14          	INC	D
  430 D213  08          	EX	AF,AF'
  431 D214  4F          	LD	C,A
  432 D215  08          	EX	AF,AF'
  433 D216  3D          	DEC	A		; Spaltenzaehler
  434 D217  20 E1       	JR	NZ,MOLN1
  435 D219  08          	EX	AF,AF'
  436 D21A  F1          	POP	AF
  437 D21B  08          	EX	AF,AF'
  438 D21C  C3 E0B7     	JP	POP4		; POP	AF,BC,DE,HL   RET
  439                   
  440                   ; Loeschen einer Zeile
  441                   ; HL: Adresse, C: Laenge, A: Byte
  442                   
  443 D21F  41          CLLINE:	LD	B,C
  444 D220  55          CLL1:	LD	D,L		; L retten
  445 D221  77          	LD	(HL),A		; zeichenweise
  446 D222  2C          	INC	L		; ohne Schleife
  447 D223  77          	LD	(HL),A
  448 D224  2C          	INC	L
  449 D225  77          	LD	(HL),A
  450 D226  2C          	INC	L
  451 D227  77          	LD	(HL),A
  452 D228  2C          	INC	L
SLR180 SuperFast Relocating Macro Assembler     			    SLR180 1.31 Page  67
CD48    INC

  453 D229  77          	LD	(HL),A
  454 D22A  2C          	INC	L
  455 D22B  77          	LD	(HL),A
  456 D22C  2C          	INC	L
  457 D22D  77          	LD	(HL),A
  458 D22E  2C          	INC	L
  459 D22F  77          	LD	(HL),A
  460 D230  6A          	LD	L,D		; L holen
  461 D231  24          	INC	H
  462 D232  10 EC       	DJNZ	CLL1
  463 D234  C9          	RET
  464                   
  465                   ; CAOS-D-Teil der Scrollroutine SCRLPG
  466                   
  467 D235  3A B79E     SCRLD:	LD	A,(WINLG)	; Spalten
  468 D238  4F          	LD	C,A
  469 D239  06 00       	LD	B,0
  470 D23B  3A B79F     	LD	A,(WINLG+1)	; Zeilen
  471 D23E  3D          	DEC	A		; nur 1 Zeile?
  472 D23F  28 3A       	JR	Z,SCRL3		; nur CLLN
  473 D241  D5          	PUSH	DE
  474 D242  F5          	PUSH	AF
  475 D243  50          	LD	D,B		; DE=0
  476 D244  58          	LD	E,B		; Cursor links/oben
  477 D245  CD E087     	CALL	DABR
  478 D248  EB          	EX	DE,HL
  479 D249  21 0028     SCRL1:	LD	HL,40		; 1 Zeile tiefer
  480 D24C  19          	ADD	HL,DE
  481 D24D  E5          	PUSH	HL
  482 D24E  C5          	PUSH	BC
  483 D24F  ED B0       	LDIR			; im VRAM eine Zeile rollen
  484 D251  C1          	POP	BC
  485 D252  D1          	POP	DE
  486 D253  3D          	DEC	A
  487 D254  20 F3       	JR	NZ,SCRL1	; A-mal rollen
  488 D256  F1          	POP	AF
  489 D257  87          	ADD	A,A
  490 D258  87          	ADD	A,A
  491 D259  87          	ADD	A,A		; *8: Pixelzeile
  492 D25A  4F          	LD	C,A
  493 D25B  50          	LD	D,B		; B war 0
  494 D25C  58          	LD	E,B		; DE=0
  495 D25D  CD E05D     	CALL	PADR1
  496 D260  EB          	EX	DE,HL		; DE=Pixeladresse
  497 D261  2E 08       	LD	L,8		; H war 0
  498 D263  19          	ADD	HL,DE
  499 D264  3A B7A2     	LD	A,(STBT)
  500 D267  1F          	RRA
  501 D268  1F          	RRA
  502 D269  38 0B       	JR	C,SCRL2		; Farbe AUS
  503 D26B  F5          	PUSH	AF
  504 D26C  CD F99A     	CALL	ESC9
  505 D26F  CD D1EF     	CALL	MOVELN
  506 D272  CD F99A     	CALL	ESC9
  507 D275  F1          	POP	AF
  508 D276  17          SCRL2:	RLA			; Pixel AUS?
  509 D277  D4 D1EF     	CALL	NC,MOVELN
  510 D27A  D1          	POP	DE
SLR180 SuperFast Relocating Macro Assembler     			    SLR180 1.31 Page  68
CD48    INC

  511 D27B  15          SCRL3:	DEC	D
  512                   
  513                   ; CAOS-D-Teil der Zeilenloeschroutine CLLN (Shift-DEL)
  514                   
  515 D27C  1E 00       CLLND:	LD	E,0		; Cursor auf Spalte 0
  516 D27E  CD E087     	CALL	DABR		; ausserhalb?
  517 D281  D8          	RET	C		; (Selbstschutz)
  518 D282  3A B79E     	LD	A,(WINLG)
  519 D285  47          	LD	B,A		; Spalten
  520 D286  4F          	LD	C,A
  521 D287  AF          	XOR	A
  522 D288  77          CLLN1:	LD	(HL),A		; VRAM loeschen
  523 D289  23          	INC	HL
  524 D28A  10 FC       	DJNZ	CLLN1
  525 D28C  CD E05D     	CALL	PADR1
  526 D28F  D8          	RET	C
  527 D290  D5          	PUSH	DE
  528 D291  DD CB 01 5E 	BIT	3,(IX+1)
  529 D295  3A B7A2     	LD	A,(STBT)
  530 D298  20 04       	JR	NZ,CLLALT	; LORES
  531 D29A  CB 77       	BIT	6,A
  532 D29C  20 1C       	JR	NZ,CLLHR	; HRG-Modus
  533 D29E  0F          CLLALT:	RRCA			; Pixel AUS?
  534 D29F  5F          	LD	E,A		; nach E merken
  535 D2A0  38 06       	JR	C,CLLN2
  536 D2A2  AF          	XOR	A
  537 D2A3  E5          	PUSH	HL
  538 D2A4  CD D21F     	CALL	CLLINE		; Pixel loeschen
  539 D2A7  E1          	POP	HL
  540 D2A8  CB 0B       CLLN2:	RRC	E		; Farbe AUS?
  541 D2AA  38 0C       	JR	C,CLLN3
  542 D2AC  CD F99A     	CALL	ESC9
  543 D2AF  3A B7A3     	LD	A,(COLOR)
  544 D2B2  CD D21F     CLLCOL:	CALL	CLLINE		; Farbe setzen
  545 D2B5  CD F99A     	CALL	ESC9
  546 D2B8  D1          CLLN3:	POP	DE
  547 D2B9  C9          	RET
  548                   
  549 D2BA  3A B7A3     CLLHR:	LD	A,(COLOR)
  550 D2BD  E6 03       	AND	00000011b	; Paper, CY=0
  551 D2BF  1F          	RRA
  552 D2C0  3D          	DEC	A		; NEG ohne Veraenderung von CY
  553 D2C1  2F          	CPL
  554 D2C2  5F          	LD	E,A		; E = FFh * Bit 1 (Farbe)
  555 D2C3  9F          	SBC	A,A		; A = FFh * Bit 0 (Pixel)
  556 D2C4  E5          	PUSH	HL
  557 D2C5  CD D21F     	CALL	CLLINE
  558 D2C8  E1          	POP	HL
  559 D2C9  CD F99A     	CALL	ESC9
  560 D2CC  7B          	LD	A,E		; Farbe
  561 D2CD  18 E3       	JR	CLLCOL
  562                   
  563                   ; Quadratwurzel 16Bit A=SQR(HL)				**40**
  564                   
  565 D2CF  AF          SQRC:	XOR	A		; A=0, CY=0
  566 D2D0  3D          	DEC	A		; A=FF
  567 D2D1  5F          	LD	E,A
  568 D2D2  57          	LD	D,A		; DE=FFFF
SLR180 SuperFast Relocating Macro Assembler     			    SLR180 1.31 Page  69
CD48    INC

  569 D2D3  3C          SQR1:	INC	A		; mitzaehlen
  570 D2D4  13          	INC	DE
  571 D2D5  13          	INC	DE
  572 D2D6  ED 52       	SBC	HL,DE
  573 D2D8  30 F9       	JR	NC,SQR1
  574 D2DA  C3 FB87     	JP	COFF		; -> COFF
  575                   
  576                   ; Speicherschnellansicht
  577                   
  578 D2DD  7F7F        VIEW7F:	DW	7F7FH
  579 D2DF  76 69 65 77 	DB	'view'
  580 D2E3  03          	DB	3		; mindestens 1 Argument
  581 D2E4  7D          	LD	A,L
  582 D2E5  FE 10       	CP	10H
  583 D2E7  30 0C       	JR	NC,VIEW1	; L>0Fh
  584 D2E9  7C          	LD	A,H
  585 D2EA  A7          	AND	A
  586 D2EB  20 08       	JR	NZ,VIEW1	; H>0
  587 D2ED  21 B782     	LD	HL,ARG1
  588 D2F0  ED 6F       	RLD
  589 D2F2  66          	LD	H,(HL)
  590 D2F3  2E 00       	LD	L,0
  591 D2F5  11 8800     VIEW1:	LD	DE,8800H
  592 D2F8  01 2000     	LD	BC,2000H
  593 D2FB  CD FB6E     VIEW2:	CALL	LDAME		; Byte holen
  594 D2FE  12          	LD	(DE),A		; in IRM poken
  595 D2FF  23          	INC	HL
  596 D300  13          	INC	DE
  597 D301  0D          	DEC	C
  598 D302  20 F7       	JR	NZ,VIEW2
  599 D304  10 F5       	DJNZ	VIEW2
  600 D306  3E 0B       VIEW3:	LD	A,0BH		; Zeile hoch
  601 D308  CD F3BB     	CALL	OCHR
  602 D30B  3E 08       	LD	A,8
  603 D30D  32 B7A0     	LD	(CURSO),A
  604 D310  CD D313     	CALL	VIEW4
  605 D313  3E 01       VIEW4:	LD	A,1
  606 D315  4F          VIEW5:	LD	C,A
  607 D316  CD F3AA     	CALL	AHEX		; HEX-Leiste
  608 D319  79          	LD	A,C
  609 D31A  C6 22       	ADD	A,22H
  610 D31C  30 F7       	JR	NC,VIEW5
  611 D31E  C9          	RET
  612                   
  613                   ; Schreibe ON, ON* oder OFF fuer Systemcheck
  614                   ; PE:	Z=1	OFF
  615                   ;	Z=0 und CY=0 ON
  616                   ;	Z=0 und CY=1 ON*
  617                   
  618 D31F  28 14       WONOF:	JR	Z,WOF
  619 D321  F5          	PUSH	AF
  620 D322  CD F0B4     	CALL	OSTR
  621 D325  20 4F 4E 00 	DB	' ON',0
  622 D329  F1          	POP	AF
  623 D32A  3E 20       	LD	A,' '
  624 D32C  30 02       	JR	NC,WRR
  625 D32E  3E 2A       	LD	A,'*'		; Schreibschutz anzeigen
  626 D330  CD F3BB     WRR:	CALL	OCHR
SLR180 SuperFast Relocating Macro Assembler     			    SLR180 1.31 Page  70
CD48    INC

  627 D333  18 08       	JR	WRLF
  628                   	;
  629 D335  CD F0B4     WOF:	CALL	OSTR
  630 D338  20 4F 46 46 	DB	' OFF',0
  631 D33D  C3 F4C4     WRLF:	JP	CRLF
  632                   
  633                   ; Anzeige Steckplatz, Kennbyte, Steuerbyte fuer Modulcheck
  634                   
  635 D340  7D          LHD:	LD	A,L
  636 D341  CD F39F     	CALL	AHSPC		; Steckplatz
  637 D344  7C          	LD	A,H
  638 D345  CD F39F     	CALL	AHSPC		; Kennbyte
  639 D348  7A          	LD	A,D
  640 D349  C3 F39F     	JP	AHSPC		; Steuerbyte
  641                   
  642                   ; * * * *	ab hier DEVICE-Treiber-Funktionen (neu)	* * * *
  643                   
  644                   ;
  645                   ; Floppy-Treiber Funktion 0: Directory mit Maske
  646                   ; PE:	DE	Maske
  647                   ; PA:	HL	Anzahl passender Eintraege
  648                   ; VR:	AF, BC, DE, HL
  649                   ;
  650 D34C  EB          FDIR:	EX	DE,HL		; HL=Maske aus Kommandozeile
  651 D34D  11 B700     	LD	DE,CASS
  652 D350  01 000B     	LD	BC,11		; max. Laenge
  653 D353  ED B0       	LDIR			; In Kassettenpuffer ablegen
  654 D355  AF          	XOR	A
  655 D356  12          	LD	(DE),A		; Abschluss Maske
  656 D357  32 B796     	LD	(NUMNX),A	; Zeilenzaehler fuer Anzeige
  657 D35A  67          	ld	h,a
  658 D35B  6F          	ld	l,a
  659 D35C  22 B797     	ld	(NUMVX),hl	; Zaehler fuer angezeigte Dateien
  660 D35F  3E 0D       	LD	A,0DH		; Directory oeffnen
  661 D361  CD D14C     DIR1:	CALL	STEUER
  662 D364  CB 57       	BIT	2,A
  663 D366  20 40       	JR	NZ,DIR6		; Ende
  664 D368  06 82       	LD	B,HIGH(DIRBUF)	; 82F3H
  665 D36A  21 B70C     	LD	HL,CASS+12
  666                   ;	AND	A		; CY=0
  667 D36D  16 03       	LD	D,3		; 3 Eintraege einlesen von DEP
  668 D36F  1E 0B       DIR2:	LD	E,11		; 11 Zeichen lang
  669 D371  ED 78       DIR3:	IN	A,(C)		; Zeichen einlesen
  670 D373  F5          	PUSH	AF
  671 D374  E6 7F       	AND	7FH		; ohne Attribut
  672 D376  04          	INC	B
  673 D377  77          	LD	(HL),A		; ablegen
  674 D378  23          	INC	HL
  675 D379  7B          	LD	A,E
  676 D37A  FE 03       	CP	3		; R/O-Byte?
  677 D37C  28 01       	JR	Z,DIR4
  678 D37E  F1          	POP	AF		; vom Stack nehmen wenn nicht das R/O-Byte
  679 D37F  1D          DIR4:	DEC	E
  680 D380  20 EF       	JR	NZ,DIR3
  681 D382  36 00       	LD	(HL),0		; Ende-Kennung als 12. Byte
  682 D384  23          	INC	HL
  683 D385  04          	INC	B
  684 D386  F1          	POP	AF
SLR180 SuperFast Relocating Macro Assembler     			    SLR180 1.31 Page  71
CD48    INC

  685 D387  77          	LD	(HL),A		; R/O-Byte als 13. Byte ablegen
  686 D388  23          	INC	HL
  687 D389  15          	DEC	D
  688 D38A  20 E3       	JR	NZ,DIR2
  689                   
  690 D38C  21 B70C     	LD	HL,CASS+12	; 3 abgelegte DIR-Eintraege
  691 D38F  06 03       	LD	B,3		; 3 Eintraege testen/anzeigen
  692 D391  E5          DIR5:	PUSH	HL
  693 D392  11 B700     	LD	DE,CASS		; die Vergleichsmaske
  694 D395  1A          	LD	A,(DE)
  695 D396  A7          	AND	A		; CY=0
  696 D397  C4 D41B     	CALL	NZ,GLOB		; Vergleich mit Maske, falls angegeben
  697 D39A  E1          	POP	HL
  698 D39B  D4 D3C9     	CALL	NC,DIR7		; Anzeige eines passenden Eintrags
  699 D39E  11 000D     	LD	DE,13
  700 D3A1  19          	ADD	HL,DE		; naechster Eintrag
  701 D3A2  10 ED       	DJNZ	DIR5		; bis alle 3 Eintraege abgearbeitet sind
  702 D3A4  3E 05       	LD	A,5		; DIR weiter
  703 D3A6  18 B9       	JR	DIR1
  704                   	;
  705 D3A8  3A B7A0     DIR6:	LD	A,(CURSO)
  706 D3AB  A7          	AND	A		; Cursor auf neuer Zeile?
  707 D3AC  C4 F4C4     	CALL	NZ,CRLF		; wenn nicht, dann jetzt ein Zeilenwechsel
  708                   
  709                   ; Nach Ende aller Dateien noch die Statusmeldung anzeigen:
  710                   
  711 D3AF  3E 15       STAT:	LD	A,15H		; Status abfragen
  712 D3B1  CD D14C     	CALL	STEUER
  713 D3B4  1E 14       	LD	E,20
  714 D3B6  06 82       	LD	B,HIGH(DIRBUF)	; 82F3H
  715 D3B8  ED 78       STAT1:	IN	A,(C)
  716 D3BA  E6 7F       	AND	7FH		; Bit 7 abtrennen
  717 D3BC  04          	INC	B
  718 D3BD  F5          	PUSH	AF
  719 D3BE  CD F3BB     	CALL	OCHR
  720 D3C1  F1          	POP	AF
  721 D3C2  1D          	DEC	E
  722 D3C3  20 F3       	JR	NZ,STAT1
  723 D3C5  2A B797     	ld	hl,(NUMVX)	; Anzahl Dateien zurueck geben
  724 D3C8  C9          	RET
  725                   
  726                   ; einen DIR-Eintrag anzeigen:
  727                   
  728 D3C9  7E          DIR7:	LD	A,(HL)		; erstes Zeichen
  729 D3CA  FE 20       	CP	' '		; leer?
  730 D3CC  C8          	RET	Z		; dann kein Dateiname!
  731 D3CD  E5          	PUSH	HL		; DIR-Eintrag
  732 D3CE  3A B7A0     	LD	A,(CURSO)
  733 D3D1  FE 27       	CP	3*13		; wenn schon 3 Eintraege auf der Zeile stehen,
  734 D3D3  CC D3F3     	CALL	Z,DIR9		; dann auf neue Zeile wechseln
  735 D3D6  E1          	POP	HL
  736 D3D7  E5          	PUSH	HL
  737 D3D8  CD F039     	CALL	PV1		; damit sich diese Anzeige filtern laesst:
  738 D3DB  45          	DB	45H		; Dateiname anzeigen mit ZKOUT
  739 D3DC  3E 20       	LD	A,' '		; W/R
  740 D3DE  CB 7E       	BIT	7,(HL)
  741 D3E0  28 02       	JR	Z,DIR8
  742 D3E2  3E 2A       	LD	A,'*'		; R/O
SLR180 SuperFast Relocating Macro Assembler     			    SLR180 1.31 Page  72
CD48    INC

  743 D3E4  CD F3BB     DIR8:	CALL	OCHR
  744 D3E7  CD F3A2     	CALL	SPACE
  745 D3EA  2A B797     	ld	hl,(NUMVX)
  746 D3ED  23          	inc	hl		; angezeigte Dateien mitzaehlen
  747 D3EE  22 B797     	ld	(NUMVX),HL
  748 D3F1  E1          	POP	HL
  749 D3F2  C9          	RET
  750                   
  751                   ; Neue Zeile bei DIR-Kommando / warten nach Bildschirmseite:
  752                   
  753 D3F3  21 B796     DIR9:	LD	HL,NUMNX	; Zeilenzaehler
  754 D3F6  34          	INC	(HL)		; Zeilen zaehlen
  755 D3F7  3A B79F     	LD	A,(WINLG+1)	; Anzahl Zeilen im Fenster
  756 D3FA  3D          	DEC	A		; eine Zeile zum ueberlappen der Anzeige lassen
  757 D3FB  96          	SUB	(HL)
  758 D3FC  20 04       	JR	NZ,DIR10
  759 D3FE  77          	LD	(HL),A		; wieder von vorn zaehlen
  760 D3FF  CD F3DB     	call	kbd		; Tastatureingabe abwarten
  761 D402  C3 F4C4     DIR10:	JP	CRLF
  762                   ;
  763                   ; Floppy-Treiber Funktion 2: Datei loeschen
  764                   ; PE:	DE	Dateiname
  765                   ;	(DE)=0	Dateinamen werden abgefragt
  766                   ; PA:	CY=1	Fehler
  767                   ;
  768 D405  EB          FERA:	EX	DE,HL
  769 D406  7E          	LD	A,(HL)		; Parameter in Kommandozeile
  770 D407  E6 DF       	AND	0DFH		; angegeben?
  771 D409  CC F563     	CALL	Z,NAME		; Dateiname abfragen falls nicht angegeben
  772 D40C  3F          	CCF			; BRK nicht als Fehler anzeigen
  773 D40D  D0          	RET	NC		; Eingabe Dateiname mit BRK abgebrochen
  774 D40E  CD D196     	CALL	NAMOUT		; Dateiname ausgeben zum D004
  775 D411  3E 11       	LD	A,11H		; Era
  776 D413  CD D14C     	CALL	STEUER		; mit Steuerbyte 1 im D004 anfordern
  777 D416  D8          	RET	C		; Fehler aufgetreten
  778 D417  18 96       	JR	STAT
  779                   
  780                   ; Vergleich mit DIR-Maske:
  781                   
  782 D419  23          MAT0:	INC	HL
  783 D41A  13          MAT0E:	INC	DE
  784 D41B              GLOB:	; Eintritt, HL=Name, DE=Maske
  785                   	; PA: CY=1: nicht gefunden
  786 D41B  1A          	LD	A,(DE)
  787 D41C  B6          	OR	(HL)		; Beide Ende?
  788 D41D  C8          	RET	Z		; -> OK
  789 D41E  1A          	LD	A,(DE)
  790 D41F  FE 2A       	CP	'*'
  791 D421  28 16       	JR	Z,MAT0S
  792 D423  FE 01       	CP	1
  793 D425  D8          	RET	C		; M Ende
  794 D426  7E          	LD	A,(HL)
  795 D427  FE 01       	CP	1
  796 D429  D8          	RET	C		; N Ende
  797 D42A  1A          	LD	A,(DE)
  798 D42B  FE 3F       	CP	'?'
  799 D42D  28 EA       	JR	Z,MAT0		; Joker
  800 D42F  CB 6E       	BIT	5,(HL)
SLR180 SuperFast Relocating Macro Assembler     			    SLR180 1.31 Page  73
CD48    INC

  801 D431  CC F539     	CALL	Z,UPCASE
  802 D434  BE          	CP	(HL)
  803 D435  28 E2       	JR	Z,MAT0
  804 D437  37          	SCF
  805 D438  C9          	RET
  806                   	;
  807 D439  E5          MAT0S:	PUSH	HL
  808 D43A  D5          	PUSH	DE
  809 D43B  CD D41A     	CALL	MAT0E		; Rekursion!
  810 D43E  D1          	POP	DE
  811 D43F  E1          	POP	HL
  812 D440  D0          	RET	NC		; -> OK
  813 D441  7E          	LD	A,(HL)
  814 D442  23          	INC	HL
  815 D443  B7          	OR	A
  816 D444  20 F3       	JR	NZ,MAT0S
  817 D446  37          	SCF
  818 D447  C9          	RET
  819                   ;
  820                   ; Floppy-Treiber Funktion 3: Datei umbenennen
  821                   ; PE:	DE	Zeiger auf Zeichenkette mit 2 Dateinamen
  822                   ;	(DE)=0	Dateinamen werden abgefragt
  823                   ; PA:	CY=1	Fehler
  824                   ;
  825 D448  1A          FREN:	LD	A,(DE)		; Parameter in Kommandozeile
  826 D449  E6 DF       	AND	0DFH		; angegeben?
  827 D44B  20 13       	JR	NZ,REN1		; ja, dann diesen verwenden
  828 D44D  CD F0B4     	CALL	OSTR
  829 D450  41 6C 74 65 	DB	'Alter ',0
  830 D457  21 000C     	LD	HL,12
  831 D45A  CD D1A8     	CALL	FNAM1		; Dateiname abfragen
  832 D45D  D8          	RET	C		; BRK
  833 D45E  18 04       	JR	REN2
  834                   	;
  835 D460  EB          REN1:	EX	DE,HL		; Dateiname in HL
  836 D461  CD D1AC     	CALL	FNAM2
  837 D464  3E 29       REN2:	LD	A,29H		; REN alter Dateiname
  838 D466  CD D14C     	CALL	STEUER
  839 D469  D8          	RET	C		; Fehler
  840 D46A  1A          	LD	A,(DE)		; Parameter in Kommandozeile
  841 D46B  E6 DF       	AND	0DFH		; 2. Dateiname angegeben?
  842 D46D  20 13       	JR	NZ,REN3		; ja, dann diesen verwenden
  843 D46F  CD F0B4     	CALL	OSTR
  844 D472  4E 65 75 65 	DB	'Neuer ',0
  845 D479  21 000C     	LD	HL,12
  846 D47C  CD D1A8     	CALL	FNAM1		; Dateiname abfragen
  847 D47F  D8          	RET	C		; BRK
  848 D480  18 04       	JR	REN4
  849                   	;
  850 D482  EB          REN3:	EX	DE,HL		; Dateiname in HL
  851 D483  CD D1AC     	CALL	FNAM2
  852 D486  3E 21       REN4:	LD	A,21H		; REN neuer Dateiname
  853 D488  CD D14C     	CALL	STEUER		; Steuerbyte ausgeben
  854 D48B  D8          	RET	C		; Fehler
  855 D48C  CD F0B4     	CALL	OSTR
  856 D48F  4F 4B 2E 0D 	DB	'OK.',CR,LF,0
  857 D495  C9          	RET
  858                   ;
SLR180 SuperFast Relocating Macro Assembler     			    SLR180 1.31 Page  74
CD48    INC

  859                   ; Anzeige einer beliebigen Text-Datei (nicht fuer TAPE-Modus)
  860                   ;
  861 D496  7F7F        TYPE7F:	DW	7F7FH
  862 D498  54 59 50 45 	DB	'TYPE'
  863 D49C  1F          	DB	1FH		; Textargument zulaessig (Dateiname)
  864 D49D  CD D5AB     	CALL	TDUP1		; Dateiname in HL
  865 D4A0  D8          	RET	C		; TAPE oder BRK
  866 D4A1  CD E4E1     	CALL	PV7		; HL = Dateiname
  867 D4A4  04          	DB	4		; ISRI (ersten Block einlesen)
  868 D4A5  38 75       	JR	C,FCLOSE	; Fehler aufgetreten
  869 D4A7  3A B710     	LD	A,(CASS+10h)	; Anzahl ARG in Vorblock
  870 D4AA  FE 02       	CP	2
  871 D4AC  38 19       	JR	C,TYPE4		; kein Vorblock, da < 2
  872 D4AE  FE 05       	CP	5
  873 D4B0  30 15       	JR	NC,TYPE4	; kein Vorblock, da > 4
  874 D4B2  18 0D       	JR	TYPE3		; Vorblock -> dann ersten Datenblock einlesen
  875                   	;
  876 D4B4  CD E0AA     TYPE1:	CALL	CLSX		; CLS Bildschirm, damit nicht zu Druckprotokoll!
  877 D4B7  3E 0A       	LD	A,LF
  878 D4B9  CD E0AC     	CALL	CRT		; oben eine Zeile frei lassen
  879 D4BC  7B          TYPE2:	LD	A,E
  880 D4BD  FE 80       	CP	80h		; Ende Kassettenpuffer erreicht?
  881 D4BF  20 09       	JR	NZ,TYPE5	; nein, weiter anzeigen
  882 D4C1  CD E4E1     TYPE3:	CALL	PV7		; naechsten Block einlesen mit
  883 D4C4  01          	DB	1		; MBI
  884 D4C5  38 3F       	JR	C,TYPE10		; Fehler
  885 D4C7  11 B700     TYPE4:	LD	DE,CASS		; Kassettenpuffer zur Entnahme der Daten
  886 D4CA  1A          TYPE5:	LD	A,(DE)		; Zeichen
  887 D4CB  1C          	INC	E		; Zeiger auf naechstes Zeichen
  888 D4CC  FE 03       	CP	3
  889 D4CE  28 36       	JR	Z,TYPE10	; CAOS-Ende
  890 D4D0  FE 1A       	CP	1AH
  891 D4D2  28 32       	JR	Z,TYPE10	; CP/M-Ende
  892 D4D4  FE 20       	CP	20H
  893 D4D6  30 1C       	JR	NC,TYPE8	; ASCII-Zeichen
  894 D4D8  FE 0A       	CP	LF
  895 D4DA  28 18       	JR	Z,TYPE8
  896 D4DC  FE 0D       	CP	CR
  897 D4DE  28 14       	JR	Z,TYPE8
  898 D4E0  FE 09       	CP	9		; TAB in Space umwandeln
  899 D4E2  20 0E       	JR	NZ,TYPE7	; andere Steuerzeichen als Punkt anzeigen
  900 D4E4  3E 20       TYPE6:	LD	A,' '
  901 D4E6  CD F3BB     	CALL	OCHR
  902 D4E9  3A B7A0     	LD	A,(CURSO)
  903 D4EC  E6 07       	AND	7		; TAB-Stopp alle 8 Zeichen
  904 D4EE  20 F4       	JR	NZ,TYPE6
  905 D4F0  18 05       	JR	TYPE9
  906                   	;
  907 D4F2  3E 2E       TYPE7:	LD	A,'.'		; statt Steuerzeichen anzeigen
  908 D4F4  CD F3BB     TYPE8:	CALL	OCHR
  909 D4F7  3A B7A1     TYPE9:	LD	A,(CURSO+1)
  910 D4FA  3C          	INC	A
  911 D4FB  21 B79F     	LD	HL,WINLG+1
  912 D4FE  BE          	CP	(HL)		; Seite voll?
  913 D4FF  20 BB       	JR	NZ,TYPE2
  914 D501  CD D5C7     	CALL	TDUP2		; Eingabe abwarten
  915 D504  20 AE       	JR	NZ,TYPE1	; auf neuer Seite weiter anzeigen
  916 D506  CD F4C4     TYPE10:	CALL	CRLF		; noch eine neue Zeile nach dem Text
SLR180 SuperFast Relocating Macro Assembler     			    SLR180 1.31 Page  75
CD48    INC

  917 D509  18 11       	JR	FCLOSE		; Datei schliessen
  918                   ;
  919                   ; Hexadezimele Dateianzeige einer beliebigen Datei (nicht fuer TAPE-Modus)
  920                   ;
  921 D50B  7F7F        DUMP7F:	DW	7F7FH
  922 D50D  44 55 4D 50 	DB	'DUMP'
  923 D511  1F          	DB	1FH		; Textargument zulaessig (Dateiname)
  924 D512  CD D5AB     	CALL	TDUP1		; Dateiname in HL
  925 D515  D8          	RET	C		; TAPE oder BRK
  926 D516  CD E4E1     	CALL	PV7		; HL = Dateiname
  927 D519  04          	DB	4		; ISRI (ersten Block einlesen)
  928 D51A  30 23       	JR	NC,DUMP4	; kein Fehler aufgetreten
  929 D51C  CD E4E1     FCLOSE:	CALL	PV7		; Datei schliessen
  930 D51F  05          	DB	5		; CSRI
  931 D520  CD E4D8     	CALL	CLC		; Kassettenpuffer loeschen
  932 D523  3A B780     	LD	A,(ARGC)	; urspruenglichen ROM-C Schaltzustand 
  933 D526  32 B805     	LD	(MODST+5),A	; wieder eintragen
  934 D529  C3 FB87     	JP	COFF		; und so schalten -> DUMP-Ende
  935                   	;
  936 D52C  CD E0AA     DUMP2:	CALL	CLSX		; CLS Bildschirm, damit nicht zu Druckprotokoll!
  937 D52F  3E 0A       	LD	A,LF
  938 D531  CD E0AC     	CALL	CRT		; oben eine Zeile frei lassen
  939 D534  7B          DUMP3:	LD	A,E
  940 D535  FE 80       	CP	80h		; Ende Kassettenpuffer erreicht?
  941 D537  20 09       	JR	NZ,DUMP5	; nein, weiter anzeigen
  942 D539  CD E4E1     	CALL	PV7		; naechsten Block einlesen mit
  943 D53C  01          	DB	1		; MBI
  944 D53D  38 DD       	JR	C,FCLOSE	; Fehler
  945 D53F  11 B700     DUMP4:	LD	DE,CASS		; Kassettenpuffer zur Entnahme der Daten
  946 D542  EB          DUMP5:	EX	DE,HL
  947 D543  CD F3A2     	CALL	SPACE		; Zeile mit Leerzeichen beginnen
  948 D546  0E 08       	LD	C,8		; 8 Bytes
  949 D548  CD D7AF     	CALL	DPME0		; Anzeigen mit der Display-Rutine
  950 D54B  EB          	EX	DE,HL
  951 D54C  CD F4C4     	CALL	CRLF		; neue Zeile
  952 D54F  3A B7A1     	LD	A,(CURSO+1)
  953 D552  3C          	INC	A
  954 D553  21 B79F     	LD	HL,WINLG+1
  955 D556  BE          	CP	(HL)		; Seite voll?
  956 D557  20 DB       	JR	NZ,DUMP3	; nein, weiter anzeigen
  957 D559  CD D5C7     	CALL	TDUP2		; Eingabe abwarten
  958 D55C  28 BE       	JR	Z,FCLOSE	; BRK -> Datei schliessen und Ende
  959 D55E  18 CC       	JR	DUMP2
  960                   ;
  961                   ; Abarbeitung von Kommandos aus einer Datei INITIAL.UUU wie F-Tastencode
  962                   ; Laufwerksangabe wird hier nicht mehr unterstuetzt, das macht DEP 3.x
  963                   ; Ablage und Abarbeitung auf Adresse 100h
  964                   ; Dateigroesse max. 1 Block = 128 Byte !
  965                   ;
  966 D560  7F7F        	DW	7F7FH
  967 D562  49 4E 49 54 	DB	'INIT'
  968 D566  1F          	DB	1FH		; Textargument zulaessig (Dateiname)
  969 D567  1A          	LD	A,(DE)		; Parameter in Kommandozeile
  970 D568  E6 DF       	AND	0DFH		; angegeben?
  971 D56A  20 03       	JR	NZ,INIT1	; ja, diesen verwenden
  972 D56C  11 EDEB     	LD	DE,UUU		; ansonsten Standard-Dateiname INITIAL.UUU
  973 D56F  CD D5AB     INIT1:	CALL	TDUP1		; Dateiname in HL
  974 D572  D8          	RET	C		; TAPE oder BRK
SLR180 SuperFast Relocating Macro Assembler     			    SLR180 1.31 Page  76
CD48    INC

  975 D573  CD E4E1     	CALL	PV7		; HL = Dateiname
  976 D576  04          	DB	4		; ISRI (ersten Block einlesen)
  977 D577  38 A3       	JR	C,FCLOSE	; Fehler aufgetreten
  978 D579  21 B700     	LD	HL,CASS		; Daten aus Kassettenpuffer
  979 D57C  11 A880     	LD	DE,INITU	; hier aufbereiten zur Abarbeitung (A880h)
  980 D57F  7E          INIT2:	LD	A,(HL)		; Zeichen
  981 D580  A7          	AND	A
  982 D581  28 13       	JR	Z,INIT3		; 00 ignorieren
  983 D583  FE 03       	CP	3
  984 D585  28 15       	JR	Z,INIT4		; CAOS-Ende
  985 D587  FE 0A       	CP	0AH
  986 D589  28 0B       	JR	Z,INIT3		; LF ignorieren
  987 D58B  FE 1A       	CP	1AH
  988 D58D  28 0D       	JR	Z,INIT4		; CP/M-Ende
  989 D58F  12          	LD	(DE),A		; Zeichen ablegen
  990 D590  1C          	INC	E		; Ziel +1
  991 D591  7B          	LD	A,E
  992 D592  FE 7F       	CP	7FH
  993 D594  28 06       	JR	Z,INIT4		; Pufferende erreicht
  994 D596  2C          INIT3:	INC	L		; Quelle +1
  995 D597  7D          	LD	A,L
  996 D598  FE 80       	CP	80H		; Pufferende?
  997 D59A  20 E3       	JR	NZ,INIT2	; weitere Zeichen bearbeiten
  998 D59C  AF          INIT4:	XOR	A
  999 D59D  12          	LD	(DE),A		; Ende-Kennung anhaengen
 1000 D59E  21 A880     	LD	HL,INITU	; Ablage hier (bei DEP 3.2/3.3 noch ab 100h)
 1001 D5A1  22 B7D1     	LD	(FTAST),HL	; Aktivierung als ob es
 1002 D5A4  DD CB 08 F6 	SET	6,(IX+8)	; eine Funktionstaste waere
 1003 D5A8  C3 D51C     	JP	FCLOSE		; Datei schliessen, CAOS ROM-C wie vorher
 1004                   ;
 1005                   ; UP1 fuer TYPE, DUMP, INIT, ERA: Vorbereitung fuer Datei oeffnen
 1006                   ; PA:	CY=1	Fehler (DEVICE=0 oder BRK)
 1007                   ;
 1008 D5AB  CD ED6D     TDUP1:	CALL	DEV		; DEVICE?
 1009 D5AE  37          	SCF			; Fehlerkennung
 1010 D5AF  C8          	RET	Z		; bei TAPE macht das keinen Sinn...
 1011 D5B0  EB          	EX	DE,HL
 1012 D5B1  7E          	LD	A,(HL)		; erstes Zeichen nach Menuewort holen
 1013 D5B2  E6 DF       	AND	0DFH
 1014 D5B4  CC F563     	CALL	Z,NAME		; Dateiname abfragen falls nicht angegeben
 1015 D5B7  D8          	RET	C		; mit BRK abgebrochen
 1016 D5B8  CD F542     	CALL	KPUFF		; Standardpuffer setzen
 1017 D5BB  3A B805     	LD	A,(MODST+5)	; Schaltzustand Moduladresse 5 (ROM C)
 1018 D5BE  32 B780     	LD	(ARGC),A	; hier merken (zeigt sonst USER-ROM-Zustand an)
 1019 D5C1  3E 01       	LD	A,1		; und voruebergehend fest einschalten
 1020 D5C3  32 B805     	LD	(MODST+5),A
 1021 D5C6  C9          	RET
 1022                   ;
 1023                   ; UP2 fuer TYPE+DUMP: Eingabe bei Seitenende
 1024                   ; PA:	Z=1	BRK
 1025                   ;
 1026 D5C7  CD F3D5     TDUP2:	CALL	INTB
 1027 D5CA  FE 03       	CP	3		; BRK?
 1028 D5CC  C8          	RET	Z		; ja, Datei schliessen und Ende
 1029 D5CD  FE 0F       	CP	0FH		; Hardcopy?
 1030 D5CF  C0          	RET	NZ
 1031 D5D0  CD F3BB     	CALL	OCHR		; Hardcopy zulassen
 1032 D5D3  18 F2       	JR	TDUP2
SLR180 SuperFast Relocating Macro Assembler     			    SLR180 1.31 Page  77
CD48    INC

 1033                   
 1034                   ; DEVICE einstellen, abfragenn oder anzeigen
 1035                   ; PE:	A = Geraetecode 0..7
 1036                   ;		0	Kassette - Standard
 1037                   ;		1	Diskette - D004/D008
 1038                   ;		2	USB (M052)
 1039                   ;		3-7	Anwender-Treiber
 1040                   ;	A = 8-FD	aktuellen Treiber abfragen (ohne Anzeige)
 1041                   ;	A = FE		aktuellen Treiber anzeigen
 1042                   ;	A = FF		Auflisten aller Treiber
 1043                   ; PA:	CY=1	ausgewaehlter Treiber nicht aktiv
 1044                   ;   bei CY=0:	HL	Name des aktuellen Treibers
 1045                   ;		A	Nummer des aktuellen Treibers (0..7)
 1046                   ;	und	Z=1	Treiber ist Kassette
 1047                   ; VR:	AF,BC,DE,HL
 1048                   
 1049 D5D5  FE 08       SET_DD:	CP	8
 1050 D5D7  30 19       	JR	NC,SETD1
 1051                   ; bei A=0..7 neues DEVICE einstellen
 1052 D5D9  4F          	LD	C,A		; Nr. zum Vergleich merken
 1053 D5DA  87          	ADD	A,A
 1054 D5DB  87          	ADD	A,A		; nach Bits 2..4
 1055 D5DC  DD AE 08    	XOR	(IX+8)
 1056 D5DF  E6 1C       	AND	00011100b	; Bits 0..1 und 5..7 zuruecksetzen
 1057 D5E1  DD AE 08    	XOR	(IX+8)		; a = (a XOR b) XOR b fuer Bits 2..4
 1058 D5E4  47          	LD	B,A		; vorbereiteter neuer Wert fuer IX+8
 1059 D5E5  CD ED70     	CALL	DEVROT		; die benoetigten Bits nach 5-7 rotieren
 1060 D5E8  26 A9       	LD	H,High(DEVTAB)	; = A900H
 1061 D5EA  6F          	LD	L,A
 1062 D5EB  7E          	LD	A,(HL)		; Aktivierungsbyte
 1063 D5EC  B9          	CP	C		; aktiver Treiber?
 1064 D5ED  37          	SCF			; Fehlerflag
 1065 D5EE  C0          	RET	NZ		; nein, dann nicht umstellen!
 1066 D5EF  DD 70 08    	LD	(IX+8),B	; neuen Treiber jetzt eintragen
 1067                   	;
 1068 D5F2  FE FF       SETD1:	CP	0FFH
 1069 D5F4  CC D618     	CALL	Z,DLI3		; FF = alle Treiber anzeigen
 1070 D5F7  FE FE       	CP	0FEH
 1071 D5F9  CC D609     	CALL	Z,DLIST		; FE = aktuellen Treiber anzeigen
 1072 D5FC  CD ED6D     GETDRV:	CALL	DEV		; aktuelle DEVICE-Nr.*32 ermitteln
 1073 D5FF  26 A9       	LD	H,High(DEVTAB)
 1074 D601  6F          	LD	L,A
 1075 D602  CB D5       	SET	2,L		; HL zeigt jetzt auf den Namen
 1076 D604  07          	RLCA
 1077 D605  07          	RLCA			; Device-Nummer nach 0-7 konvertieren
 1078 D606  07          	RLCA
 1079 D607  B7          	OR	A		; CY=0 und Z=1 bei TAPE
 1080 D608  C9          	RET
 1081                   
 1082                   ; aktuellen Treiber anzeigen (4 Zeichen):
 1083                   
 1084 D609  CD D5FC     DLIST:	CALL	GETDRV		; DEVICE abfragen
 1085 D60C  06 04       DLI1:	ld	b,4		; 4 Zeichen
 1086 D60E  7E          DLI2:	ld	a,(hl)
 1087 D60F  23          	inc	hl
 1088 D610  FE 20       	cp	20h		; keine Steuerzeichen!
 1089 D612  D4 F3BB     	call	nc,ochr		; Name des Treibers anzeigen
 1090 D615  10 F7       	djnz	DLI2
SLR180 SuperFast Relocating Macro Assembler     			    SLR180 1.31 Page  78
CD48    INC

 1091 D617  C9          	ret
 1092                   
 1093                   ; alle Treiber auflisten:
 1094                   
 1095 D618  F5          DLI3:	PUSH	AF
 1096 D619  21 A900     	ld	hl,devtab	; Treiber-Tabelle = A900h
 1097 D61C  4D          	ld	c,l		; Beginne mit Treiber Nr. 0
 1098 D61D  7E          DLI4:	ld	a,(hl)		; Treibernummer
 1099 D61E  B9          	cp	c		; Treiber aktiviert?
 1100 D61F  20 12       	jr	nz,DLI5
 1101 D621  23          	inc	hl
 1102 D622  23          	inc	hl
 1103 D623  23          	inc	hl
 1104 D624  23          	inc	hl		; Zeiger auf String
 1105 D625  CD F3B3     	CALL	AHEX0		; Geraetenummer einstellig anzeigen
 1106 D628  3E 3D       	LD	A,'='
 1107 D62A  CD F3BB     	CALL	OCHR
 1108 D62D  CD D60C     	CALL	DLI1		; Treiber-Name anzeigen
 1109 D630  CD F4C4     	call	CRLF
 1110 D633  7D          DLI5:	ld	a,l
 1111 D634  F6 1F       	or	31
 1112 D636  3C          	inc	a
 1113 D637  6F          	ld	l,a		; weiter zum naechsten Treiber
 1114 D638  0C          	inc	c		; Nr. erhoehen
 1115 D639  79          	ld	a,c
 1116 D63A  FE 08       	cp	8
 1117 D63C  20 DF       	jr	nz,DLI4		; Bis alle 8 Treiber erreicht sind
 1118 D63E  F1          	POP	AF
 1119 D63F  C9          	ret
 1120                   
 1121                   ; Laufwerkwechsel per ESC-D:
 1122                   
 1123 D640  CD F4C4     ESCDD:	CALL	CRLF		; neue Zeile
 1124 D643  CD D618     	CALL	DLI3		; Treiber auflisten
 1125 D646  CD F0B4     DLI6:	CALL	OSTR
 1126 D649  02 3F 00    	DB	2,'?',0		; Eingabeaufforderung anzeigen
 1127 D64C  CD F3DB     	CALL	KBD		; Tastatureingabe
 1128 D64F  FE 30       	CP	'0'
 1129 D651  38 F3       	JR	C,DLI6		; Eingabewert zu klein!
 1130 D653  FE 38       	CP	'8'
 1131 D655  30 EF       	JR	NC,DLI6		; zu gross
 1132 D657  F5          	push	af
 1133 D658  E6 0F       	AND	0FH
 1134 D65A  CD D5D5     	CALL	SET_DD		; Treiber einstellen
 1135 D65D  30 03       	jr	nc,DLI7		; kein Fehler
 1136 D65F  F1          	pop	af
 1137 D660  18 E4       	jr	DLI6		; wiederholen
 1138                   	;
 1139 D662  F1          DLI7:	pop	af
 1140 D663  CD F3BB     	call	OCHR		; anzeigen
 1141 D666  C3 F4C4     	jp	crlf		; neue Zeile
 1142                   ;
 1143                   ; Floppy-Treiber Funktion 1: Laufwerkwechsel (DEP 2.0)
 1144                   ; PE:	DE	Zeichenkette neues Laufwerk
 1145                   ;	(DE)=0	Anzeige aktuelles Laufwerk
 1146                   ; PA:	CY=1	Fehler
 1147                   ;
 1148 D669  01 83F1     DRIVE:	LD	BC,DEPVER	; 083F1H
SLR180 SuperFast Relocating Macro Assembler     			    SLR180 1.31 Page  79
CD48    INC

 1149 D66C  ED 78       	IN	A,(C)
 1150 D66E  FE 20       	CP	20H		; DEP ab 2.0?
 1151 D670  30 13       	JR	NC,DRIVE1	; OK, Laufwerkwechsel moeglich
 1152 D672  CD F0B4     	CALL	OSTR
 1153 D675  4B 65 69 6E 	DB	'Kein DEP2!',7,CR,LF,0
 1154 D683  37          	SCF
 1155 D684  C9          	RET
 1156                   	;
 1157 D685  3E 01       DRIVE1:	LD	A,1		; aktuelles Laufwerk/USER lesen
 1158 D687  CD D185     	CALL	STEUB2
 1159 D68A  1A          	LD	A,(DE)		; erstes Zeichen testen
 1160 D68B  E6 DF       	AND	0DFH		; 00h oder 20h?
 1161 D68D  20 29       	JR	NZ,DRIVE3	; mit Argument aufgerufen!
 1162 D68F  CD F0B4     	CALL	OSTR
 1163 D692  44 72 69 76 	DB	'Drive:',0
 1164 D699  01 81F1     	LD	BC,LWANF	; 081F1H
 1165 D69C  ED 78       	IN	A,(C)
 1166 D69E  CD F3BB     	CALL	OCHR		; Laufwerksbuchstabe anzeigen
 1167 D6A1  04          	INC	B		; 082F1H
 1168 D6A2  ED 68       	IN	L,(C)		; aktueller User-Bereich
 1169 D6A4  26 00       	LD	H,0
 1170 D6A6  CD EDA4     	CALL	HLDEZ		; Userbereich dezimal anzeigen
 1171 D6A9  3E 06       	LD	A,6
 1172 D6AB  32 B7A0     	LD	(CURSO),A
 1173 D6AE  CD F47E     	CALL	INLIN		; Eingabe
 1174 D6B1  3F          	CCF
 1175 D6B2  D0          	RET	NC		; BRK
 1176 D6B3  21 0006     	LD	HL,6
 1177 D6B6  19          	ADD	HL,DE
 1178 D6B7  EB          	EX	DE,HL		; Zeichenkette in DE
 1179 D6B8  1A          DRIVE3:	LD	A,(DE)
 1180 D6B9  A7          	AND	A		; leer?
 1181 D6BA  C8          	RET	Z		; nichts angegeben
 1182 D6BB  01 81F1     	LD	BC,LWANF	; 081F1H
 1183 D6BE  CD F539     	CALL	UPCASE
 1184 D6C1  FE 41       	CP	'A'
 1185 D6C3  38 07       	JR	C, DRIVE4	; kleiner als "A", dann nur USER-Bereich?
 1186 D6C5  ED 79       	OUT	(C),A		; neuen LW-Code eintragen
 1187 D6C7  13          	INC	DE		; weiter zum zweiten Zeichen
 1188 D6C8  1A          	LD	A,(DE)
 1189 D6C9  A7          	AND	A		; USER mit angegeben?
 1190 D6CA  28 0E       	JR	Z,DRIVE5	; nein
 1191 D6CC  CD F4D3     DRIVE4:	CALL	RDEZ		; Dezimalzahl erfassen
 1192 D6CF  DA F4BA     	JP	C,ERRM		; Zahl fehlerhaft
 1193 D6D2  3A B797     	LD	A,(NUMVX)	; Wert der erfassten Zahl
 1194 D6D5  01 82F1     	LD	BC,UANF		; 082F1H
 1195 D6D8  ED 79       	OUT	(C),A		; neue USER-Nr. eintragen
 1196 D6DA  3E 07       DRIVE5:	LD	A,7		; LW+User anfordern
 1197 D6DC  CD D185     	CALL	STEUB2		; Stack-Unwinding:
 1198 D6DF  C9          	RET			; nicht in JP umwandeln!
 1199                   
 1200                   ; Geraetetreiber-Funktion aufrufen
 1201                   ; PE:	A	Funktionsnummer
 1202                   ;		0 = DIR bzw. TAPELIST
 1203                   ;		1 = DRIVE oder CD
 1204                   ;		2 = ERA (Datei loeschen)
 1205                   ;		3 = REN (Datei umbenennen)
 1206                   ;		?? (SETWR, SETRO)
SLR180 SuperFast Relocating Macro Assembler     			    SLR180 1.31 Page  80
CD48    INC

 1207                   ;	DE	Dateiname bzw. Maske
 1208                   ; PA:		entsprechend Treiber
 1209                   ; VR:	AF,BC,DE,HL
 1210                   
 1211 D6E0  E6 03       FKT_DD:	and	3		; nur Treiberfunktionen 0..3 definiert
 1212 D6E2  4F          	ld	c,a
 1213 D6E3  CD ED6D     	CALL	DEV		; DEVICE-Nr. in Bit 2-4
 1214 D6E6  81          	add	a,c		; FKT-Nummer dazu
 1215 D6E7  81          	add	a,c
 1216 D6E8  4F          	ld	c,a
 1217 D6E9  06 00       	ld	b,0
 1218 D6EB  21 A918     	ld	HL,DEVTAB+24	; DIR-Kommando des jeweiligen Treibers
 1219 D6EE  09          	ADD	HL,BC
 1220 D6EF  7E          	LD	A,(HL)
 1221 D6F0  23          	INC	HL
 1222 D6F1  66          	LD	H,(HL)		; Aus Treibertabelle ermitteln
 1223 D6F2  6F          	LD	L,A
 1224 D6F3  E9          	JP	(HL)		; und anspringen
 1225                   ;
 1226                   ; TAPELIST = DIR-Kommando fuer Kassette
 1227                   ;
 1228 D6F4  CD F0B4     TLIST:	CALL	OSTR
 1229 D6F7  54 61 70 65 	DB	'Tape-Directory:',CR,LF,0
 1230 D709  21 0000     	ld	hl,0
 1231 D70C  22 B797     	ld	(NUMVX),hl	; Zaehler fuer angezeigte Dateien
 1232 D70F  DB 88       	IN	A,(PIOAD)
 1233 D711  F6 40       	OR	01000000b	; Motor ein
 1234 D713  D3 88       	OUT	(PIOAD),A
 1235 D715  3E 0A       	LD	A,10
 1236 D717  CD FC24     	CALL	WAIT		; 60ms warten (Bandanlauf)
 1237 D71A  CD F542     	CALL	KPUFF		; Standard-Puffer einstellen
 1238 D71D              TLW:	;LD	(IX+3),1	; Block Nr. 1 erwarten
 1239 D71D  CD D074     	CALL	TMBI		; MBI im TAPE-Modus direkt aufrufen
 1240 D720  38 4B       	JR	C,TLBRK		; Fehler aufgetreten
 1241 D722  DD 7E 02    	LD	A,(IX+2)	; gelesene Blocknummer
 1242 D725  B7          	OR	A
 1243 D726  28 08       	JR	Z,TL01		; Block Nr. 0 erkannt
 1244 D728  3D          	DEC	A
 1245 D729  28 05       	JR	Z,TL01		; Block Nr. 1 gefunden
 1246 D72B  CD F63C     BL0:	CALL	BLNOT		; falsche Blocknummer mit * anzeigen
 1247 D72E  18 3D       	JR	TLBRK
 1248                   	;
 1249 D730  06 0B       TL01:	LD	B,11		; maximal 11 Zeichen
 1250                   				; (da bei BASIC ab dem 12. Zeichen Daten stehen)
 1251 D732  CD F670     	CALL	TLNAME		; Name aus Vorblock anzeigen
 1252 D735  2A B797     	ld	hl,(NUMVX)
 1253 D738  23          	inc	hl		; angezeigte Dateien mitzaehlen
 1254 D739  22 B797     	ld	(NUMVX),HL
 1255 D73C  3A B710     	LD	A,(CASS+10H)	; Anzahl der Argumente
 1256 D73F  D6 02       	SUB	2
 1257 D741  FE 08       	CP	8		; 2 bis 10 Argumente?
 1258 D743  30 1A       	JR	NC,TLNO		; keine MC-Datei!
 1259 D745  3E 0C       	LD	A,12
 1260 D747  32 B7A0     	LD	(CURSO),A	; Adressen immer ab Spalte 12 anzeigen
 1261 D74A  2A B711     	LD	HL,(CASS+11H)	; AADR
 1262 D74D  ED 5B B713  	LD	DE,(CASS+13H)	; EADR+1
 1263 D751  CD F392     	CALL	HLDE		; Anfangsadresse und Endadresse anzeigen
 1264 D754  2A B715     	LD	HL,(CASS+15H)	; SADR
SLR180 SuperFast Relocating Macro Assembler     			    SLR180 1.31 Page  81
CD48    INC

 1265 D757  3A B710     	LD	A,(CASS+10H)
 1266 D75A  FE 03       	CP	3
 1267 D75C  D4 F39A     	CALL	NC,HLHX		; Startadresse anzeigen
 1268 D75F  CD F4C4     TLNO:	CALL	CRLF		; Zeilenvorschub nach Dateiname + Adressen
 1269 D762  DD 7E 02    	LD	A,(IX+2)
 1270 D765  B7          	OR	A		; wurde Name aus Block Nr. 00 angezeigt?
 1271 D766  20 05       	JR	NZ,TLBRK	; nein
 1272 D768  CD D074     	CALL	TMBI		; naechsten Block 01 lesen
 1273 D76B  18 BE       	JR	BL0		; mit * anzeigen
 1274                   	;
 1275 D76D  CD F664     TLBRK:	CALL	BRKT
 1276 D770  30 AB       	JR	NC,TLW		; wiederholen bis BRK gedrueckt wird
 1277 D772  2A B797     TLX:	ld	hl,(NUMVX)	; Anzahl Dateien zurueck geben
 1278 D775  E5          	PUSH	HL
 1279 D776  CD EDA4     	CALL	HLDEZ		; dezimal anzeigen
 1280 D779  CD F0B4     	CALL	OSTR
 1281 D77C  20 44 61 74 	DB	' Dateien.',CR,LF,0
 1282 D788  E1          	POP	HL
 1283                   ;	IN	A,(PIOAD)
 1284                   ;	AND	10011111b	; Motor+LED aus
 1285                   ;	OUT	(PIOAD),A
 1286                   ;	RET
 1287                   ;
 1288                   ; Kassette ein/aus (CD im Tape-Mode)
 1289                   ;
 1290 D789  DB 88       MOT:	IN	A,(PIOAD)
 1291 D78B  EE 40       	XOR	01000000b	; Motor ein/aus
 1292 D78D  D3 88       	OUT	(PIOAD),A
 1293 D78F  C9          	RET
 1294                   ;
 1295                   ; BASIC-Dateiname ab NAME im Format 8.3 kopieren
 1296                   ;
 1297                   ; PE:	HL	Zeiger auf Dateiname im BASIC-Format = SSSName
 1298                   ;
 1299                   ; PA:	FNAME	Dateiname 8.3-Format = Name.SSS
 1300                   ;
 1301                   ; VR:	BC, AF
 1302                   ;
 1303 D790  E5          BNAME:	PUSH	HL
 1304 D791  D5          	PUSH	DE
 1305 D792  E5          	push	hl		; Beginn Dateityp merken
 1306 D793  23          	inc	hl
 1307 D794  23          	inc	hl
 1308 D795  23          	inc	hl		; mit Name beginnen
 1309 D796  11 B7F5     	ld	de,FNAME	; Ablage Dateiname im IRM
 1310 D799  01 0008     	ld	bc,8
 1311 D79C  ED B0       	ldir			; Name direkt kopieren
 1312 D79E  E1          	pop	hl
 1313 D79F  06 03       	ld	b,3
 1314 D7A1  7E          bnam2:	ld	a,(hl)
 1315 D7A2  23          	inc	hl
 1316 D7A3  E6 7F       	and	7fh		; bei Dateityp Bit 7 ruecksetzen
 1317 D7A5  12          	ld	(de),a
 1318 D7A6  13          	inc	de
 1319 D7A7  10 F8       	djnz	bnam2
 1320 D7A9  D1          	POP	DE
 1321 D7AA  E1          	POP	HL
 1322 D7AB  C9          	RET
SLR180 SuperFast Relocating Macro Assembler     			    SLR180 1.31 Page  82
CD48    INC

 1323                   
 1324                   ; Ausgabe einer Displayzeile
 1325                   ; HL=Adresse, C=Anzahl Bytes
 1326                   
 1327 D7AC  CD F39A     DPMEMO:	CALL	HLHX		; Adresse
 1328 D7AF  E5          DPME0:	PUSH	HL		; Hier Einsprung von DUMP-Routine
 1329 D7B0  41          	LD	B,C
 1330 D7B1  CD FB6E     DPME1:	CALL	LDAME		; Byte holen
 1331 D7B4  23          	INC	HL
 1332 D7B5  CD F39F     	CALL	AHSPC		; anzeigen
 1333 D7B8  10 F7       	DJNZ	DPME1		; C*
 1334 D7BA  E1          	POP	HL
 1335 D7BB  41          	LD	B,C
 1336 D7BC  3E 09       	LD	A,9
 1337 D7BE  CD F3BB     	CALL	OCHR		; CUR
 1338 D7C1  CD FB6E     DPME2:	CALL	LDAME		; Byte holen
 1339 D7C4  23          	INC	HL
 1340 D7C5  CD E391     	CALL	CSTBT		; als ASCII
 1341 D7C8  10 F7       	DJNZ	DPME2		; C*
 1342 D7CA  C9          	RET
 1343                   
 1344                   ; Grafiksteuersequenzen fuer die Drucker
 1345                   
 1346 D7CB  0A          C6313:	DB	10		; Laenge
 1347 D7CC  0D 09       	DB	CR,9
 1348 D7CE  1B 4A 18    	DB	ESC,'J',24
 1349 D7D1  1B 2A 05    	DB	ESC,'*',5
 1350 D7D4  0140        	DW	320
 1351                   
 1352 D7D6  0A          C6314:	DB	10		; Laenge
 1353 D7D7  0D 09       	DB	CR,9
 1354 D7D9  1B 4A 18    	DB	ESC,'J',24
 1355 D7DC  1B 2A 05    	DB	ESC,'*',5
 1356 D7DF  0280        	DW	640
 1357                   
 1358 D7E1  0E          C6311:	DB	14		; Laenge
 1359 D7E2  1B 5B 30 31 	DB	ESC,'[01e'
 1360 D7E7  1B 5B 31 32 	DB	ESC,'[12`'
 1361 D7EC  1B 4B       	DB	ESC,'K'
 1362 D7EE  0140        	DW	320
 1363                   
 1364 D7F0  0E          C6312:	DB	14		; Laenge
 1365 D7F1  1B 5B 30 31 	DB	ESC,'[01e'
 1366 D7F6  1B 5B 31 32 	DB	ESC,'[12`'
 1367 D7FB  1B 4B       	DB	ESC,'K'
 1368 D7FD  0280        	DW	640
 1369                   
 1370 D7FF  09          C6304:	DB	9		; Laenge
 1371 D800  0D 09       	DB	CR,9
 1372 D802  1B 4A 18    	DB	ESC,'J',24
 1373 D805  1B 4B       	DB	ESC,'K'
 1374 D807  0140        	DW	320
 1375                   
 1376 D809  0A          CMINI:	DB	10		; Laenge
 1377 D80A  0D 09       	DB	CR,9
 1378 D80C  1B 4A 18    	DB	ESC,'J',24
 1379 D80F  1B 2A 27    	DB	ESC,'*',39
 1380 D812  0140        	DW	320
SLR180 SuperFast Relocating Macro Assembler     			    SLR180 1.31 Page  83
CD48    INC

 1381                   
 1382 D814  0A          C24N1:	DB	10		; Laenge
 1383 D815  0D 09       	DB	CR,9
 1384 D817  1B 4A 18    	DB	ESC,'J',24
 1385 D81A  1B 2A 00    	DB	ESC,'*',0
 1386 D81D  0140        	DW	320
 1387                   
 1388 D81F  0A          C24N2:	DB	10		; Laenge
 1389 D820  0D 09       	DB	CR,9
 1390 D822  1B 4A 18    	DB	ESC,'J',24
 1391 D825  1B 2A 27    	DB	ESC,'*',39
 1392 D828  03C0        	DW	960
 1393                   
 1394                   ; V.24-Tabellen, zum Kopieren in den IRM ab A800H:
 1395                   
 1396 D82A  00          V24TAB:	DB	0		; Steckplatz M003 (Aktualisierung durch Suche)
 1397                   
 1398                   ; Kanal 1 - Druckerausgabe (9600 Baud)
 1399 D82B  47          	DB	01000111b	; CTC: DI, Zaehler, neg. Flanke, RESET
 1400 D82C  5B          	DB	91		; Zeitkonstante
 1401 D82D  04 04       	DB	4,00000100b	; WR4: Vorteiler=1, 1 Stop-Bit, ohne Paritaet
 1402 D82F  03 20       	DB	3,00100000b	; WR3: Empfaenger aus, CTS+DCD-Steuerung
 1403 D831  05 6A       	DB	5,01101010b	; WR5: Sender ein, 8Bit, /DTR=1, RTS=1
 1404                   
 1405                   ; Kanal 2 - Duplex (1200 Baud)
 1406 D833  47          	DB	01000111b	; CTC: DI, Zaehler, neg. Flanke, RESET
 1407 D834  2E          	DB	46		; Zeitkonstante
 1408 D835  18          	DB	00011000b	; Port-RESET
 1409 D836  04 44       	DB	4,01000100b	; WR4: Vorteiler=16, 1 Stop-Bit, ohne Paritaet
 1410 D838  03 E1       	DB	3,11100001b	; WR3: Empfaenger ein, 8Bit, CTS+DCD-Steuerung
 1411 D83A  05 6A       	DB	5,01101010b	; WR5: Sender ein, 8Bit, /DTR=1, RTS=1
 1412                   
 1413                   ; Initialisierung SIO-B fuer Empfangs-Interrupt (1200 Baud):
 1414                   
 1415 D83C  02          V24UMT:	DB	2		; 2 Ports
 1416 D83D  0D 02       	 DB	0Dh,2		; CTC1
 1417 D83F  47          	  DB	01000111b	; DI, Zaehler, neg. Flanke, ZK folgt, RESET
 1418 D840  2E          	  DB	46		; Zeitkonstante
 1419 D841  0B 0B       V24INT:	 DB	0Bh,11		; SIO-B Steuerwort
 1420 D843  18          	  DB	00011000b	; Port-RESET
 1421 D844  02 E2       	  DB	2,0E2h		; WR2: INT-Vektor
 1422 D846  04 44       	  DB	4,01000100b	; WR4: Vorteiler=16, 1 Stop-Bit, ohne Paritaet
 1423 D848  03 E1       	  DB	3,11100001b	; WR3: Empfaenger ein, 8Bit, CTS/DCD-Steuerung
 1424 D84A  05 EA       	  DB	5,11101010b	; WR5: Sender ein, 8Bit, /DTR=0 (bereit), RTS=1
 1425 D84C  11 18       	  DB	11h,00011000b	; WR1: Interrupt bei Zeichenempfang
 1426                   
 1427                   ; Initialisierung SIO-B fuer Polling-Betrieb:
 1428                   
 1429 D84E  0B 07       V24POL:	DB	0Bh,7		; SIO-B Steuerwort, 7 Byte
 1430 D850  18          	 DB	00011000b	; Port RESET
 1431 D851  04 44       	 DB	4,01000100b	; Vorteiler 16, 1 Stop-Bit, ohne Paritaet
 1432 D853  03 E1       	 DB	3,11100001b	; Empfaenger ein, 8 Bit, CTS/DCD-Steuerung
 1433 D855  05 6A       	 DB	5,01101010b	; Sender ein, 8 Bit, DTR aus, RTS ein
 1434                   ;
 1435                   ; Unterprogrammtabelle (wird seit CAOS 4.6 in IRM kopiert):
 1436                   ;
 1437 D857  4D          	DB	(SUEND-SUTB)/2	; Laenge der SUTAB bzw. erste unbenutzte UP-Nr.
 1438 D858  E0AC        SUTB:	DW	CRT	; 00
SLR180 SuperFast Relocating Macro Assembler     			    SLR180 1.31 Page  84
CD48    INC

 1439 D85A  FC06        	DW	MBO	; 01
 1440 D85C  B7BD        	DW	UOUT1	; 02
 1441 D85E  B7C3        	DW	UOUT2	; 03
 1442 D860  F3DB        	DW	KBD	; 04
 1443 D862  FC0B        	DW	MBI	; 05
 1444 D864  B7C0        	DW	UIN1	; 06
 1445 D866  B7C6        	DW	UIN2	; 07
 1446 D868  FC10        	DW	ISRO	; 08
 1447 D86A  FC15        	DW	CSRO	; 09
 1448 D86C  FC1A        	DW	ISRI	; 0A
 1449 D86E  FC1F        	DW	CSRI	; 0B
 1450 D870  E37D        	DW	KBDS	; 0C
 1451 D872  F157        	DW	BYE	; 0D
 1452 D874  E388        	DW	KBDZ	; 0E
 1453 D876  F7BC        	DW	COLR	; 0F
 1454 D878  F6DB        	DW	LOAD	; 10
 1455                   
 1456 D87A  F6C4        	DW	VERIF	; 11
 1457 D87C  F259        	DW	LOOP	; 12
 1458 D87E  F367        	DW	NORM	; 13
 1459 D880  FC24        	DW	WAIT	; 14
 1460 D882  F5F4        	DW	LARG	; 15
 1461 D884  F3D5        	DW	INTB	; 16
 1462 D886  F47E        	DW	INLIN	; 17
 1463 D888  F4CB        	DW	RHEX	; 18 - Erfassung HEX-Wert aus Zeichenkette
 1464 D88A  F4BA        	DW	ERRM	; 19
 1465 D88C  F39A        	DW	HLHX	; 1A
 1466 D88E  F392        	DW	HLDE	; 1B
 1467 D890  F3AA        	DW	AHEX	; 1C
 1468 D892  F33A        	DW	ZSUCH	; 1D
 1469 D894  F36D        	DW	SOUT	; 1E
 1470 D896  F37A        	DW	SIN	; 1F
 1471                   
 1472 D898  F36A        	DW	NOUT	; 20
 1473 D89A  F377        	DW	NIN	; 21
 1474 D89C  F510        	DW	GARG	; 22
 1475 D89E  F0B4        	DW	OSTR	; 23
 1476 D8A0  F3BB        	DW	OCHR	; 24
 1477 D8A2  F814        	DW	CUCP	; 25
 1478 D8A4  F0E5        	DW	MODU	; 26
 1479 D8A6  F109        	DW	JUMP	; 27
 1480 D8A8  E2E9        	DW	LDMA	; 28
 1481 D8AA  E2EB        	DW	LDAM	; 29
 1482 D8AC  F664        	DW	BRKT	; 2A
 1483 D8AE  F3A2        	DW	SPACE	; 2B
 1484 D8B0  F4C4        	DW	CRLF	; 2C
 1485 D8B2  F3A6        	DW	HOME	; 2D
 1486 D8B4  F7DD        	DW	MODI	; 2E
 1487 D8B6  F848        	DW	PUDE	; 2F
 1488                   
 1489 D8B8  F840        	DW	PUSE	; 30
 1490 D8BA  FB7F        	DW	SIXD	; 31
 1491 D8BC  E087        	DW	DABR	; 32
 1492 D8BE  E077        	DW	TCIF	; 33
 1493 D8C0  E067        	DW	PADR	; 34
 1494 D8C2  F8F1        	DW	TON	; 35
 1495 D8C4  F581        	DW	SAVE	; 36
 1496                   	; bis hier in HC900-CAOS, CAOS 2.2 und 2.3 enthalten
SLR180 SuperFast Relocating Macro Assembler     			    SLR180 1.31 Page  85
CD48    INC

 1497 D8C6  F85B        	DW	MBIN	; 37 - Byteweise Eingabe fuer BASIC
 1498 D8C8  F863        	DW	MBOUT	; 38 - Byteweise Ausgabe fuer BASIC
 1499 D8CA  F80F        	DW	KEY	; 39
 1500 D8CC  F809        	DW	KEYLI	; 3A
 1501 D8CE  F7CC        	DW	DISP	; 3B
 1502 D8D0  F7F4        	DW	WININ	; 3C
 1503 D8D2  F7F9        	DW	WINAK	; 3D
 1504                   	; bis hier in CAOS 2.4 und 2.5 enthalten
 1505 D8D4  F856        	DW	LINE	; 3E
 1506 D8D6  F851        	DW	CIRCL	; 3F
 1507                   
 1508 D8D8  ED65        	DW	SQR	; 40
 1509 D8DA  FB9F        	DW	MULT	; 41
 1510 D8DC  E391        	DW	CSTBT	; 42
 1511                   	; bis hier in HC901-CAOS enthalten
 1512 D8DE  F54B        	DW	INIEA	; 43
 1513 D8E0  F55D        	DW	INIME	; 44
 1514 D8E2  F8EB        	DW	ZKOUT	; 45
 1515 D8E4  F1E8        	DW	MENU	; 46
 1516                   	; bis hier in CAOS 3.1, 3.3, 3.4 und OS/PI'88/'90 enthalten
 1517 D8E6  F9C7        	DW	V24OUT	; 47 - Initialisierung Druckerausgabe
 1518 D8E8  F9D6        	DW	V24DUP	; 48 - Initialisierung V.24-Duplexbetrieb
 1519                   	; bis hier in CAOS 4.1 bis 4.5 enthalten
 1520 D8EA  FBD2        	DW	SETDEV	; 49 - Speichergeraet einstellen/anzeigen
 1521                   	; bis hier in CAOS 4.6 und 4.7 enthalten
 1522 D8EC  EDA4        	DW	HLDEZ	; 4A - HL dezimal anzeigen
 1523 D8EE  F4D3        	DW	RDEZ	; 4B - Erfassung Dezimalzahl aus Zeichenkette
 1524 D8F0  F512        	DW	GARGC	; 4C - Argumente erfassen mit beliebiger Zahlenbasis
 1525 D8F2              SUEND:	; bis hier in CAOS 4.8 enthalten
 1526                   
 1527                   ; CAOS 4.6 - Sprungtabelle Treiber Nr. 0 - Kassette
 1528                   
 1529 D8F2  FF          DRV0:	DB	-1		; Kennung (Vorgabe = nicht aktiv)
 1530 D8F3  05          	DB	5		; Treiber befindet sich in CAOS ROM-C
 1531 D8F4  00 01       	DB	0,1		; SWITCH-Befehl aus/ein
 1532 D8F6  54 41 50 45 	DB	'TAPE'		; Name des Treibers
 1533 D8FA  D011        	DW	TMBO		; 00/01 Ausgabe Datenblock 128 Byte
 1534 D8FC  D074        	DW	TMBI		; 01/05 Einlesen Datenblock 128 Byte
 1535 D8FE  D002        	DW	TISRO		; 02/08 Ausgabedatei oeffnen und ersten Block 01h ausgeben
 1536 D900  E48E        	DW	TCSRO		; 03/09 Ausgabedatei schliessen und Endeblock FFh ausgeben
 1537 D902  D071        	DW	TISRI		; 04/0A Eingabedatei oeffnen und Block 01 einlesen
 1538 D904  E495        	DW	TCSRI		; 05/0B Eingabedatei schliessen
 1539 D906  EDA2        	DW	VER0		; 06: Abfrage Treiber-Version
 1540 D908  E075        	DW	NOK		; 07: Treiberspezifische Funktionen (nicht benutzt)
 1541 D90A  D6F4        	DW	TLIST		; 08: DIR = TAPELIST
 1542 D90C  D789        	DW	MOT		; 09: CD  = Kassette ein/aus (statt Laufwerkwechsel)
 1543 D90E  F2F1        	DW	ERR1		; 10: ERA - nicht vorgesehen
 1544 D910  F2F1        	DW	ERR1		; 11: REN - nicht vorgesehen
 1545                   
 1546                   ; CAOS 4.6 - Sprungtabelle Treiber Nr. 1 Diskette D004/D008
 1547                   
 1548 D912  01          DRV1:	DB	1		; Kennung (Treiber Nr. 1)
 1549 D913  05          	DB	5		; Treiber befindet sich in CAOS ROM-C
 1550 D914  00 01       	DB	0,1		; SWITCH-Befehl aus/ein
 1551 D916  44 49 53 4B 	DB	'DISK'		; Name des Treibers
 1552 D91A  D130        	DW	FMBO		; 00/01 Ausgabe Datenblock 128 Byte
 1553 D91C  D106        	DW	FMBI		; 01/05 Einlesen Datenblock 128 Byte
 1554 D91E  D126        	DW	FISRO		; 02/08 Ausgabedatei oeffnen und ersten Block 01h ausgeben
SLR180 SuperFast Relocating Macro Assembler     			    SLR180 1.31 Page  86
CD48    INC

 1555 D920  D18A        	DW	FCSRO		; 03/09 Ausgabedatei schliessen und Endeblock FFh ausgeben
 1556 D922  D0F8        	DW	FISRI		; 04/0A Eingabedatei oeffnen und Block 01 einlesen
 1557 D924  D122        	DW	FCSRI		; 05/0B Eingabedatei schliessen
 1558 D926  EDA2        	DW	VER0		; 06: Abfrage Treiber-Version
 1559 D928  E075        	DW	NOK		; 07: Treiberspezifische Funktionen (nicht benutzt)
 1560 D92A  D34C        	DW	FDIR		; 08: DIR = Verzeichnisanzeige mit Maske
 1561 D92C  D669        	DW	DRIVE		; 09: CD  = Laufwerkwechsel
 1562 D92E  D405        	DW	FERA		; 10: ERA = Datei loeschen
 1563 D930  D448        	DW	FREN		; 11: REN = Datei umbenennen
 1564                   ;
 1565                   ; Portinitialisierungstabelle fuer Erstinitialisierung (POWER ON und RESET):
 1566                   ;
 1567                   ; Bei Erstinitialisierung des PIO-Port-A muss sichergestellt werden, dass der
 1568                   ; CAOS-ROM-E immer im Zugriff bleibt. Im Einschaltzustand sind die PIO-Ports
 1569                   ; hochohmig und werden ueber Pull-Up-Widerstaende auf High gezogen, deshalb:
 1570                   ; 1. PIO-Port B initialisieren, und PIO damit aus dem RESET-Zustand holen
 1571                   ;    (so wird auch das Ausgaberegister von Port A beschreibbar)
 1572                   ; 2. Port A Datenwort einschreiben
 1573                   ; 3. Port A Betriebsart Byte-Ausgabe einstellen um das Datenwort zu uebernehmen.
 1574                   ; Der RESET-Impuls zur D005-Tastatur wirkt nur, wenn die PIO bereits vorher
 1575                   ; auf Byte-Ausgabe initialisiert ist (also nur bei RESET, nicht bei POWER-ON)
 1576                   ;
 1577 D932  06          IOTAB1:	DB	6		; 6 Ports fuer Erstinitialisierung
 1578                   
 1579 D933  8B 03       	 DB	PIOBS,3		; PIO-B Steuerwort
 1580 D935  E6          	  DB	0E6h		; Interruptvektor
 1581 D936  0F          	  DB	00001111b	; Byte-Ausgabemodus
 1582 D937  83          	  DB	10000011b	; EI
 1583                   
 1584 D938  89 01       	 DB	PIOBD,1		; PIO-B Daten
 1585 D93A  FF          	  DB	0FFh		; Daten
 1586                   
 1587 D93B  88 02       	 DB	PIOAD,2		; PIO-A Daten
 1588 D93D  1F          	  DB	00011111b	; D005-Reset (KOUT 1-Impuls)
 1589 D93E  0F          	  DB	00001111b	; IRM ein, RAM0 WR ein, CAOS-E ein, USER-ROM aus
 1590                   
 1591 D93F  8A 03       	 DB	PIOAS,3		; PIO-A Steuerwort
 1592 D941  E4          	  DB	0E4h		; Interruptvektor
 1593 D942  0F          	  DB	00001111b	; Byte-Ausgabemodus
 1594 D943  03          	  DB	00000011b	; DI
 1595                   
 1596 D944  84 01       	 DB	PORT1,1		; Ausgabeport 84h
 1597 D946  28          	  DB	00101000b	; RAM8 0, LoRes
 1598                   
 1599 D947  86 01       	 DB	PORT2,1		; Ausgabeport 86h
 1600 D949  E3          	  DB	11100011b	; RAM4 ein, USER-C 3, CAOS-C ein
 1601                   ;
 1602                   ; Initialisierungstabelle fuer M001 als Centronics-Druckerschnittstelle:
 1603                   ;
 1604 D94A  03          DIOINI:	DB	3
 1605 D94B  06 02       	 DB	06h,2		; PIO-A Steuerwort
 1606 D94D  CF          	  DB	11001111b	; Bitbetrieb
 1607 D94E  00          	  DB	00000000b	; alles Ausgaenge
 1608 D94F  07 02       	 DB	07h,2		; PIO-B Steuerwort
 1609 D951  CF          	  DB	11001111b	; Bitbetrieb
 1610 D952  FE          	  DB	11111110b	; Bit 0 Ausgang
 1611 D953  05 01       	 DB	05h,1		; PIO-B Daten
 1612 D955  01          	  DB	00000001b	; Strobe passiv
SLR180 SuperFast Relocating Macro Assembler     			    SLR180 1.31 Page  87
CD48    INC

 1613                   ;
 1614                   ; Voreingestellte Zuordnung von Joystickfunktionen zu ASCII-Tastencodes
 1615                   ; Tabelle wird bei Power-On in den IRM kopiert, Bereich A894..A89F
 1616                   ; Hinweis: Fire2 ist beim M008 die primaere oder einzige Feuertaste
 1617                   ;
 1618 D956  02          JOYTBD:	DB	2		; Wartezyklen fuer Tastenwiederholung
 1619 D957  0B          	DB	0Bh		; Up
 1620 D958  0A          	DB	0Ah		; Down
 1621 D959  0D          	DB	CR		; Fire+Fire2
 1622 D95A  08          	DB	08h		; Left
 1623 D95B  00          	DB	0		; Up+Left
 1624 D95C  00          	DB	0		; Down+Left
 1625 D95D  0D          	DB	CR		; Fire
 1626 D95E  09          	DB	09h		; Right
 1627 D95F  00          	DB	0		; Up+Right
 1628 D960  00          	DB	0		; Down+Right
 1629 D961  20          	DB	' '		; Fire2
 1630                   ;
 1631                   ; Interrupttabelle (wird in den RAM kopiert):
 1632                   ;
 1633 D962              ISRTAB:	;DW	IRET	; 01D0	(IX-32) M052 USB-PIO (USB-Tastatur)
 1634                   	;DW	IRET	; 01D2	(IX-30) -
 1635                   	;DW	IRET	; 01D4	(IX-28) Empfehlung fuer CTC Kanal 2 des 2. M003
 1636                   	;DW	IRET	; 01D6	(IX-26) Empfehlung fuer CTC Kanal 3 des 2. M003
 1637                   	;DW	IRET	; 01D8	(IX-24) Empfehlung fuer SIO des 2. M003 
 1638                   	;DW	IRET	; 01DA	(IX-22) Empfehlung fuer SIO des 1. M003
 1639                   	;DW	IRET	; 01DC	(IX-20) Empfehlung fuer CTC Kanal 2 des 1. M003
 1640                   	;DW	IRET	; 01DE	(IX-18) Empfehlung fuer CTC Kanal 3 des 1. M003
 1641 D962  E3ED        	DW	ISRJ	; 01E0	(IX-16) M008 PIO A: Joystick
 1642 D964  FA80        	DW	ISRSB	; 01E2	(IX-14) M003 SIO B: V.24-Empfang
 1643 D966  E58B        	DW	ISRPA	; 01E4	(IX-12) PIO A: Kassette
 1644 D968  E302        	DW	ISRPB	; 01E6	(IX-10) PIO B: Tastatur
 1645 D96A  E59A        	DW	IRET	; 01E8	(IX-8)  CTC 0: frei (TEMO Schrittbetrieb)
 1646 D96C  E57B        	DW	ISRC1	; 01EA	(IX-6)  CTC 1: Kassette
 1647 D96E  ED85        	DW	ISRC2	; 01EC	(IX-4)  CTC 2: Tondauer
 1648 D970  E2F6        	DW	ISRC3	; 01EE	(IX-2)  CTC 3: Tastatur
 1649                   ;
 1650                   ; Portinitialisierungstabelle fuer Neuinitialisierung bei SIXD
 1651                   ;
 1652 D972  04          IOTAB2:	DB	4		; 4 Ports initialisieren
 1653                   
 1654 D973  8A 01       	 DB	PIOAS,1		; PIO-A Steuerwort
 1655 D975  E4          	  DB	0E4h		; Interruptvektor
 1656                   
 1657 D976  8B 01       	 DB	PIOBS,1		; PIO-B Steuerwort
 1658 D978  E6          	  DB	0E6h		; Interruptvektor
 1659                   
 1660 D979  8C 01       	 DB	CTC0,1		; CTC Kanal 0
 1661 D97B  E8          	  DB	0E8h		; Interruptvektor
 1662                   
 1663 D97C  8E 02       	 DB	CTC2,2		; CTC Kanal 2: blinken
 1664 D97E  47          	  DB	01000111b	; DI, Zaehler, RESET
 1665 D97F  0C          	  DB	12		; Zeitkonstante
 1666                   ;
 1667                   ; IBM-Kodierungen fuer allgemeine Druckroutine PRINTC
 1668                   ;
 1669 D980  7B 7C 7D 7E ZIBM:	DB	7BH,7CH,7DH,7EH
 1670 D984  5B 5C 5D    	DB	5BH,5CH,5DH
SLR180 SuperFast Relocating Macro Assembler     			    SLR180 1.31 Page  88
CD48    INC

 1671 D987  84 94 81 E1 	DB	84H,94H,81H,0E1H
 1672 D98B  8E 99 9A    	DB	8EH,99H,9AH
 1673                   
 1674                   ; Anzeige der CAOS-Version mit Datum
 1675                   
 1676 D98E  7F7F        	DW	7F7FH
 1677 D990  48 45 4C 50 	DB	'HELP'
 1678 D994  01          	DB	1
 1679 D995  3E 01       HELP:	LD	A,1
 1680 D997  CD DA60     	CALL	VER		; Versionsanzeige (Langform mit Datum)
 1681 D99A  CD F0B4     	CALL	OSTR
 1682 D99D  0D 0A 0A    	DB	CR,LF,LF
 1683 D9A0  20 20 43 6F 	DB	'  Commands (Prolog=',0
 1684 D9B4  DD 7E 09    	LD	A,(IX+9)
 1685 D9B7  CD F0B1     	CALL	AHOSTR		; Prolog und folgenden Text anzeigen
 1686                   ;	CALL	OSTR
 1687 D9BA  29 3A 0D 0A 	DB	'):'CR,LF,LF,0
 1688 D9C0  21 D9DF     	LD	HL,HELPX	; Programmteil zur Menuewortsuche und Anzeige
 1689 D9C3  11 B700     	LD	DE,CASS		; in den Kassettenpuffer kopieren
 1690 D9C6  01 0080     	LD	BC,MENEND-HELPX	; maximal 128 Byte (reicht gerade so!!!)
 1691 D9C9  ED B0       	LDIR
 1692                   ;	LD	B,0		; Suchgroesse = 64K (B=0 vom LDIR)
 1693 D9CB  3A B802     	LD	A,(MODST+2)	; Schaltzustand USER-ROM
 1694 D9CE  32 B780     	LD	(ARGC),A	; hier merken
 1695 D9D1  3A B805     	LD	A,(MODST+5)	; Schaltzustand CAOS-ROM C
 1696 D9D4  5F          	LD	E,A		; in Register E merken
 1697 D9D5  3E 02       	LD	A,2		; Start-Spalte erstes Menuewort
 1698 D9D7  08          	EX	AF,AF'		; Position in A' merken
 1699 D9D8  21 E4D8     	LD	HL,CLC		; Kassettenpuffer nach Nutzung wieder saebern
 1700 D9DB  E5          	PUSH	HL		; Als-RET-Adresse auf Stack legen
 1701 D9DC  C3 B700     	JP	CASS		; weiter in Kassettenpuffer
 1702                   
 1703 D9DF  CD FB87     HELPX:	CALL	COFF
 1704 D9E2  CD B73E     	CALL	MENUX		; Menueworte im sichtbaren Bereich anzeigen
 1705                   
 1706                   ;CAOS ROM C
 1707 D9E5  CD FB98     	CALL	CON		; CAOS-ROM C einschalten
 1708 D9E8  CB 43       	BIT	0,E		; war CAOS-ROM C ein waehrend erster Suche?
 1709 D9EA  CC B73C     	CALL	Z,MENX8K	; nein, Menueworte im CAOS-ROM C anzeigen
 1710                   
 1711                   ;USER-ROM (ausser BASIC)
 1712 D9ED  16 D1       HELP1:	LD	D,0D1H		; 1. Ebene (BASIC nicht mit durchsuchen)
 1713 D9EF  CD F0E1     HELP2:	CALL	MODUL2		; USER-ROM-C Ebene ein
 1714                   	RESIXA	7,4		; RES 7,(IX+4),A
    1 D9F2  DD CB 04    	 DB	0DDh,0CBh,4
    2 D9F5  BF          	 DB	7 SHL 3 OR 10000111b
 1715 D9F6  D3 86       	OUT	(PORT2),A	; CAOS-ROM C aus!
 1716 D9F8  D5          	PUSH	DE
 1717 D9F9  CB 43       	BIT	0,E		; war CAOS-ROM C ein waehrend erster Suche?
 1718 D9FB  20 04       	JR	NZ,HELP3	; ja, dann USER-ROM komplett anzeigen
 1719 D9FD  3A B780     	LD	A,(ARGC)	; USER-ROM
 1720 DA00  BA          	CP	D		; aktuelle Ebene ein waehrend erster Suche?
 1721 DA01  C4 B73C     HELP3:	CALL	NZ,MENX8K	; Menueworte aus USER-ROM anzeigen
 1722 DA04  D1          	POP	DE
 1723 DA05  3E 10       	LD	A,10H		; Offset zur naechsten Ebene: C1, D1, E1, F1
 1724 DA07  82          	ADD	A,D		; naechste Ebene berechnen
 1725 DA08  57          	LD	D,A
 1726 DA09  30 E4       	JR	NC,HELP2
SLR180 SuperFast Relocating Macro Assembler     			    SLR180 1.31 Page  89
CD48    INC

 1727                   
 1728                   ; Schaltzustand CAOS-C und USER-ROM regenerieren:
 1729 DA0B  ED 5B B77F  	LD	DE,(ARGC-1)	; D = USER-ROM-Schaltzustand vor Suche
 1730 DA0F  CD F0E1     	CALL	MODUL2		; USER-ROM C wie zuvor
 1731 DA12  3A B7A0     	LD	A,(CURSO)
 1732 DA15  FE 02       	CP	2
 1733 DA17  C4 F4C4     	CALL	NZ,CRLF		; Neue Zeile, falls nicht auf erster Spalte
 1734 DA1A  C9          	RET
 1735                   ;-------
 1736         B73C      MENX8K	EQU	$+CASS-HELPX
 1737 DA1B  06 20       	LD	B,20H		; Suchgroesse = 8K
 1738         B73E      MENUX	EQU	$+CASS-HELPX
 1739 DA1D  21 C000     	LD	HL,0C000H	; Suchbeginn
 1740 DA20  4D          	LD	C,L
 1741 DA21  08          MENX0:	EX	AF,AF'
 1742 DA22  32 B7A0     MENX1:	LD	(CURSO),A	; Cursor-Spalte setzen
 1743 DA25  08          	EX	AF,AF'
 1744 DA26  CD F86B     	CALL	CLR12		; angefangenes Menuewort loeschen
 1745                   
 1746                   ;Menuewort suchen und anzeigen
 1747 DA29  DD 7E 09    	LD	A,(IX+9)	; Prologbyte
 1748 DA2C  ED B1       MENX3:	CPIR
 1749 DA2E  E0          	RET	PO		; ausgesucht
 1750 DA2F  ED A1       	CPI			; 2mal nacheinander?
 1751 DA31  E0          	RET	PO		; ausgesucht
 1752 DA32  20 F8       	JR	NZ,MENX3	; nicht 2mal
 1753 DA34  7E          MENX4:	LD	A,(HL)
 1754 DA35  FE 20       	CP	20h		; Epilog (0..1Fh)?
 1755 DA37  38 0E       	JR	C,MENX5		; Epilog beendet Menuewort
 1756 DA39  FE 7B       	CP	'z'+1		; <= 'z'?
 1757 DA3B  30 E4       	JR	NC,MENX0	; groesser als 'z' -> kein Menuewort
 1758 DA3D  CD F3BB     	CALL	OCHR
 1759 DA40  ED A1       	CPI			; INC HL, DEC BC
 1760 DA42  E2 F86B     	JP	PO,CLR12	; BC=0, also ausgesucht
 1761 DA45  18 ED       	JR	MENX4
 1762                   
 1763                   ;Cursor auf naechste Spalte setzen (02h, 0Eh, 1Ah)
 1764 DA47  3A B7A0     MENX5:	LD	A,(CURSO)
 1765 DA4A  FE 1A       	CP	1AH
 1766 DA4C  38 07       	JR	C,MENX6
 1767 DA4E  CD F4C4     	CALL	CRLF		; neue Zeile
 1768 DA51  3E 02       	LD	A,2		; linke Spalte
 1769 DA53  18 CD       	JR	MENX1
 1770                   	;
 1771 DA55  FE 0E       MENX6:	CP	0EH
 1772 DA57  3E 0E       	LD	A,0EH		; mittlere Spalte
 1773 DA59  38 C7       	JR	C,MENX1
 1774 DA5B  3E 1A       	LD	A,1AH		; rechte Spalte
 1775 DA5D  18 C3       	JR	MENX1
 1776 DA5F              MENEND:	
 1777                   ;-------------------------------------------------------------------------------
 1778                   ;
 1779                   ; Anzeige CAOS-Version (Titelzeile) in Kurz- oder Langform
 1780                   ;
 1781                   ;PE:	A=0	Kurzform ohne Datum
 1782                   ;	A<>0	Langform mit Datum
 1783 DA5F  AF          SHORT:	XOR	A		; Kurzform
 1784 DA60  F5          VER:	PUSH	AF
SLR180 SuperFast Relocating Macro Assembler     			    SLR180 1.31 Page  90
CD48    INC

 1785 DA61  CD F0B4     	CALL	OSTR
 1786 DA64  0C 0A       	DB	0CH,LF
 1787 DA66  2A 20 4B 43 	DB	'* KC-CAOS 4.8'
 1788         0000      if beta
 1790                   endif
 1791 DA73  00          	DB	0
 1792 DA74  F1          	POP	AF
 1793 DA75  B7          	OR	A
 1794 DA76  28 11       	JR	Z,VER1
 1795 DA78  CD F0B4     	CALL	OSTR
 1796 DA7B  20 28       	DB	' ('
 1797                   	DATUM			; Versionsdatum
    1 DA7D  30 37 2E 31 	DB	'07.10.2023'	; Versionsdatum nur hier aendern!
 1798 DA87  29 00       	DB	')',0
 1799 DA89  CD F3A2     VER1:	CALL	SPACE
 1800 DA8C  CD D609     	CALL	DLIST		; aktuelles Device anzeigen
 1801 DA8F  CD F0B4     	CALL	OSTR
 1802 DA92  20 2A 00    	DB	' *',0
 1803 DA95  C9          	RET
 1804                   
 1805                   	ABSFILL	0DAB8h,<ROM-D-Ende>
    7 DA96  FF FF FF FF 	  DS	0DAB8h - $,0FFh
  237         0000      if duenn
  239                   else
  240                   	INCLUDE	ZSIBM.INC	; IBM-Zeichensatz Standard
    1                   ;*****************************************
    2                   ;**	CAOS 4.7 IBM-Zeichensatz	**
    3                   ;**					**
    4                   ;**	Adresse:  DAB8h bis DFFFh	**
    5                   ;**					**
    6                   ;**	letzte Aenderung: 28.05.2021	**
    7                   ;*****************************************
    8                   
    9 DAB8  78 60 60 60 	DB	078H, 060H, 060H, 060H, 060H, 060H, 078H, 000H	; 5BH
   10 DAC0  C0 60 30 18 	DB	0C0H, 060H, 030H, 018H, 00CH, 006H, 002H, 000H	; 5CH
   11 DAC8  78 18 18 18 	DB	078H, 018H, 018H, 018H, 018H, 018H, 078H, 000H	; 5DH
   12 DAD0  30 30 18 00 	DB	030H, 030H, 018H, 000H, 000H, 000H, 000H, 000H	; 60H
   13 DAD8  1C 30 30 E0 	DB	01CH, 030H, 030H, 0E0H, 030H, 030H, 01CH, 000H	; 7BH
   14 DAE0  18 18 18 00 	DB	018H, 018H, 018H, 000H, 018H, 018H, 018H, 000H	; 7CH
   15 DAE8  E0 30 30 1C 	DB	0E0H, 030H, 030H, 01CH, 030H, 030H, 0E0H, 000H	; 7DH
   16 DAF0  76 DC 00 00 	DB	076H, 0DCH, 000H, 000H, 000H, 000H, 000H, 000H	; 7EH
   17 DAF8  00 10 38 6C 	DB	000H, 010H, 038H, 06CH, 0C6H, 0C6H, 0FEH, 000H	; 7FH
   18                   
   19 DB00  00 00 00 00 	DB	000H, 000H, 000H, 000H, 000H, 000H, 082H, 0FEH	; 00H
   20 DB08  7E 81 A5 81 	DB	07EH, 081H, 0A5H, 081H, 0BDH, 099H, 081H, 07EH	; 01H
   21 DB10  7E FF DB FF 	DB	07EH, 0FFH, 0DBH, 0FFH, 0C3H, 0E7H, 0FFH, 07EH	; 02H
   22 DB18  6C FE FE FE 	DB	06CH, 0FEH, 0FEH, 0FEH, 07CH, 038H, 010H, 000H	; 03H
   23 DB20  10 38 7C FE 	DB	010H, 038H, 07CH, 0FEH, 07CH, 038H, 010H, 000H	; 04H
   24 DB28  38 7C 38 FE 	DB	038H, 07CH, 038H, 0FEH, 0FEH, 07CH, 038H, 07CH	; 05H
   25 DB30  10 10 38 7C 	DB	010H, 010H, 038H, 07CH, 0FEH, 07CH, 038H, 07CH	; 06H
   26 DB38  00 00 18 3C 	DB	000H, 000H, 018H, 03CH, 03CH, 018H, 000H, 000H	; 07H
   27 DB40  FF FF E7 C3 	DB	0FFH, 0FFH, 0E7H, 0C3H, 0C3H, 0E7H, 0FFH, 0FFH	; 08H
   28 DB48  00 3C 66 42 	DB	000H, 03CH, 066H, 042H, 042H, 066H, 03CH, 000H	; 09H
   29 DB50  FF C3 99 BD 	DB	0FFH, 0C3H, 099H, 0BDH, 0BDH, 099H, 0C3H, 0FFH	; 0AH
   30 DB58  0F 07 0F 7D 	DB	00FH, 007H, 00FH, 07DH, 0CCH, 0CCH, 0CCH, 078H	; 0BH
   31 DB60  3C 66 66 66 	DB	03CH, 066H, 066H, 066H, 03CH, 018H, 07EH, 018H	; 0CH
   32 DB68  3F 33 3F 30 	DB	03FH, 033H, 03FH, 030H, 030H, 070H, 0F0H, 0E0H	; 0DH
   33 DB70  7F 63 7F 63 	DB	07FH, 063H, 07FH, 063H, 063H, 067H, 0E6H, 0C0H	; 0EH
SLR180 SuperFast Relocating Macro Assembler     			    SLR180 1.31 Page  91
ZSIBM   INC

   34 DB78  99 5A 3C E7 	DB	099H, 05AH, 03CH, 0E7H, 0E7H, 03CH, 05AH, 099H	; 0FH
   35                   
   36 DB80  80 E0 F8 FE 	DB	080H, 0E0H, 0F8H, 0FEH, 0F8H, 0E0H, 080H, 000H	; 10H
   37 DB88  02 0E 3E FE 	DB	002H, 00EH, 03EH, 0FEH, 03EH, 00EH, 002H, 000H	; 11H
   38 DB90  18 3C 7E 18 	DB	018H, 03CH, 07EH, 018H, 018H, 07EH, 03CH, 018H	; 12H
   39 DB98  66 66 66 66 	DB	066H, 066H, 066H, 066H, 066H, 000H, 066H, 000H	; 13H
   40 DBA0  7B DB DB 7B 	DB	07BH, 0DBH, 0DBH, 07BH, 01BH, 01BH, 01BH, 000H	; 14H
   41 DBA8  3C 66 38 6C 	DB	03CH, 066H, 038H, 06CH, 06CH, 038H, 0CCH, 078H	; 15H
   42 DBB0  00 00 00 00 	DB	000H, 000H, 000H, 000H, 07EH, 07EH, 07EH, 000H	; 16H
   43 DBB8  18 3C 7E 18 	DB	018H, 03CH, 07EH, 018H, 07EH, 03CH, 018H, 0FFH	; 17H
   44 DBC0  18 3C 7E 18 	DB	018H, 03CH, 07EH, 018H, 018H, 018H, 018H, 000H	; 18H
   45 DBC8  18 18 18 18 	DB	018H, 018H, 018H, 018H, 07EH, 03CH, 018H, 000H	; 19H
   46 DBD0  00 08 0C FE 	DB	000H, 008H, 00CH, 0FEH, 0FEH, 00CH, 008H, 000H	; 1AH
   47 DBD8  00 20 60 FE 	DB	000H, 020H, 060H, 0FEH, 0FEH, 060H, 020H, 000H	; 1BH
   48 DBE0  00 00 C0 C0 	DB	000H, 000H, 0C0H, 0C0H, 0C0H, 0FEH, 000H, 000H	; 1CH
   49 DBE8  00 24 66 FF 	DB	000H, 024H, 066H, 0FFH, 0FFh, 066H, 024H, 000H	; 1DH
   50 DBF0  00 18 3C 7E 	DB	000H, 018H, 03CH, 07EH, 0FFH, 0FFH, 000H, 000H	; 1EH
   51 DBF8  00 FF FF 7E 	DB	000H, 0FFH, 0FFH, 07EH, 03CH, 018H, 000H, 000H	; 1FH
   52                   
   53 DC00  78 CC C0 C0 	DB	078H, 0CCH, 0C0H, 0C0H, 0CCH, 078H, 010H, 070H	; 80H
   54 DC08  00 CC 00 CC 	DB	000H, 0CCH, 000H, 0CCH, 0CCH, 0CCH, 076H, 000H	; 81H
   55 DC10  1C 00 78 CC 	DB	01CH, 000H, 078H, 0CCH, 0FCH, 0C0H, 078H, 000H	; 82H
   56 DC18  78 84 78 0C 	DB	078H, 084H, 078H, 00CH, 07CH, 0CCH, 076H, 000H	; 83H
   57 DC20  6C 00 78 0C 	DB	06CH, 000H, 078H, 00CH, 07CH, 0CCH, 076H, 000H	; 84H
   58 DC28  E0 00 78 0C 	DB	0E0H, 000H, 078H, 00CH, 07CH, 0CCH, 076H, 000H	; 85H
   59 DC30  30 30 78 0C 	DB	030H, 030H, 078H, 00CH, 07CH, 0CCH, 076H, 000H	; 86H
   60 DC38  00 78 CC C0 	DB	000H, 078H, 0CCH, 0C0H, 0CCH, 078H, 010H, 070H	; 87H
   61 DC40  78 84 78 CC 	DB	078H, 084H, 078H, 0CCH, 0FCH, 0C0H, 078H, 000H	; 88H
   62 DC48  CC 00 78 CC 	DB	0CCH, 000H, 078H, 0CCH, 0FCH, 0C0H, 078H, 000H	; 89H
   63 DC50  E0 00 78 CC 	DB	0E0H, 000H, 078H, 0CCH, 0FCH, 0C0H, 078H, 000H	; 8AH
   64 DC58  D8 00 70 30 	DB	0D8H, 000H, 070H, 030H, 030H, 030H, 078H, 000H	; 8BH
   65 DC60  70 88 70 30 	DB	070H, 088H, 070H, 030H, 030H, 030H, 078H, 000H	; 8CH
   66 DC68  E0 00 70 30 	DB	0E0H, 000H, 070H, 030H, 030H, 030H, 078H, 000H	; 8DH
   67 DC70  CC 30 78 CC 	DB	0CCH, 030H, 078H, 0CCH, 0FCH, 0CCH, 0CCH, 000H	; 8EH
   68 DC78  78 84 30 78 	DB	078H, 084H, 030H, 078H, 0CCH, 0FCH, 0CCH, 000H	; 8FH
   69                   
   70 DC80  1C 00 FC 60 	DB	01CH, 000H, 0FCH, 060H, 078H, 060H, 0FCH, 000H	; 90H
   71 DC88  00 00 6C 92 	DB	000H, 000H, 06CH, 092H, 09EH, 090H, 07EH, 000H	; 91H
   72 DC90  3E 78 D8 FE 	DB	03EH, 078H, 0D8H, 0FEH, 0D8H, 0D8H, 0DEH, 000H	; 92H
   73 DC98  78 84 00 78 	DB	078H, 084H, 000H, 078H, 0CCH, 0CCH, 078H, 000H	; 93H
   74 DCA0  00 CC 00 78 	DB	000H, 0CCH, 000H, 078H, 0CCH, 0CCH, 078H, 000H	; 94H
   75 DCA8  00 E0 00 78 	DB	000H, 0E0H, 000H, 078H, 0CCH, 0CCH, 078H, 000H	; 95H
   76 DCB0  78 84 00 CC 	DB	078H, 084H, 000H, 0CCH, 0CCH, 0CCH, 076H, 000H	; 96H
   77 DCB8  00 E0 00 CC 	DB	000H, 0E0H, 000H, 0CCH, 0CCH, 0CCH, 076H, 000H	; 97H
   78 DCC0  00 CC 00 CC 	DB	000H, 0CCH, 000H, 0CCH, 0CCH, 07CH, 00CH, 0F8H	; 98H
   79 DCC8  C6 38 6C C6 	DB	0C6H, 038H, 06CH, 0C6H, 0C6H, 06CH, 038H, 000H	; 99H
   80 DCD0  CC 00 CC CC 	DB	0CCH, 000H, 0CCH, 0CCH, 0CCH, 0CCH, 078H, 000H	; 9AH
   81 DCD8  10 7C C6 C0 	DB	010H, 07CH, 0C6H, 0C0H, 0C6H, 07CH, 010H, 000H	; 9BH
   82 DCE0  38 6C 64 F0 	DB	038H, 06CH, 064H, 0F0H, 060H, 0E6H, 0FCH, 000H	; 9CH
   83 DCE8  66 66 3C 7E 	DB	066H, 066H, 03CH, 07EH, 018H, 07EH, 018H, 018H	; 9DH
   84 DCF0  F8 CC CC FA 	DB	0F8H, 0CCH, 0CCH, 0FAH, 0C6H, 0CFH, 0C6H, 0C7H	; 9EH
   85 DCF8  0E 1B 18 3C 	DB	00EH, 01BH, 018H, 03CH, 018H, 018H, 0D8H, 070H	; 9FH
   86                   
   87 DD00  1C 00 78 0C 	DB	01CH, 000H, 078H, 00CH, 07CH, 0CCH, 076H, 000H	; A0H
   88 DD08  38 00 70 30 	DB	038H, 000H, 070H, 030H, 030H, 030H, 078H, 000H	; A1H
   89 DD10  00 1C 00 78 	DB	000H, 01CH, 000H, 078H, 0CCH, 0CCH, 078H, 000H	; A2H
   90 DD18  00 1C 00 CC 	DB	000H, 01CH, 000H, 0CCH, 0CCH, 0CCH, 076H, 000H	; A3H
   91 DD20  00 F8 00 F8 	DB	000H, 0F8H, 000H, 0F8H, 0CCH, 0CCH, 0CCH, 000H	; A4H
SLR180 SuperFast Relocating Macro Assembler     			    SLR180 1.31 Page  92
ZSIBM   INC

   92 DD28  FC 00 CC EC 	DB	0FCH, 000H, 0CCH, 0ECH, 0FCH, 0DCH, 0CCH, 000H	; A5H
   93 DD30  78 0C 7C CC 	DB	078H, 00CH, 07CH, 0CCH, 076H, 000H, 07CH, 000H	; A6H
   94 DD38  38 6C 6C 38 	DB	038H, 06CH, 06CH, 038H, 000H, 07CH, 000H, 000H	; A7H
   95 DD40  30 00 30 60 	DB	030H, 000H, 030H, 060H, 0C0H, 0CCH, 078H, 000H	; A8H
   96 DD48  00 00 00 7E 	DB	000H, 000H, 000H, 07EH, 060H, 060H, 000H, 000H	; A9H
   97 DD50  00 00 00 7E 	DB	000H, 000H, 000H, 07EH, 006H, 006H, 000H, 000H	; AAH
   98 DD58  C3 C6 CC DE 	DB	0C3H, 0C6H, 0CCH, 0DEH, 033H, 066H, 0CCH, 00FH	; ABH
   99 DD60  C3 C6 CC DB 	DB	0C3H, 0C6H, 0CCH, 0DBH, 037H, 06FH, 0CFH, 003H	; ACH
  100 DD68  30 00 30 30 	DB	030H, 000H, 030H, 030H, 078H, 078H, 030H, 000H	; ADH
  101 DD70  00 33 66 CC 	DB	000H, 033H, 066H, 0CCH, 066H, 033H, 000H, 000H	; AEH
  102 DD78  00 CC 66 33 	DB	000H, 0CCH, 066H, 033H, 066H, 0CCH, 000H, 000H	; AFH
  103                   
  104 DD80  22 88 22 88 	DB	022H, 088H, 022H, 088H, 022H, 088H, 022H, 088H	; B0H
  105 DD88  55 AA 55 AA 	DB	055H, 0AAH, 055H, 0AAH, 055H, 0AAH, 055H, 0AAH	; B1H
  106 DD90  77 DD 77 DD 	DB	077H, 0DDH, 077H, 0DDH, 077H, 0DDH, 077H, 0DDH	; B2H
  107                   ; ab hier Linien-Symbole
  108 DD98  18 18 18 18 	DB	018H, 018H, 018H, 018H, 018H, 018H, 018H, 018H	; B3H
  109 DDA0  18 18 18 F8 	DB	018H, 018H, 018H, 0F8H, 0F8H, 018H, 018H, 018H	; B4H
  110 DDA8  18 F8 F8 18 	DB	018H, 0F8H, 0F8H, 018H, 0F8H, 0F8H, 018H, 018H	; B5H
  111 DDB0  36 36 36 F6 	DB	036H, 036H, 036H, 0F6H, 0F6H, 036H, 036H, 036H	; B6H
  112 DDB8  00 00 00 FE 	DB	000H, 000H, 000H, 0FEH, 0FEH, 036H, 036H, 036H	; B7H
  113 DDC0  00 F8 F8 18 	DB	000H, 0F8H, 0F8H, 018H, 0F8H, 0F8H, 018H, 018H	; B8H
  114 DDC8  36 F6 F6 06 	DB	036H, 0F6H, 0F6H, 006H, 0F6H, 0F6H, 036H, 036H	; B9H
  115 DDD0  36 36 36 36 	DB	036H, 036H, 036H, 036H, 036H, 036H, 036H, 036H	; BAH
  116 DDD8  00 FE FE 06 	DB	000H, 0FEH, 0FEH, 006H, 0F6H, 0F6H, 036H, 036H	; BBH
  117 DDE0  36 F6 F6 06 	DB	036H, 0F6H, 0F6H, 006H, 0FEH, 0FEH, 000H, 000H	; BCH
  118 DDE8  36 36 36 FE 	DB	036H, 036H, 036H, 0FEH, 0FEH, 000H, 000H, 000H	; BDH
  119 DDF0  18 F8 F8 18 	DB	018H, 0F8H, 0F8H, 018H, 0F8H, 0F8H, 000H, 000H	; BEH
  120 DDF8  00 00 00 F8 	DB	000H, 000H, 000H, 0F8H, 0F8H, 018H, 018H, 018H	; BFH
  121                   
  122 DE00  18 18 18 1F 	DB	018H, 018H, 018H, 01FH, 01FH, 000H, 000H, 000H	; C0H
  123 DE08  18 18 18 FF 	DB	018H, 018H, 018H, 0FFH, 0FFH, 000H, 000H, 000H	; C1H
  124 DE10  00 00 00 FF 	DB	000H, 000H, 000H, 0FFH, 0FFH, 018H, 018H, 018H	; C2H
  125 DE18  18 18 18 1F 	DB	018H, 018H, 018H, 01FH, 01FH, 018H, 018H, 018H	; C3H
  126 DE20  00 00 00 FF 	DB	000H, 000H, 000H, 0FFH, 0FFH, 000H, 000H, 000H	; C4H
  127 DE28  18 18 18 FF 	DB	018H, 018H, 018H, 0FFH, 0FFH, 018H, 018H, 018H	; C5H
  128 DE30  18 1F 1F 18 	DB	018H, 01FH, 01FH, 018H, 01FH, 01FH, 018H, 018H	; C6H
  129 DE38  36 36 36 37 	DB	036H, 036H, 036H, 037H, 037H, 036H, 036H, 036H	; C7H
  130 DE40  36 37 37 30 	DB	036H, 037H, 037H, 030H, 03FH, 03FH, 000H, 000H	; C8H
  131 DE48  00 3F 3F 30 	DB	000H, 03FH, 03FH, 030H, 037H, 037H, 036H, 036H	; C9H
  132 DE50  36 F7 F7 00 	DB	036H, 0F7H, 0F7H, 000H, 0FFH, 0FFH, 000H, 000H	; CAH
  133 DE58  00 FF FF 00 	DB	000H, 0FFH, 0FFH, 000H, 0F7H, 0F7H, 036H, 036H	; CBH
  134 DE60  66 37 37 30 	DB	066H, 037H, 037H, 030H, 037H, 037H, 036H, 036H	; CCH
  135 DE68  00 FF FF 00 	DB	000H, 0FFH, 0FFH, 000H, 0FFH, 0FFH, 000H, 000H	; CDH
  136 DE70  36 F7 F7 00 	DB	036H, 0F7H, 0F7H, 000H, 0F7H, 0F7H, 036H, 036H	; CEH
  137 DE78  18 FF FF 00 	DB	018H, 0FFH, 0FFH, 000H, 0FFH, 0FFH, 000H, 000H	; CFH
  138                   
  139 DE80  36 36 36 FF 	DB	036H, 036H, 036H, 0FFH, 0FFH, 000H, 000H, 000H	; D0H
  140 DE88  00 FF FF 00 	DB	000H, 0FFH, 0FFH, 000H, 0FFH, 0FFH, 018H, 018H	; D1H
  141 DE90  00 00 00 FF 	DB	000H, 000H, 000H, 0FFH, 0FFH, 036H, 036H, 036H	; D2H
  142 DE98  36 36 36 3F 	DB	036H, 036H, 036H, 03FH, 03FH, 000H, 000H, 000H	; D3H
  143 DEA0  18 1F 1F 18 	DB	018H, 01FH, 01FH, 018H, 01FH, 01FH, 000H, 000H	; D4H
  144 DEA8  00 1F 1F 18 	DB	000H, 01FH, 01FH, 018H, 01FH, 01FH, 018H, 018H	; D5H
  145 DEB0  00 00 00 3F 	DB	000H, 000H, 000H, 03FH, 03FH, 036H, 036H, 036H	; D6H
  146 DEB8  36 36 36 FF 	DB	036H, 036H, 036H, 0FFH, 0FFH, 036H, 036H, 036H	; D7H
  147 DEC0  18 FF FF 18 	DB	018H, 0FFH, 0FFH, 018H, 0FFH, 0FFH, 018H, 018H	; D8H
  148 DEC8  18 18 18 F8 	DB	018H, 018H, 018H, 0F8H, 0F8H, 000H, 000H, 000H	; D9H
  149 DED0  00 00 00 1F 	DB	000H, 000H, 000H, 01FH, 01FH, 018H, 018H, 018H	; DAH
SLR180 SuperFast Relocating Macro Assembler     			    SLR180 1.31 Page  93
ZSIBM   INC

  150                   ; bis hier Linien-Symbole
  151 DED8  FF FF FF FF 	DB	0FFH, 0FFH, 0FFH, 0FFH, 0FFH, 0FFH, 0FFH, 0FFH	; DBH
  152 DEE0  00 00 00 00 	DB	000H, 000H, 000H, 000H, 0FFH, 0FFH, 0FFH, 0FFH	; DCH
  153 DEE8  F0 F0 F0 F0 	DB	0F0H, 0F0H, 0F0H, 0F0H, 0F0H, 0F0H, 0F0H, 0F0H	; DDH
  154 DEF0  0F 0F 0F 0F 	DB	00FH, 00FH, 00FH, 00FH, 00FH, 00FH, 00FH, 00FH	; DEH
  155 DEF8  FF FF FF FF 	DB	0FFH, 0FFH, 0FFH, 0FFH, 000H, 000H, 000H, 000H	; DFH
  156                   
  157 DF00  00 00 76 DC 	DB	000H, 000H, 076H, 0DCH, 0CCH, 0DCH, 076H, 000H	; E0H
  158 DF08  3C 66 66 6C 	DB	03CH, 066H, 066H, 06CH, 066H, 066H, 06CH, 0F0H	; E1H
  159 DF10  FE 62 60 60 	DB	0FEH, 062H, 060H, 060H, 060H, 060H, 0F0H, 000H	; E2H
  160 DF18  00 FE 6C 6C 	DB	000H, 0FEH, 06CH, 06CH, 06CH, 06CH, 06EH, 000H	; E3H
  161 DF20  FC C4 60 30 	DB	0FCH, 0C4H, 060H, 030H, 060H, 0C4H, 0FCH, 000H	; E4H
  162 DF28  00 00 7E D8 	DB	000H, 000H, 07EH, 0D8H, 0D8H, 0D8H, 070H, 000H	; E5H
  163 DF30  00 00 CC CC 	DB	000H, 000H, 0CCH, 0CCH, 0CCH, 0F6H, 0C0H, 0C0H	; E6H
  164 DF38  00 7E D8 18 	DB	000H, 07EH, 0D8H, 018H, 018H, 018H, 018H, 000H	; E7H
  165 DF40  78 30 78 CC 	DB	078H, 030H, 078H, 0CCH, 0CCH, 078H, 030H, 078H	; E8H
  166 DF48  38 6C C6 FE 	DB	038H, 06CH, 0C6H, 0FEH, 0C6H, 06CH, 038H, 000H	; E9H
  167 DF50  38 6C C6 C6 	DB	038H, 06CH, 0C6H, 0C6H, 06CH, 06CH, 0EEH, 000H	; EAH
  168 DF58  1C 30 18 7C 	DB	01CH, 030H, 018H, 07CH, 0CCH, 0CCH, 078H, 000H	; EBH
  169 DF60  00 6C FE 92 	DB	000H, 06CH, 0FEH, 092H, 0FEH, 06CH, 000H, 000H	; ECH
  170 DF68  03 7E CC DE 	DB	003H, 07EH, 0CCH, 0DEH, 0F6H, 066H, 0FCH, 080H	; EDH
  171 DF70  3C 60 C0 FC 	DB	03CH, 060H, 0C0H, 0FCH, 0C0H, 060H, 03CH, 000H	; EEH
  172 DF78  78 CC CC CC 	DB	078H, 0CCH, 0CCH, 0CCH, 0CCH, 0CCH, 0CCH, 000H	; EFH
  173                   
  174 DF80  00 7E 00 7E 	DB	000H, 07EH, 000H, 07EH, 000H, 07EH, 000H, 000H	; F0H
  175 DF88  18 18 7E 18 	DB	018H, 018H, 07EH, 018H, 018H, 000H, 07EH, 000H	; F1H
  176 DF90  30 18 0C 18 	DB	030H, 018H, 00CH, 018H, 030H, 000H, 07EH, 000H	; F2H
  177 DF98  0C 18 30 18 	DB	00CH, 018H, 030H, 018H, 00CH, 000H, 07EH, 000H	; F3H
  178 DFA0  0E 1B 1B 18 	DB	00EH, 01BH, 01BH, 018H, 018H, 018H, 018H, 018H	; F4H
  179 DFA8  18 18 18 18 	DB	018H, 018H, 018H, 018H, 018H, 0D8H, 0D8H, 070H	; F5H
  180 DFB0  18 18 00 7E 	DB	018H, 018H, 000H, 07EH, 000H, 018H, 018H, 000H	; F6H
  181 DFB8  00 76 DC 00 	DB	000H, 076H, 0DCH, 000H, 076H, 0DCH, 000H, 000H	; F7H
  182 DFC0  38 6C 6C 38 	DB	038H, 06CH, 06CH, 038H, 000H, 000H, 000H, 000H	; F8H
  183 DFC8  00 00 18 3C 	DB	000H, 000H, 018H, 03CH, 03CH, 018H, 000H, 000H	; F9h
  184 DFD0  00 00 10 38 	DB	000H, 000H, 010H, 038H, 010H, 000H, 000H, 000H	; FAh
  185 DFD8  0F 0C 0C 0C 	DB	00FH, 00CH, 00CH, 00CH, 0CCH, 06CH, 03CH, 01CH	; FBH
  186 DFE0  78 6C 6C 6C 	DB	078H, 06CH, 06CH, 06CH, 06CH, 000H, 000H, 000H	; FCH
  187 DFE8  70 18 30 60 	DB	070H, 018H, 030H, 060H, 078H, 000H, 000H, 000H	; FDH
  188 DFF0  00 00 3C 3C 	DB	000H, 000H, 03CH, 03CH, 03CH, 03CH, 000H, 000H	; FEH
  189 DFF8  FF 81 81 81 	DB	0FFH, 081H, 081H, 081H, 081H, 081H, 081H, 0FFH	; FFH
  241                   endif
  242                   
  243                   	INCLUDE	CE48.INC	; ROM-E (E000-EDFF)
    1                   ;*****************************************
    2                   ;**	CAOS 4.8	ROM E		**
    3                   ;**					**
    4                   ;**	Adresse:  E000h bis EDFFh	**
    5                   ;**					**
    6                   ;**	letzte Aenderung: 07.10.2023	**
    7                   ;*****************************************
    8                   
    9                   ;	ORG	0E000H
   10                   
   11 E000  C3 F157     	JP	BYE		; Tasten-RESET
   12 E003  C3 E59D     	JP	BEXP1		; BASIC-Erweiterung 1 - Token starten
   13 E006  C3 E5BA     	JP	BEXP2		; BASIC-Erweiterung 2
   14 E009  C3 EB90     	JP	BEXP3		; BASIC-Erweiterung 3
   15 E00C  FCEC        	DW	TOKTAB		; Token-Tabelle der Erweiterungen
SLR180 SuperFast Relocating Macro Assembler     			    SLR180 1.31 Page  94
CE48    INC

   16 E00E  C3 F876     BASIO:	JP	BASPV		; BASIC Programmverteiler
   17                   
   18 E011  7F7F        	DW	7F7FH
   19 E013  42 41 53 49 	DB	'BASIC',1
   20 E019  CD E02F     	CALL	BASON		; BASIC-ROM ein, CAOS-C aus, IRM aus
   21 E01C  C3 C00D     	JP	PRIST		; BASIC-Kaltstart
   22                   
   23 E01F  7F7F        	DW	7F7FH
   24 E021  52 45 42 41 	DB	'REBASIC',1
   25 E029  CD E02F     	CALL	BASON		; BASIC-ROM ein, CAOS-C aus, IRM aus
   26 E02C  C3 C08C     	JP	SECST		; BASIC-Warmstart
   27                   
   28                   ; BASIC vorbereiten:
   29                   ;
   30                   ; Der Einsprung BASON ist bei allen CAOS-Versionen auf E02FH und kann deshalb
   31                   ; innerhalb der mit BSAVE erzeugten KCB-Dateien zum Einschalten des BASIC-ROM
   32                   ; genutzt werden.
   33                   ; Das gilt fuer alle CAOS-Versionen ab 4.1 (ausser 4.6)
   34                   
   35 E02F  ED 5B B804  BASON:	LD	DE,(MODST+4)	; D = aktueller Schaltzustand CAOS-ROM-C
   36 E033  CB 82       	RES	0,D		; AUS
   37 E035  2E 05       	LD	L,5		; SWITCH 5 0
   38 E037  CD F0E3     	CALL	MODUSW		; CAOS-C aus
   39 E03A  16 C1       	LD	D,0C1H		; SWITCH 2 C1
   40 E03C  CD F0E1     	CALL	MODUL2		; BASIC-Ebene einschalten
   41 E03F  18 06       	JR	SCROFF		; IRM aus
   42                   
   43 E041  CD E050     PV4:	CALL	SCRON
   44 E044  CD F055     	CALL	PV3
   45 E047  F5          SCROFF:	PUSH	AF
   46 E048  DB 88       	IN	A,(PIOAD)
   47 E04A  E6 FB       	AND	11111011b	; IRM aus
   48 E04C  D3 88       	OUT	(PIOAD),A
   49 E04E  F1          	POP	AF
   50 E04F  C9          	RET
   51                   
   52 E050  F5          SCRON:	PUSH	AF
   53 E051  DB 88       	IN	A,(PIOAD)
   54 E053  F6 04       	OR	00000100b	; IRM ein
   55 E055  D3 88       	OUT	(PIOAD),A
   56 E057  F1          	POP	AF
   57 E058  C9          	RET
   58                   
   59                   ; CRT-Treiber:
   60                   
   61 E059  ED 5B B7A0  PADR0:	LD	DE,(CURSO)
   62 E05D  2A B79C     PADR1:	LD	HL,(WINON)
   63 E060  19          	ADD	HL,DE
   64 E061  CB 24       	SLA	H
   65 E063  CB 24       	SLA	H
   66 E065  CB 24       	SLA	H
   67                   ;_____________________________________________________________
   68                   ;							**34**
   69                   ; Berechne Pixel- und Farbadresse aus Zeichenposition
   70                   ; PE:	H	Vertikalposition (0 ... FFH)
   71                   ;	L	Horizontalposition (0 ... 27H)
   72                   ; PA:	HL	Zeichen- und Farbadresse*
   73                   ;	CY=1	Position ausserhalb
SLR180 SuperFast Relocating Macro Assembler     			    SLR180 1.31 Page  95
CE48    INC

   74                   ; VR:	F, HL, DE STACK: 1
   75                   
   76 E067  F5          PADR:	PUSH	AF
   77 E068  7D          	LD	A,L		; Spalte
   78 E069  6C          	LD	L,H		; Pixelzeile
   79 E06A  FE 28       	CP	28H
   80 E06C  30 06       	JR	NC,IAD2		; zu gross
   81 E06E  F6 80       	OR	80H
   82 E070  67          	LD	H,A		; HL=Pixeladresse
   83 E071  F1          IAD1:	POP	AF
   84 E072  A7          OK:	AND	A		; CY=0
   85 E073  C9          	RET
   86                   	;
   87 E074  F1          IAD2:	POP	AF
   88 E075  37          NOK:	SCF			; CY=1
   89 E076  C9          	RET
   90                   ;_____________________________________________________________
   91                   ;							**33**
   92                   ; Test Cursor im Fenster
   93                   ; PE:	D	Zeile der Cursorposition
   94                   ;	E	Spalte der Cursorposition
   95                   ; PA:	CY=1	Cursor ausserhalb
   96                   ; VR:	AF
   97                   
   98 E077  3A B79E     TCIF:	LD	A,(WINLG)	; Fenster-Breite
   99 E07A  D6 01       	SUB	1
  100 E07C  D8          	RET	C		; Breite=0
  101 E07D  93          	SUB	E		; Cursor-Spalte
  102 E07E  D8          	RET	C		; ausserhalb
  103 E07F  3A B79F     	LD	A,(WINLG+1)	; Fenster-Hoehe
  104 E082  D6 01       	SUB	1
  105 E084  D8          	RET	C		; Hoehe=0
  106 E085  92          	SUB	D		; Cursor-Zeile
  107 E086  C9          	RET
  108                   ;_____________________________________________________________
  109                   ;							**32**
  110                   ; Berechnung der VRAM-Adresse der Cursorposition
  111                   ; im gerade eingestellten Fenster und Bild
  112                   ; PE:	D	Zeile auf Bildschirm
  113                   ;	E	Spalte auf Bildschirm
  114                   ; PA:	CY=1	ausserhalb (Fehler)
  115                   ;	HL	Adresse im Speicher
  116                   ; VR:	F, HL
  117                   
  118 E087  F5          DABR:	PUSH	AF
  119 E088  CD E077     	CALL	TCIF		; Cursor im Fenster?
  120 E08B  38 E7       	JR	C,IAD2
  121 E08D  3A B79C     	LD	A,(WINON)
  122 E090  83          	ADD	A,E		; Cursor-Spalte
  123 E091  D5          	PUSH	DE
  124 E092  5F          	LD	E,A		; absolut
  125 E093  3A B79D     	LD	A,(WINON+1)
  126 E096  82          	ADD	A,D		; Cursor-Zeile
  127 E097  87          	ADD	A,A
  128 E098  87          	ADD	A,A
  129 E099  87          	ADD	A,A		; *8
  130 E09A  6F          	LD	L,A		; Pixelzeile
  131 E09B  26 00       	LD	H,0
SLR180 SuperFast Relocating Macro Assembler     			    SLR180 1.31 Page  96
CE48    INC

  132 E09D  54          	LD	D,H		; D=0
  133 E09E  29          	ADD	HL,HL
  134 E09F  29          	ADD	HL,HL		; *4
  135 E0A0  19          	ADD	HL,DE		; *5, zus. *40
  136 E0A1  5F          	LD	E,A
  137 E0A2  3A B7CC     	LD	A,(VRAM+1)
  138 E0A5  57          	LD	D,A
  139 E0A6  19          	ADD	HL,DE
  140 E0A7  D1          	POP	DE
  141 E0A8  18 C7       	JR	IAD1
  142                   ;	POP	AF		; CY=0
  143                   ;	AND	A
  144                   ;	RET
  145                   
  146 E0AA  3E 0C       CLSX:	LD	A,0Ch			; CLC
  147                   ;_____________________________________________________________
  148                   ;							**00**
  149                   ; Zeichenausgabe auf Bildschirm
  150                   ; PE:	A	Zeichencode (ASCII)
  151                   ; PA:	-
  152                   ; VR:	-
  153                   
  154 E0AC  E5          CRT:	PUSH	HL
  155 E0AD  D5          	PUSH	DE
  156 E0AE  C5          	PUSH	BC
  157 E0AF  F5          	PUSH	AF
  158 E0B0  CD E196     	CALL	PCHR		; Zeichen anzeigen
  159 E0B3  ED 53 B7A0  	LD	(CURSO),DE	; neue Cursorposition
  160 E0B7  F1          POP4:	POP	AF
  161 E0B8  C1          POP3:	POP	BC
  162 E0B9  D1          	POP	DE
  163 E0BA  E1          	POP	HL
  164 E0BB  C9          	RET
  165                   
  166                   ; Zeichen auf Grafikbildschirm sichtbar machen
  167                   ; PE:	DE	Cursorposition im Fenster
  168                   ;	A	Zeichencode
  169                   ;	STBT	Steuerbyte
  170                   
  171 E0BC  E5          WPIX:	PUSH	HL
  172 E0BD  D5          	PUSH	DE
  173 E0BE  C5          	PUSH	BC
  174 E0BF  F5          	PUSH	AF
  175 E0C0  4F          	LD	C,A		; Zeichen
  176 E0C1  2A B79C     	LD	HL,(WINON)
  177 E0C4  19          	ADD	HL,DE
  178 E0C5  EB          	EX	DE,HL		; DE:absolute Cursorposition
  179 E0C6  7B          	LD	A,E
  180 E0C7  FE 28       	CP	28H
  181 E0C9  30 EC       	JR	NC,POP4		; ausserhalb!
  182 E0CB  21 B7A2     	LD	HL,STBT
  183 E0CE  CB 6E       	BIT	5,(HL)		; IBM?
  184 E0D0  20 61       	JR	NZ,WPX14
  185 E0D2  79          	LD	A,C
  186 E0D3  21 B7A6     	LD	HL,CCTL0
  187 E0D6  87          	ADD	A,A		; *2
  188 E0D7  30 02       	JR	NC,WPX04
  189 E0D9  2E AA       	LD	L,LOW(CCTL2)
SLR180 SuperFast Relocating Macro Assembler     			    SLR180 1.31 Page  97
CE48    INC

  190 E0DB  D6 40       WPX04:	SUB	40H
  191 E0DD  F2 E0E4     	JP	P,WPX06		; CCTL0/2
  192 E0E0  2C          	INC	L
  193 E0E1  2C          	INC	L		; CCTL1/3
  194 E0E2  EE C0       	XOR	0C0H
  195 E0E4  4E          WPX06:	LD	C,(HL)
  196 E0E5  2C          	INC	L		; BC=(CCTL)
  197 E0E6  46          	LD	B,(HL)
  198 E0E7  87          	ADD	A,A		; *4
  199 E0E8  6F          	LD	L,A
  200 E0E9  26 00       	LD	H,0
  201 E0EB  29          WPX07:	ADD	HL,HL		; *8
  202 E0EC  09          	ADD	HL,BC		; HL=Pixelmuster
  203 E0ED  7A          	LD	A,D
  204 E0EE  87          	ADD	A,A
  205 E0EF  87          	ADD	A,A
  206 E0F0  87          	ADD	A,A
  207 E0F1  53          	LD	D,E
  208 E0F2  5F          	LD	E,A
  209 E0F3  CB FA       	SET	7,D		; DE=IRM-Adresse
  210 E0F5  ED 4B B7A2  	LD	BC,(STBT)
  211 E0F9  CB 49       	BIT	1,C
  212 E0FB  20 16       	JR	NZ,WPIXNC	; Farbe AUS
  213 E0FD  CD F99A     	CALL	ESC9
  214 E100  DD CB 01 5E 	BIT	3,(IX+1)
  215 E104  20 04       	JR	NZ,WPIXA	; LORES
  216 E106  CB 71       	BIT	6,C
  217 E108  20 36       	JR	NZ,WPIXH1	; HRG-Modus
  218 E10A  78          WPIXA:	LD	A,B		; Farbe
  219 E10B  43          	LD	B,E
  220 E10C  CD E186     	CALL	WCOLOR		; 8 Farbbytes
  221 E10F  58          	LD	E,B
  222 E110  CD F99A     WPIXHE:	CALL	ESC9
  223 E113  CB 41       WPIXNC:	BIT	0,C
  224 E115  20 12       	JR	NZ,WPX11	; Pixel AUS
  225 E117  DD CB 01 5E 	BIT	3,(IX+1)
  226 E11B  20 04       	JR	NZ,WPIXB	; LORES
  227 E11D  CB 71       	BIT	6,C
  228 E11F  20 2A       	JR	NZ,WPIXH2	; HRG-Modus
  229 E121  CB 51       WPIXB:	BIT	2,C
  230 E123  CC E165     	CALL	Z,WPIXEL	; normal
  231 E126  C4 E178     	CALL	NZ,WPIXI	; invers
  232 E129  CB 69       WPX11:	BIT	5,C		; IBM?
  233 E12B  28 8A       	JR	Z,POP4		; nein
  234 E12D  F1          	POP	AF
  235 E12E  CD E2A3     	CALL	OUT86		; CAOS-C wie vorher
  236 E131  18 84       	JR	POP4		; POP	AF,BC,DE,HL   RET
  237                   
  238 E133  DD 7E 04    WPX14:	LD	A,(IX+4)	; CAOS-C-Schaltzustand
  239 E136  F5          	PUSH	AF		; merken
  240                   	SETIXA	7,4		; SET 7,(IX+4),A
    1 E137  DD CB 04    	 DB	0DDh,0CBh,4
    2 E13A  FF          	 DB	7 SHL 3 OR 11000111b
  241 E13B  D3 86       	OUT	(PORT2),A	; CAOS-C ein
  242 E13D  C3 D1B5     	JP	WPIXD		; Springe zu CAOS-D-Block
  243                   
  244                   ; Farbebene im HRG-Modus
  245 E140  78          WPIXH1:	LD	A,B
SLR180 SuperFast Relocating Macro Assembler     			    SLR180 1.31 Page  98
CE48    INC

  246 E141  0F          	RRCA
  247 E142  E5          	PUSH	HL
  248 E143  D5          	PUSH	DE
  249 E144  CD E155     	CALL	WPHRG
  250 E147  D1          	POP	DE
  251 E148  E1          	POP	HL
  252 E149  18 C5       	JR	WPIXHE
  253                   
  254                   ; Pixelebene im HRG-Modus
  255 E14B  78          WPIXH2:	LD	A,B
  256 E14C  E5          	PUSH	HL
  257 E14D  D5          	PUSH	DE
  258 E14E  CD E155     	CALL	WPHRG
  259 E151  D1          	POP	DE
  260 E152  E1          	POP	HL
  261 E153  18 D4       	JR	WPX11
  262                   
  263                   ; Reaktion im HRG-Modus
  264 E155  E6 09       WPHRG:	AND	00001001b	; Bits 0,3
  265 E157  28 2D       	JR	Z,WCOLOR	; beide 0: Ebene ruecksetzen
  266 E159  EA E184     	JP	PE,COLFF	; beide 1: Ebene setzen
  267 E15C  CB 51       	BIT	2,C
  268 E15E  28 02       	JR	Z,WPHN
  269 E160  EE 09       	XOR	00001001b	; invers
  270 E162  3D          WPHN:	DEC	A
  271 E163  28 13       	JR	Z,WPIXI		; Pixel invers
  272 E165  C5          WPIXEL:	PUSH	BC
  273 E166  ED A0       	LDI			; 8 Pixelbytes kopieren
  274 E168  ED A0       	LDI			; ohne Schleife - schneller!
  275 E16A  ED A0       	LDI
  276 E16C  ED A0       	LDI
  277 E16E  ED A0       	LDI
  278 E170  ED A0       	LDI
  279 E172  ED A0       	LDI
  280 E174  ED A0       	LDI
  281 E176  C1          	POP	BC
  282 E177  C9          	RET
  283                   
  284 E178  C5          WPIXI:	PUSH	BC
  285 E179  06 08       	LD	B,8		; 8 Pixelmuster
  286 E17B  7E          WPIXI1:	LD	A,(HL)		; invers
  287 E17C  2F          	CPL
  288 E17D  12          	LD	(DE),A
  289 E17E  23          	INC	HL
  290 E17F  1C          	INC	E
  291 E180  10 F9       	DJNZ	WPIXI1
  292 E182  C1          	POP	BC
  293 E183  C9          	RET
  294                   
  295 E184  3E FF       COLFF:	LD	A,0FFH
  296 E186  12          WCOLOR:	LD	(DE),A		; 8 Farbbytes
  297 E187  1C          	INC	E
  298 E188  12          	LD	(DE),A
  299 E189  1C          	INC	E
  300 E18A  12          	LD	(DE),A
  301 E18B  1C          	INC	E
  302 E18C  12          	LD	(DE),A
  303 E18D  1C          	INC	E
SLR180 SuperFast Relocating Macro Assembler     			    SLR180 1.31 Page  99
CE48    INC

  304 E18E  12          	LD	(DE),A
  305 E18F  1C          	INC	E
  306 E190  12          	LD	(DE),A
  307 E191  1C          	INC	E
  308 E192  12          	LD	(DE),A
  309 E193  1C          	INC	E
  310 E194  12          	LD	(DE),A
  311 E195  C9          	RET
  312                   
  313                   ; CRT-Grundprogramm mit Auswertung von ESC-Sequenzen
  314                   
  315 E196  ED 5B B7A0  PCHR:	LD	DE,(CURSO)
  316 E19A  21 B7A2     	LD	HL,STBT
  317 E19D  CB 66       	BIT	4,(HL)		; ESC aktiv?
  318 E19F  28 21       	JR	Z,PCHR3
  319 E1A1  CB A6       CRT1:	RES	4,(HL)		; ESC quittieren
  320 E1A3  FE 30       	CP	'0'
  321 E1A5  D8          	RET	C		; ESC-Folgecode kleiner als '0'
  322 E1A6  FE 3A       	CP	'9'+1
  323 E1A8  30 04       	JR	NC,PCHR1	; ESC-Folgecode groesser als '9'
  324 E1AA  D6 30       	SUB	'0'
  325 E1AC  18 0A       	JR	PCHR2		; ESC-Routine aus der Tabelle ermitteln
  326                   	;
  327 E1AE  FE 41       PCHR1:	CP	'A'
  328 E1B0  D8          	RET	C		; ESC-Folgecode zwischen '9' und 'A'
  329 E1B1  CB AF       	RES	5,A		; upcase
  330 E1B3  FE 5B       	CP	'Z'+1
  331 E1B5  D0          	RET	NC		; ESC-Folgecode groesser als 'Z'
  332 E1B6  D6 37       	SUB	'A'-10
  333 E1B8  21 B7DF     PCHR2:	LD	HL,L3SIZ	; Tabelle
  334 E1BB  BE          	CP	(HL)		; lang genug?
  335 E1BC  D0          	RET	NC
  336 E1BD  2A B7DD     	LD	HL,(L3TAB)	; Tabelle der ESC-Funktionen
  337 E1C0  18 0B       	JR	PCHR4		; klar zum Ansprung
  338                   	;
  339 E1C2  FE 20       PCHR3:	CP	20H		; Steuerfunktion?
  340 E1C4  30 18       	JR	NC,PCHR5	; nein, darstellbares Zeichen
  341 E1C6  CB 5E       	BIT	3,(HL)		; Steuerzeichen darstellen?
  342 E1C8  20 14       	JR	NZ,PCHR5	; ja, nicht ausfuehren
  343 E1CA  2A B7B2     	LD	HL,(CTAB)	; Tabelle der CRT-Funktionen
  344 E1CD  87          PCHR4:	ADD	A,A		; *2
  345 E1CE  4F          	LD	C,A
  346                   ; 08.03.2020:
  347                   ; Dieser Test sorgt dafuer, dass auch kein Steuerzeichen ausgefuehrt wird,
  348                   ; wenn der Cursor nicht im Fenster ist oder das Fenster 0x0 gross ist.
  349                   ; Dann wird aber auch kein HOME oder CLS ausgefuehrt, was problematisch ist.
  350                   ; 09.03.2020: wieder verworfen
  351                   ;	CALL	TCIF		; Cursor im Fenster?
  352                   ;	RET	C		; nein, Abbruch
  353 E1CF  06 00       	LD	B,0
  354 E1D1  09          	ADD	HL,BC
  355 E1D2  7E          	LD	A,(HL)
  356 E1D3  23          	INC	HL
  357 E1D4  66          	LD	H,(HL)
  358 E1D5  6F          	LD	L,A
  359 E1D6  E9          JPHL:	JP	(HL)		; anspringen
  360                   
  361                   ; Tabulatorschritt mit Code 05h bzw. ESC '0'
SLR180 SuperFast Relocating Macro Assembler     			    SLR180 1.31 Page 100
CE48    INC

  362 E1D7  7B          ESC0:	LD	A,E		; Tabulator
  363 E1D8  F6 07       	OR	7		; 8er Schrittweite
  364 E1DA  3C          	INC	A
  365 E1DB  5F          	LD	E,A
  366 E1DC  18 09       	JR	CUR1
  367                   	;
  368 E1DE  CD E087     PCHR5:	CALL	DABR		; VRAM-Adresse berechnen
  369 E1E1  D8          	RET	C		; Abbruch, da ausserhalb des Fensters
  370 E1E2  77          	LD	(HL),A		; ASCII in VRAM eintragen
  371 E1E3  CD E0BC     	CALL	WPIX		; Zeichen darstellen
  372 E1E6  1C          CUR:	INC	E		; Cursor nach rechts
  373 E1E7  3A B79E     CUR1:	LD	A,(WINLG)
  374 E1EA  3D          	DEC	A
  375 E1EB  BB          	CP	E		; Zeilenende?
  376 E1EC  D0          	RET	NC
  377                   
  378                   ; Neue Zeile mit Code 1Eh
  379 E1ED  1E 00       NL:	LD	E,0		; Cursor ganz nach links
  380 E1EF  14          CUD:	INC	D		; naechste Zeile
  381 E1F0  3A B79F     	LD	A,(WINLG+1)
  382 E1F3  BA          	CP	D
  383 E1F4  C0          	RET	NZ
  384 E1F5  2A B7A4     	LD	HL,(WEND)
  385 E1F8  E9          	JP	(HL)		; PAGE oder SCROLL
  386                   
  387                   ; Aufruf der Hardcopy-Routine mit Code 0Fh
  388 E1F9  2A B799     HCOPY:	LD	HL,(HCADR)	; ShCLR
  389 E1FC  E9          	JP	(HL)
  390                   ;
  391                   ; Cursor nach links:
  392                   ;
  393 E1FD  7B          CUL:	LD	A,E		; Spalte
  394 E1FE  A7          	AND	A		; ganz links?
  395 E1FF  28 02       	JR	Z,CUL1
  396 E201  1D          	DEC	E		; eine Position nach links gehen
  397 E202  C9          	RET
  398                   	;
  399 E203  7A          CUL1:	LD	A,D		; Zeile
  400 E204  A7          	AND	A		; ganz oben?
  401 E205  C8          	RET	Z
  402 E206  15          	DEC	D		; eine Zeile nach oben gehen
  403 E207  3A B79E     CEL:	LD	A,(WINLG)	; Spalten im aktuellen Fenster
  404 E20A  3D          	DEC	A		; letzte Spalte
  405 E20B  5F          	LD	E,A		; Cursor auf letzte Spalte setzen
  406 E20C  C9          	RET
  407                   ;
  408                   ; Cursor nach oben:
  409                   ;
  410 E20D  7A          CUU:	LD	A,D		; Zeile
  411 E20E  A7          	AND	A		; bereits ganz oben?
  412 E20F  C8          	RET	Z
  413 E210  15          	DEC	D		; eine Zeile nach oben gehen
  414 E211  C9          	RET
  415                   
  416 E212  21 E281     PAGEM:	LD	HL,HOMEPG	; ShCUU
  417 E215  22 B7A4     WADR:	LD	(WEND),HL
  418 E218  C9          	RET
  419                   
SLR180 SuperFast Relocating Macro Assembler     			    SLR180 1.31 Page 101
CE48    INC

  420 E219  21 E286     SCROL:	LD	HL,SCRLPG	; ShCUD
  421 E21C  18 F7       	JR	WADR
  422                   
  423                   ; Zeichen nach links loeschen mit Code 01h
  424 E21E  CD E1FD     CLR:	CALL	CUL		; Cursor nach links
  425                   
  426                   ; Zeichen unter Cursor loeschen mit Code 1Fh
  427 E221  D5          DEL:	PUSH	DE		; Cursor retten
  428 E222  CD E087     	CALL	DABR
  429 E225  7E          	LD	A,(HL)
  430 E226  A7          	AND	A		; Ende?
  431 E227  28 29       	JR	Z,POPDE
  432 E229  E5          	PUSH	HL		; VRAM
  433 E22A  D5          DEL1:	PUSH	DE		; Cursor
  434 E22B  1C          	INC	E		; naechste Spalte
  435 E22C  CD E087     	CALL	DABR		; raus?
  436 E22F  30 08       	JR	NC,DEL2
  437 E231  1E 00       	LD	E,0		; ja, wie NL
  438 E233  14          	INC	D
  439 E234  CD E087     	CALL	DABR		; raus?
  440 E237  38 10       	JR	C,DEL3		; ja-wie Ende
  441 E239  7E          DEL2:	LD	A,(HL)
  442 E23A  A7          	AND	A		; Ende?
  443 E23B  28 0C       	JR	Z,DEL3
  444 E23D  42          	LD	B,D
  445 E23E  4B          	LD	C,E		; BC:=DE
  446 E23F  D1          	POP	DE		; DE=links davon
  447 E240  E3          	EX	(SP),HL		; HL=VRAM links
  448 E241  77          	LD	(HL),A		; eintragen
  449 E242  CD E0BC     	CALL	WPIX		; zeichnen
  450 E245  50          	LD	D,B
  451 E246  59          	LD	E,C		; DE:=BC
  452 E247  18 E1       	JR	DEL1		; von vorn
  453                   
  454 E249  D1          DEL3:	POP	DE
  455 E24A  E1          	POP	HL
  456 E24B  36 00       	LD	(HL),0
  457 E24D  3E 20       	LD	A,' '
  458 E24F  CD E0BC     	CALL	WPIX
  459 E252  D1          POPDE:	POP	DE
  460 E253  C9          	RET
  461                   
  462 E254  D5          INS:	PUSH	DE		; Cursor
  463 E255  3E 20       	LD	A,' '
  464 E257  CD E087     	CALL	DABR
  465 E25A  46          INS1:	LD	B,(HL)		; VRAM
  466 E25B  77          	LD	(HL),A		; neues Zeichen
  467 E25C  CD E0BC     	CALL	WPIX		; zeichnen
  468 E25F  78          	LD	A,B
  469 E260  A7          	AND	A		; Dummy?
  470 E261  28 0E       	JR	Z,INS2
  471 E263  1C          	INC	E		; CUR
  472 E264  CD E087     	CALL	DABR		; raus?
  473 E267  30 F1       	JR	NC,INS1
  474 E269  1E 00       	LD	E,0		; wie NL
  475 E26B  14          	INC	D
  476 E26C  CD E087     	CALL	DABR		; raus?
  477 E26F  30 E9       	JR	NC,INS1
SLR180 SuperFast Relocating Macro Assembler     			    SLR180 1.31 Page 102
CE48    INC

  478 E271  D1          INS2:	POP	DE		; wenn ja Schluss
  479 E272  C9          	RET
  480                   
  481                   ; Bildschirm loeschen mit Code 0Ch (ShHOME)
  482 E273  3A B79F     CLS:	LD	A,(WINLG+1)	; Anzahl Zeilen
  483 E276  16 00       	LD	D,0		; Zeile 0
  484 E278  F5          CLS1:	PUSH	AF
  485 E279  CD E295     	CALL	CLLN		; Zeile loeschen
  486 E27C  F1          	POP	AF
  487 E27D  14          	INC	D
  488 E27E  3D          	DEC	A
  489 E27F  20 F7       	JR	NZ,CLS1		; A Zeilen
  490                   
  491                   ; Cursor in Home-Position mit Code 10h
  492 E281  16 00       HOMEPG:	LD	D,0		; Zeile 0
  493 E283  1E 00       CBL:	LD	E,0		; Spalte 0
  494 E285  C9          	RET
  495                   
  496                   ; Scrollroutine
  497 E286  DD 7E 04    SCRLPG:	LD	A,(IX+4)	; CAOS-C-Schaltzustand
  498 E289  F5          	PUSH	AF		; merken
  499                   	SETIXA	7,4		; SET 7,(IX+4),A
    1 E28A  DD CB 04    	 DB	0DDh,0CBh,4
    2 E28D  FF          	 DB	7 SHL 3 OR 11000111b
  500 E28E  D3 86       	OUT	(PORT2),A	; CAOS-C ein
  501 E290  CD D235     	CALL	SCRLD		; weiter im CAOS-D-Segment
  502 E293  18 0D       	JR	CCRES
  503                   
  504                   ; Zeile loeschen mit Code 02h (ShDEL)
  505 E295  DD 7E 04    CLLN:	LD	A,(IX+4)	; CAOS-C-Schaltzustand
  506 E298  F5          	PUSH	AF		; merken
  507                   	SETIXA	7,4		; SET 7,(IX+4),A
    1 E299  DD CB 04    	 DB	0DDh,0CBh,4
    2 E29C  FF          	 DB	7 SHL 3 OR 11000111b
  508 E29D  D3 86       	OUT	(PORT2),A	; CAOS-C ein
  509 E29F  CD D27C     	CALL	CLLND		; weiter im CAOS-D-Segment
  510 E2A2  F1          CCRES:	POP	AF
  511 E2A3  DD 77 04    OUT86:	LD	(IX+4),A	; CAOS-C
  512 E2A6  D3 86       	OUT	(PORT2),A	; wie vorher
  513 E2A8  C9          	RET
  514                   
  515 E2A9  01 0A0F     BEEP:	LD	BC,0A0FH	; B=Dauer, C=Lautstaerke
  516 E2AC  21 0030     	LD	HL,48		; HL=Tonhoehe 1
  517 E2AF  D5          	PUSH	DE
  518 E2B0  5C          	LD	E,H		; E=0 (keine Tonhoehe 2)
  519 E2B1  CD F8FA     	CALL	TON2
  520 E2B4  3E 1E       	LD	A,30
  521 E2B6  CD FC24     	CALL	WAIT		; 30*6ms=180ms
  522 E2B9  3E 03       	LD	A,3
  523 E2BB  D3 8C       	OUT	(CTC0),A
  524 E2BD  3E 10       	LD	A,16		; 16*6ms=96ms
  525 E2BF  D1          	POP	DE
  526                   ;
  527                   ; Zeitschleife 6ms fuer UP WAIT
  528                   ; PE:	A=0
  529                   ; PA:	A=0
  530                   ;
  531 E2C0  3D          WTUP:	DEC	A		; 4 Takte
SLR180 SuperFast Relocating Macro Assembler     			    SLR180 1.31 Page 103
CE48    INC

  532 E2C1  C8          	RET	Z		; 5 (11) Takte
  533 E2C2  F5          	PUSH	AF		; 11 Takte
  534 E2C3  F1          	POP	AF		; 10 Takte
  535 E2C4  18 FA       	JR	WTUP		; 12 Takte
  536                   ;
  537                   ; Ton fuer Tastenclick
  538                   ;
  539 E2C6  01 0307     CLIK:	LD	BC,0307H	; B=Dauer, C=Lautstaerke
  540 E2C9  21 0024     	LD	HL,36		; HL=Tonhoehe 1
  541 E2CC  D5          	PUSH	DE
  542 E2CD  5C          	LD	E,H		; E=0 (Tonhoehe 2)
  543 E2CE  CD F8FA     	CALL	TON2		; Ton ausgeben
  544 E2D1  D1          	POP	DE
  545 E2D2  C9          	RET
  546                   
  547 E2D3  21 B7A3     ESC8:	LD	HL,COLOR	; Farbtausch
  548 E2D6  7E          	LD	A,(HL)
  549 E2D7  E6 07       	AND	00000111b	; Hintergrund
  550 E2D9  07          	RLCA
  551 E2DA  07          	RLCA
  552 E2DB  07          	RLCA
  553 E2DC  4F          	LD	C,A
  554 E2DD  7E          	LD	A,(HL)
  555 E2DE  E6 38       	AND	00111000b	; Vordergrund
  556 E2E0  0F          	RRCA
  557 E2E1  0F          	RRCA
  558 E2E2  0F          	RRCA
  559 E2E3  B1          	OR	C
  560 E2E4  4F          	LD	C,A
  561 E2E5  7E          	LD	A,(HL)
  562 E2E6  E6 C0       	AND	11000000b	; Attribute
  563 E2E8  B1          	OR	C
  564                   ;_____________________________________________________________
  565                   ;							**28**
  566                   ; LD (HL),A fuer PV4-PV6
  567                   ; PE:	A	Byte
  568                   ;	HL	Adresse
  569                   ; PA:	-
  570                   ; VR:	-
  571                   
  572 E2E9  77          LDMA:	LD	(HL),A
  573 E2EA  C9          	RET
  574                   ;_____________________________________________________________
  575                   ;							**29**
  576                   ; LD A,(HL) fuer PV4-PV6
  577                   ; PE:	HL	Adresse
  578                   ; PA:	A	Byte auf Adresse (HL)
  579                   ; VR:	A
  580                   
  581 E2EB  7E          LDAM:	LD	A,(HL)
  582 E2EC  C9          	RET
  583                   
  584 E2ED  DD 7E 08    CLICK:	LD	A,(IX+8)	; ShINS
  585 E2F0  EE 20       	XOR	20H
  586 E2F2  DD 77 08    	LD	(IX+8),A
  587 E2F5  C9          	RET
  588                   ;
  589                   ;*__*__*__*__*__*__*__*__*__*__*__*__*__
SLR180 SuperFast Relocating Macro Assembler     			    SLR180 1.31 Page 104
CE48    INC

  590                   ;
  591                   ;	=== KBD-Treiber ===
  592                   
  593                   ; Z E I T I N T E R R U P T
  594                   ;
  595                   ; ISR CTC Kanal 3 (Tastatur)
  596                   ; Taste losgelassen
  597                   ;
  598 E2F6  FB          ISRC3:	EI
  599 E2F7  F5          	PUSH	AF
  600 E2F8  3E 23       	LD	A,23H	  	; DI, ZG256, Reset
  601 E2FA  D3 8F       	OUT	(CTC3),A
  602 E2FC  DD 36 0D 00 	LD	(IX+13),0	; Zeichen tot
  603 E300  18 5A       	JR	TST5		; freigeben
  604                   ;
  605                   ;*__*__*__*__*__*__*__*__*__*__*__*__*__
  606                   ;
  607                   ; Keyboard-Interrupt-Routine
  608                   ; Zeitkonstanten:
  609                   ;
  610         008F      TCTZK	EQU	143	; 8FH
  611         0065      TGE0	EQU	101	; 65H
  612         0042      TGE1	EQU	66	; 42H
  613         0014      FEHL1	EQU	20
  614         0078      FEHL2	EQU	120
  615                   ;
  616                   ; T A S T A T U R I N T E R R U P T
  617                   ;
  618                   ; ISR PIO Kanal B (Tastatur)
  619                   ; Taste gedrueckt
  620                   ;
  621 E302  F5          ISRPB:	PUSH	AF
  622 E303  DB 8F       	IN	A,(CTC3)	; gemessene Zeit
  623 E305  F5          	PUSH	AF
  624 E306  3E A7       	LD	A,0A7H		; EI, ZG256, Reset
  625 E308  D3 8F       	OUT	(CTC3),A
  626 E30A  3E 8F       	LD	A,TCTZK		; Zeitkonstante
  627 E30C  D3 8F       	OUT	(CTC3),A
  628 E30E  F1          	POP	AF
  629 E30F  FB          	EI
  630 E310  FE 14       	CP	FEHL1		; neue Betaetigung? (Zeitinterrupt ausgeloest)
  631 E312  38 48       	JR	C,TST5		; oder zu lang
  632 E314  FE 78       	CP	FEHL2
  633 E316  30 44       	JR	NC,TST5		; zu kurz
  634 E318  FE 65       	CP	TGE0		; Diskriminator
  635 E31A  30 04       	JR	NC,TST1		; 0-Bit
  636 E31C  C6 BE       	ADD	A,-TGE1		; 1-Bit
  637 E31E  30 06       	JR	NC,TST2		; Stop-Bit
  638 E320  DD CB 0C 1E TST1:	RR	(IX+12)		; Bit einschieben
  639 E324  18 36       	JR	TST5
  640                   	;
  641 E326  E5          TST2:	PUSH	HL
  642 E327  D5          	PUSH	DE
  643 E328  DD 7E 0C    	LD	A,(IX+12)	; Wortregister
  644 E32B  1F          	RRA			; 7bit-Scancode
  645 E32C  EE 01       	XOR	1		; Startbit invertieren
  646                   ;
  647                   ; in CAOS 5.0/6.0 wird Shift-BRK hier zu Soft-Reset abgefragt
SLR180 SuperFast Relocating Macro Assembler     			    SLR180 1.31 Page 105
CE48    INC

  648                   ; das koennte hier so aussehen:
  649                   ;
  650                   ;	CP	61		; Scancode Shift-BRK
  651                   ;	JR	NZ,IBRK
  652                   ;IBRK:	CALL	IRET		; Interrupts freigeben
  653                   ;	JP	BYE		; Sprung zu RESET
  654                   ;IBRK:
  655 E32E  DD 6E 0E    	LD	L,(IX+14)
  656 E331  DD 66 0F    	LD	H,(IX+15)	; aktuelle KTAB-Adresse
  657 E334  16 00       	LD	D,0
  658 E336  5F          	LD	E,A
  659 E337  19          	ADD	HL,DE		; Position in KTAB
  660 E338  7E          	LD	A,(HL)		; ASCII holen
  661 E339  DD CB 08 7E 	BIT	7,(IX+8)	; CAPS aktiv?
  662 E33D  20 07       	JR	NZ,TST3		; 1=nein
  663 E33F  FE 40       	CP	40H
  664 E341  FA E346     	JP	M,TST3		; Befehl aus CAOS 3.4 uebernommen
  665 E344  EE 20       	XOR	20H		; klein<=>gross
  666 E346  57          TST3:	LD	D,A		; Code merken
  667 E347  DD BE 0D    	CP	(IX+13)		; gleicher Code wie zuvor?
  668 E34A  20 17       	JR	NZ,TST6		; nein
  669 E34C  21 B7E0     	LD	HL,COUNT
  670 E34F  CD E39E     	CALL	IRMGET
  671 E352  DD BE 0A    	CP	(IX+10)		; FastRepeat?
  672 E355  38 1C       	JR	C,TST7
  673 E357  DD 34 0A    	INC	(IX+10)		; Zeit abwarten
  674 E35A  D1          TST4:	POP	DE
  675 E35B  E1          	POP	HL
  676 E35C  DB 89       TST5:	IN	A,(PIOBD)	; PIO-Logik
  677 E35E  D3 89       	OUT	(PIOBD),A	; freigeben
  678 E360  F1          	POP	AF
  679 E361  ED 4D       	RETI
  680                   
  681 E363  DD 36 0A 00 TST6:	LD	(IX+10),0	; neuer Code
  682 E367  FE 16       	CP	16H		; CAPS?
  683 E369  20 09       	JR	NZ,TST8
  684 E36B  DD 7E 08    	LD	A,(IX+8)
  685 E36E  EE 80       	XOR	80H		; CAPS on/off
  686 E370  DD 77 08    	LD	(IX+8),A
  687 E373  7A          TST7:	LD	A,D		; Code
  688 E374  DD 77 0D    TST8:	LD	(IX+13),A	; eintragen
  689 E377  DD CB 08 C6 	SET	0,(IX+8)	; gueltig machen
  690 E37B  18 DD       	JR	TST4
  691                   ;_____________________________________________________________
  692                   ;							**0C**
  693                   ; Tastaturabfrage ohne Quittung
  694                   
  695 E37D  B7          KBDS:	OR	A		; CY=0
  696 E37E  DD CB 08 46 	BIT	0,(IX+8)	; Code gueltig?
  697 E382  C8          	RET	Z		; nein
  698 E383  DD 7E 0D    	LD	A,(IX+13)	; Tastencode holen
  699 E386  37          	SCF			; und mit CY=1 zurueck melden
  700 E387  C9          	RET
  701                   ;_____________________________________________________________
  702                   ;							**0E**
  703                   ; Tastaturabfrage mit Quittung
  704                   
  705 E388  CD E37D     KBDZ:	CALL	KBDS		; Tastaturabfrage
SLR180 SuperFast Relocating Macro Assembler     			    SLR180 1.31 Page 106
CE48    INC

  706 E38B  D0          	RET	NC		; keine Taste gedrueckt
  707 E38C  DD CB 08 86 	RES	0,(IX+8)	; Taste quittieren
  708 E390  C9          	RET
  709                   ;_____________________________________________________________
  710                   ;							**42**
  711 E391  E5          CSTBT:	PUSH	HL
  712 E392  21 B7A2     	LD	HL,STBT
  713 E395  CB DE       	SET	3,(HL)
  714 E397  CD F3BB     	CALL	OCHR		; Steuerzeichen darstellen
  715 E39A  CB 9E       	RES	3,(HL)
  716 E39C  E1          	POP	HL
  717 E39D  C9          	RET
  718                   ;
  719                   ; Arbeitszelle aus IRM lesen (innerhalb eines Interrupt)
  720                   ; PE:	HL	Adresse
  721                   ; PA:	A	Inhalt
  722                   ; VR:	A
  723                   ;
  724 E39E  D5          IRMGET:	PUSH	DE
  725 E39F  DB 88       	IN	A,(PIOAD)
  726 E3A1  5F          	LD	E,A		; IRM-Schaltzustand in Reg. E merken
  727 E3A2  CB D7       	SET	2,A		; IRM on!
  728 E3A4  F3          	DI			; damit Stack nicht genutzt wird!
  729 E3A5  D3 88       	OUT	(PIOAD),A
  730 E3A7  56          	LD	D,(HL)		; Arbeitszelle lesen
  731 E3A8  7B          	LD	A,E
  732 E3A9  D3 88       	OUT	(PIOAD),A	; IRM wie zuvor
  733 E3AB  FB          	EI
  734 E3AC  7A          	LD	A,D		; Wert nach A uebergeben
  735 E3AD  D1          	POP	DE
  736 E3AE  C9          	RET
  737                   ;
  738                   ; ISR fuer Fremdtastatur an SIO-B
  739                   ;
  740 E3AF  F5          ISRT:	PUSH	AF
  741 E3B0  E5          	PUSH	HL
  742 E3B1  D5          	PUSH	DE
  743 E3B2  C5          	PUSH	BC
  744 E3B3  21 A800     	LD	HL,V24PL	; Steckplatz M003
  745 E3B6  CD E39E     	CALL	IRMGET		; aus IRM lesen, Rueckkehr mit EI
  746 E3B9  47          	LD	B,A		; Steckplatz M003 holen
  747 E3BA  0E 80       	LD	C,80H
  748 E3BC  3E 01       	LD	A,1
  749 E3BE  ED 79       	OUT	(C),A		; Modul einschalten
  750 E3C0  DB 09       	IN	A,(9)		; empfangenen Code abholen
  751 E3C2  5F          	LD	E,A		; Code in Reg. E merken
  752 E3C3  A7          	AND	A
  753 E3C4  28 0E       	JR	Z,IST2		; Code 0 (Taste losgelassen)
  754 E3C6  DD BE 0D    	CP	(IX+13)		; 2x gleicher Tastencode?
  755 E3C9  3E 00       	LD	A,0		; kein Repeat
  756 E3CB  20 07       	JR	NZ,IST2
  757 E3CD  21 B7E0     	LD	HL,COUNT	; Repeat-Counter
  758 E3D0  CD E39E     	CALL	IRMGET		; aus IRM lesen
  759 E3D3  3C          	INC	A		; sofort aktivieren
  760 E3D4  DD 77 0A    IST2:	LD	(IX+10),A	; repeat setzen
  761 E3D7  7B          	LD	A,E		; gemerkten
  762 E3D8  DD 77 0D    	LD	(IX+13),A	; Code eintragen
  763 E3DB  A7          	AND	A		; Code=0 ?
SLR180 SuperFast Relocating Macro Assembler     			    SLR180 1.31 Page 107
CE48    INC

  764 E3DC  28 04       	JR	Z,IST3		; ja
  765 E3DE  DD CB 08 C6 	SET	0,(IX+8)	; sonst aktivieren
  766 E3E2  26 B8       IST3:	LD	H,HIGH(MODST)	; Modulsteuerbytespeicher
  767 E3E4  68          	LD	L,B		; Steckplatz
  768 E3E5  CD E39E     	CALL	IRMGET		; Schaltzustand vor ISR ermitteln
  769 E3E8  ED 79       	OUT	(C),A		; und wiederherstellen
  770 E3EA  C1          	POP	BC
  771 E3EB  18 48       	JR	IPOP3		; POP DE,HL,AF; RETI
  772                   
  773                   ;	=== Joystick-Treiber fuer M008/M021 ===
  774                   
  775 E3ED  F5          ISRJ:	PUSH	AF
  776 E3EE  DB 90       	IN	A,(90h)		; M008 PIO A Daten
  777 E3F0  FB          	EI
  778 E3F1  2F          	CPL
  779 E3F2  E5          	PUSH	HL
  780 E3F3  D5          	PUSH	DE
  781 E3F4  E6 3F       	AND	00111111b	; Achsbewegung und/oder Feuertaste?
  782 E3F6  28 42       	JR	Z,ISRJ4
  783 E3F8  FE 10       	CP	00010000b	; Feuertaste?
  784 E3FA  38 06       	JR	C,ISRJ1
  785 E3FC  E6 30       	AND	00110000b	; Ignoriere Achse: Feuertasten haben Vorrang
  786 E3FE  0F          	RRCA			; Nutze Luecken zwischen den Achsrichtungen in
  787 E3FF  0F          	RRCA			; der Tastaturcode-Tabelle fuer Feuertasten
  788 E400  EE 0F       	XOR	00001111b	; A=0000xx11
  789 E402  C5          ISRJ1:	PUSH	BC
  790 E403  4F          	LD	C,A		; Tabellenindex
  791 E404  06 00       	LD	B,0
  792 E406  DB 88       	IN	A,(PIOAD)
  793 E408  57          	LD	D,A
  794 E409  F6 04       	OR	00000100b	; IRM ein
  795 E40B  F3          	DI
  796 E40C  D3 88       	OUT	(PIOAD),A
  797 E40E  2A B7F0     	LD	HL,(JOYTAB)	; Adresse der Codetabelle fuer Joystick
  798 E411  5E          	LD	E,(HL)		; Wartezyklen waehrend Tastenwiederholung
  799 E412  09          	ADD	HL,BC		; Tastaturcode nachschlagen
  800 E413  6E          	LD	L,(HL)
  801 E414  3A B7E0     	LD	A,(COUNT)	; Wartezyklen vor erster Wiederholung
  802 E417  67          	LD	H,A		; (entsprechend Abfragerate der Tastatur)
  803 E418  7A          	LD	A,D
  804 E419  D3 88       	OUT	(PIOAD),A	; IRM-Zustand wiederherstellen
  805 E41B  FB          	EI
  806 E41C  C1          	POP	BC
  807 E41D  3E 4F       	LD	A,01001111b	; Byte-Eingabemodus (mit Strobe-Interrupt)
  808 E41F  D3 92       	OUT	(92h),A		; M008 PIO A Steuerwort
  809 E421  7D          	LD	A,L
  810 E422  A7          	AND	A		; Tastencode zugewiesen?
  811 E423  28 10       	JR	Z,IPOP3
  812 E425  DD BE 0D    	CP	(IX+13)		; neuer Tastencode?
  813 E428  28 28       	JR	Z,ISRJ5
  814 E42A  DD 77 0D    	LD	(IX+13),A	; Tastencode eintragen
  815 E42D  AF          	XOR	A
  816 E42E  DD CB 08 C6 ISRJ2:	SET	0,(IX+8)	; gueltig markieren
  817 E432  DD 77 0A    ISRJ3:	LD	(IX+10),A	; Zaehler zuruecksetzen
  818 E435  D1          IPOP3:	POP	DE
  819 E436  E1          	POP	HL
  820 E437  F1          	POP	AF
  821 E438  ED 4D       	RETI
SLR180 SuperFast Relocating Macro Assembler     			    SLR180 1.31 Page 108
CE48    INC

  822                   
  823 E43A  DD BE 0A    ISRJ4:	CP	(IX+10)		; vorheriger Code war neu? (A war 0)
  824 E43D  3C          	INC	A
  825 E43E  30 F2       	JR	NC,ISRJ3	; dann zum Entprellen einen Zyklus warten
  826 E440  21 ED77     	LD	HL,JOYINI
  827 E443  F3          	DI
  828 E444  CD F54B     	CALL	INIEA		; Ruhestellung: Strobe-Interrupt wieder aus
  829 E447  FB          	EI
  830 E448  AF          	XOR	A
  831 E449  DD 77 0D    	LD	(IX+13),A	; Tastencode loeschen
  832 E44C  DD CB 08 86 	RES	0,(IX+8)	; ungueltig markieren
  833 E450  18 E0       	JR	ISRJ3
  834                   
  835 E452  7C          ISRJ5:	LD	A,H		; Wartezyklen vor erster Wiederholung
  836 E453  87          	ADD	A,A		; an Abfragerate des Joysticks anpassen
  837 E454  87          	ADD	A,A		; (COUNT sollte kleiner als 64 sein)
  838 E455  BB          	CP	E		; weniger als waehrend Wiederholung?
  839 E456  30 01       	JR	NC,ISRJ6
  840 E458  7B          	LD	A,E		; Zaehlerende = max(A,E)
  841 E459  67          ISRJ6:	LD	H,A
  842 E45A  DD 7E 0A    	LD	A,(IX+10)
  843 E45D  BC          	CP	H		; Zaehlerende erreicht?
  844 E45E  3C          	INC	A
  845 E45F  38 D1       	JR	C,ISRJ3
  846 E461  7C          	LD	A,H		; Zaehler = Endwert - Wartezyklen
  847 E462  93          	SUB	E
  848 E463  18 C9       	JR	ISRJ2		; erneut gueltig markieren
  849                   ;
  850                   ; Initialisierung vor Kassetten-I/O
  851                   ;
  852 E465  DD 36 03 01 ISRI1:	LD	(IX+3),1	; 1. Block lesen
  853 E469  F3          	DI
  854 E46A  DB 88       	IN	A,(PIOAD)
  855 E46C  F6 40       	OR	01000000b	; Motor ein
  856 E46E  E6 DF       	AND	11011111b	; LED aus
  857 E470  D3 88       ISRO1:	OUT	(PIOAD),A
  858 E472  FB          	EI
  859 E473  2A B7A4     	LD	HL,(WEND)	; Page/Scroll-Modus
  860 E476  22 B7CF     	LD	(ZWEND),HL	; hier merken
  861 E479  CD F36A     	CALL	NOUT		; CRT-Ausgabe (kein Drucker!)
  862 E47C  22 B7CD     	LD	(ZOTAB),HL	; alten Zeiger hier merken
  863 E47F  CD E212     	CALL	PAGEM		; Page Mode
  864 E482  3E 03       TOFF:	LD	A,3		; CTC Stop
  865 E484  D3 8C       	OUT	(CTC0),A	; Tonhoehe Kanal 1
  866 E486  D3 8D       	OUT	(CTC1),A	; Tonhoehe Kanal 2
  867 E488  DD CB 08 8E 	RES	1,(IX+8)	; Ton ist jetzt aus
  868 E48C  18 1D       	JR	CSRO2
  869                   ;_____________________________________________________________
  870                   ;							**09**
  871                   ; Abschluss Bandausgabe
  872                   ; PA:	CY=0
  873                   
  874 E48E  DD 36 02 FE TCSRO:	LD	(IX+2),0FEH	; FFH = Kennung Ende-Block
  875 E492  CD D011     	CALL	TMBO		; Block auf Kassette ausgeben
  876                   ;_____________________________________________________________
  877                   ;							**0B**
  878                   ; Abschluss Bandeingabe
  879                   ; PA:	CY=0
SLR180 SuperFast Relocating Macro Assembler     			    SLR180 1.31 Page 109
CE48    INC

  880                   
  881 E495  2A B7CD     TCSRI:	LD	HL,(ZOTAB) 	; intern
  882 E498  22 B7B9     	LD	(OUTAB),HL
  883 E49B  2A B7CF     	LD	HL,(ZWEND)	; grosses
  884 E49E  22 B7A4     	LD	(WEND),HL	; Ruecksetzen
  885                   ;	CALL	CLC		; Puffer loeschen (VR: HL)
  886 E4A1  DB 88       	IN	A,(PIOAD)
  887 E4A3  E6 9F       	AND	10011111b	; Motor, LED aus
  888 E4A5  D3 88       	OUT	(PIOAD),A
  889                   ;	CALL	CRLF		; VR: AF
  890 E4A7  DD CB 08 86 	RES	0,(IX+8)	; kein Tastencode im Puffer
  891 E4AB  DD CB 01 5E CSRO2:	BIT	3,(IX+1)	; HiRes?
  892 E4AF  28 06       	JR	Z,CSRO3
  893 E4B1  DB 89       	IN	A,(PIOBD)	; nein
  894 E4B3  CB FF       	SET	7,A		; Blinken ein
  895 E4B5  D3 89       	OUT	(PIOBD),A
  896 E4B7  DD CB 08 4E CSRO3:	BIT	1,(IX+8)	; neuer Ton?
  897 E4BB  20 FA       	JR	NZ,CSRO3	; Ende abwarten
  898 E4BD  DB 88       	IN	A,(PIOAD)
  899 E4BF  6F          	LD	L,A		; Schaltzustand IRM merken
  900 E4C0  CB D7       	SET	2,A		; IRM on
  901 E4C2  F3          	DI			; Interrupt verbieten wegen Stacknutzung
  902 E4C3  D3 88       	OUT	(PIOAD),A
  903 E4C5  3A B7DB     	LD	A,(CTCMD)	; CTC2-Modus
  904 E4C8  E6 60       	AND	01100000b	; nur Zaehler/Zeitgeber und Vorteiler verwenden
  905 E4CA  F6 07       	OR	00000111b	; immer RESET, Zeitkonstante laden
  906 E4CC  D3 8E       	OUT	(CTC2),A	; Blinken
  907 E4CE  3A B7DC     	LD	A,(BLINK)	; ZK laden
  908 E4D1  D3 8E       	OUT	(CTC2),A
  909 E4D3  7D          	LD	A,L
  910 E4D4  D3 88       	OUT	(PIOAD),A	; IRM wie zuvor einstellen
  911 E4D6  FB          EIRET:	EI			; Interrupt wieder ein
  912 E4D7  C9          	RET
  913                   ;
  914                   ; Kassettenpuffer loeschen:
  915                   ; PA:	DE = CASS
  916                   ;	A = 0
  917                   ; VR:	DE,A
  918                   ;
  919 E4D8  11 B780     CLC:	LD	DE,CASS+80H
  920 E4DB  AF          	XOR	A
  921 E4DC  1D          CLC1:	DEC	E
  922 E4DD  12          	LD	(DE),A
  923 E4DE  20 FC       	JR	NZ,CLC1
  924 E4E0  C9          	RET
  925                   
  926                   ; Aufruf Treiberroutinen aehnlich PV1 mit CALL PV7, DB nr.
  927                   ; Nr.	 0 = MBO
  928                   ;	 1 = MBI
  929                   ;	 2 = ISRO
  930                   ;	 3 = CSRO
  931                   ;	 4 = ISRI
  932                   ;	 5 = CSRI
  933                   ;	 6 = MBIN - nicht mehr erforderlich
  934                   ;	 7 = MBOUT - nicht mehr erforderlich
  935                   ;	 8 = DIR
  936                   ;	 9 = CD
  937                   ;	10 = ERA
SLR180 SuperFast Relocating Macro Assembler     			    SLR180 1.31 Page 110
CE48    INC

  938                   ;	11 = REN
  939                   ; PE:	entsprechend der aufgerufenen Routine
  940                   ; PA:	entsprechend der aufgerufenen Routine
  941                   ;	CY=1	Fehler (Nr. groesser 11)
  942                   ; VR:	-
  943                   ;										auf Stack liegt:
  944 E4E1  F5          PV7:	PUSH	AF		;						 RET >AF<
  945 E4E2  F5          	PUSH	AF		;						 RET  AF   >AF<
  946 E4E3  F3          	DI			; wegen Stack-Operation sperren
  947 E4E4  F1          	POP	AF		; und wieder bereinigen				 RET >AF<   AF
  948 E4E5  F1          	POP	AF		;						>RET< AF    AF
  949 E4E6  E3          	EX	(SP),HL		; HL = RET-Adresse wo CALL herkommt		>HL<  AF    AF
  950 E4E7  7E          	LD	A,(HL)		; nr. lesen
  951 E4E8  23          	INC	HL		; nr uebergehen
  952 E4E9  E3          	EX	(SP),HL		; neue RET-Adresse nach Datenbyte		>RET< AF    AF
  953                   
  954 E4EA  C6 F4       	ADD	-12		; Treiberfunktion > 11?
  955 E4EC  38 E8       	JR	C,EIRET		; Abbruch bei Fehler => EI, RET von CRSO3, PA:CY=1
  956 E4EE  CD E529     	CALL	PV70		; Modul ein und Funktion ausfuehren		 RET >MOFF< AF
  957                   
  958                   ; 3. Module nach Treiberaufruf wieder schalten wie zuvor
  959                   
  960 E4F1  E5          MOFF:	PUSH	HL
  961 E4F2  D5          	PUSH	DE
  962 E4F3  C5          	PUSH	BC
  963 E4F4  F5          	PUSH	AF
  964                   
  965                   	; hier alle davor liegenden Speichermodule wieder einschalten?
  966                   
  967 E4F5  21 B802     	LD	HL,MODST+2	; SWITCH 2 n
  968 E4F8  56          	LD	D,(HL)		; aktuelles Steuerbyte
  969 E4F9  CD F0E3     	CALL	MODUSW		; USER-ROM wie vorher schalten
  970 E4FC  CD ED6B     	CALL	DEVH		; DEVICE-Nr. in Bit 5-7, (HL)=Sprungadresse
  971 E4FF  F6 02       	OR	2		; DEVTAB+2
  972 E501  6F          	LD	L,A
  973 E502  56          	LD	D,(HL)		; Steuerbyte fuer AUS
  974 E503  2D          	DEC	L
  975 E504  7E          	LD	A,(HL)		; Steckplatz
  976                   
  977 E505  6F          	LD	L,A		; Steckplatz in L
  978 E506  FE 05       	CP	5		; CAOS-ROM C?
  979 E508  28 09       	JR	Z,M4
  980 E50A  CD F0E3     	CALL	MODUSW		; Modul ausschalten (falls nicht CAOS-ROM C)
  981 E50D  3A B805     	LD	A,(MODST+5)	; vorheriger Schaltzustand CAOS-C
  982 E510  E6 01       	AND	1		; ohne Merkbit 7
  983 E512  57          	LD	D,A
  984 E513  21 B805     M4:	LD	HL,MODST+5	; SWITCH 5 n
  985 E516  7E          	LD	A,(HL)		; vorheriger Schaltzustand in Bit 7
  986 E517  72          	LD	(HL),D		; urspruenglicher Schaltzustand vor PV7
  987 E518  E6 80       	AND	80h		; nur Bit 7 betrachten
  988 E51A  DD 7E 04    	LD	A,(IX+4)
  989 E51D  CB BF       	RES	7,A		; CAOS-C aus
  990 E51F  28 02       	JR	Z,M5		; es war auch aus!
  991 E521  CB FF       	SET	7,A		; CAOS-C ein
  992 E523  CD E2A3     M5:	CALL	OUT86		; CAOS-C wie vor Aufruf PV7
  993 E526  C3 E0B7     MSW:	JP	POP4
  994                   
  995                   ; 1. Sprungadresse von Treiber berechnen aus Nr. und IX+8
SLR180 SuperFast Relocating Macro Assembler     			    SLR180 1.31 Page 111
CE48    INC

  996                   
  997 E529  3B          PV70:	DEC	SP
  998 E52A  3B          	DEC	SP		; SP ist wieder richtig				RET  MOFF >AF<
  999 E52B  FB          	EI
 1000 E52C  E3          PV71:	EX	(SP),HL		;						RET  MOFF >HL<
 1001 E52D  E5          	PUSH	HL		;						RET  MOFF  HL  >AF<
 1002 E52E  C6 10       	ADD	A,12+4		; 12 UP-Nummern + 2*4 Byte Kopfdaten
 1003 E530  87          	ADD	A,A		; 2 Byte je Sprungadresse
 1004 E531  6F          	LD	L,A		; Aufrufadresse der Treiber-Routine
 1005 E532  CD ED6B     	CALL	DEVH		; DEVICE-Nr. in Bit 5-7, (HL)=Sprungadresse
 1006 E535  B5          	OR	L		; Adresse einbauen in Bit 0-4
 1007 E536  6F          	LD	L,A
 1008 E537  7E          	LD	A,(HL)		; Sprungadresse Low
 1009 E538  23          	INC	HL
 1010 E539  66          	LD	H,(HL)		; Sprungadresse High
 1011 E53A  6F          	LD	L,A		; HL=Sprungadresse der Routine
 1012 E53B  F1          	POP	AF		;						RET  MOFF >HL<
 1013 E53C  E3          	EX	(SP),HL		; Sprungadresse auf Stack			RET  MOFF >JPADR<
 1014                   
 1015                   ; 2. Module passend schalten nach IX+8 (DEVTAB+1 = Steckplatz, DEVTAB+3 = EIN)
 1016                   
 1017 E53D  E5          	PUSH	HL
 1018 E53E  D5          	PUSH	DE
 1019 E53F  C5          	PUSH	BC
 1020 E540  F5          	PUSH	AF
 1021 E541  CD ED6B     	CALL	DEVH		; DEVICE-Nr. in Bit 5-7, (HL)=Sprungadresse
 1022 E544  F6 01       	OR	1		; DEVTAB+1
 1023 E546  6F          	LD	L,A
 1024 E547  5E          	LD	E,(HL)		; Steckplatz
 1025                   
 1026                   	; hier alle davor liegenden Speichermodule ausschalten?
 1027                   
 1028 E548  16 B8       	LD	D,High(MODST)
 1029 E54A  1A          	LD	A,(DE)		; aktueller Schaltzustand
 1030 E54B  2C          	INC	L		; DEVTAB+2 = AUS
 1031 E54C  77          	LD	(HL),A		; als Schaltzustand AUS in DEVTAB+2 merken
 1032 E54D  2C          	INC	L		; DEVTAB+3 = EIN
 1033                   
 1034 E54E  7E          	LD	A,(HL)		; Steuerbyte EIN
 1035 E54F  12          	LD	(DE),A		; in MODST eintragen
 1036 E550  57          	LD	D,A		; Steuerbyte
 1037                   
 1038 E551  7B          	LD	A,E		; Steckplatz
 1039 E552  1E 00       	LD	E,0		; AUS fuer CAOS-C
 1040 E554  FE 05       	CP	5		; CAOS-ROM-C?
 1041 E556  20 02       	JR	NZ,MO1
 1042 E558  1E 80       	LD	E,80H		; EIN fuer CAOS-C
 1043 E55A  FE 07       MO1:	CP	7
 1044 E55C  38 05       	JR	C,MO2		; intenes Modul
 1045 E55E  0E 80       	LD	C,80H
 1046 E560  47          	LD	B,A
 1047 E561  ED 51       	OUT	(C),D		; Steuerbyte zu Modul senden
 1048                   
 1049 E563  DB 88       MO2:	IN	A,(PIOAD)	; SWITCH 2 0:
 1050 E565  E6 7F       	AND	7Fh		; USER-ROM C immer aus!
 1051 E567  D3 88       	OUT	(PIOAD),A
 1052                   
 1053 E569  21 B805     	LD	HL,MODST+5	; SWITCH 5
SLR180 SuperFast Relocating Macro Assembler     			    SLR180 1.31 Page 112
CE48    INC

 1054 E56C  DD 7E 04    	LD	A,(IX+4)
 1055 E56F  E6 80       	AND	80h		; aktueller Schaltzustand CAOS-ROM
 1056 E571  B6          	OR	(HL)		; in Modulsteuerbyte Bit 7 einbauen
 1057 E572  77          	LD	(HL),A		; und dort merken
 1058 E573  DD 7E 04    	LD	A,(IX+4)	; SWITCH 5 0:
 1059 E576  E6 7F       	AND	7Fh		; CAOS-ROM C aus
 1060 E578  B3          	OR	E		; oder EIN falls Programm dort steht!
 1061 E579  18 A8       	JR	M5		; CAOS-C und Routine aufrufen
 1062                   ;
 1063                   ; ISR CTC Kanal 1 (Kassette-Out)
 1064                   ;
 1065 E57B  F5          ISRC1:	PUSH	AF
 1066 E57C  3E 87       	LD	A,10000111b	; EI,ZG16,Res
 1067 E57E  D3 8D       	OUT	(CTC1),A
 1068 E580  DD 7E 00    	LD	A,(IX)		; Uebergabezelle Zeitkonstante
 1069 E583  D3 8D       	OUT	(CTC1),A	; Start CTC
 1070 E585  DD 36 00 00 	LD	(IX),0		; Quittierung
 1071 E589  18 0E       	JR	ISR1E		; EI, RETI
 1072                   ;
 1073                   ; ISR PIO Kanal A (Kassette-In)
 1074                   ;
 1075 E58B  F5          ISRPA:	PUSH	AF
 1076 E58C  DB 8E       	IN	A,(CTC2)	; CTC lesen
 1077 E58E  DD 77 00    	LD	(IX),A		; und in Uebergabezelle ablegen
 1078 E591  3E 07       	LD	A,7
 1079 E593  D3 8E       	OUT	(CTC2),A	; CTC Neustart
 1080 E595  3E A3       	LD	A,IKEZK
 1081 E597  D3 8E       	OUT	(CTC2),A
 1082 E599  F1          ISR1E:	POP	AF
 1083 E59A  FB          IRET:	EI
 1084 E59B  ED 4D       	RETI
 1085                   
 1086                   ; ===== BASIC =====
 1087                   
 1088                   ; BASIC-Erweiterung 1: Erweiterungstoken starten
 1089                   ;
 1090                   ;***************************************************************
 1091                   ;*  E: <B>: TOKEN-LDTOK
 1092                   ;*     <HL>: AUF TOKEN
 1093                   ;*  A: <<SP>>: STARTADRESSE ROUTINE
 1094                   ;*     <HL>: AUF TOKEN
 1095                   ;***************************************************************
 1096                   
 1097 E59D  78          BEXP1:	LD	A,B		; Nr.
 1098 E59E  D6 09       	SUB	9
 1099 E5A0  38 48       	JR	C,SNERR1
 1100 E5A2  FE 1F       	CP	(TOKJPE-TOKJP)/2-4	; 27 waren es Original
 1101 E5A4  30 44       	JR	NC,SNERR1	; Token ausserhalb
 1102 E5A6  07          	RLCA			; *2
 1103 E5A7  4F          	LD	C,A
 1104 E5A8  06 00       	LD	B,0		; BC = Offset in Adresstabelle
 1105 E5AA  EB          	EX	DE,HL
 1106 E5AB  21 FDAE     	LD	HL,TADR5	; Adresse der Erweiterungstoken
 1107 E5AE  C3 C8B7     	JP	DLI22		; Ruecksprung zu Tokenverarbeitung (BASIC-ROM)
 1108                   
 1109 E5B1              LOCOL:	;LoadColor
 1110 E5B1  E5          	PUSH	HL
 1111 E5B2  21 B7A3     	LD	HL,COLOR	; 0B7A3H
SLR180 SuperFast Relocating Macro Assembler     			    SLR180 1.31 Page 113
CE48    INC

 1112 E5B5  CD EAF3     	CALL	IRMRD
 1113 E5B8  E1          	POP	HL
 1114 E5B9  C9          	RET
 1115                   
 1116                   ; BASIC-Erweiterung 2: Print-Erweiterung?
 1117                   ;
 1118                   ;***************************************************************
 1119                   ;*  E:   <HL> AUF SIGNIF. ZEICHEN NACH PRTOK
 1120                   ;*  WENN  PRTFLG<>0 , DANN JP SNER
 1121                   ;*  A:   <HL> AUF ZEILENENDE
 1122                   ;***************************************************************
 1123                   
 1124 E5BA  7E          BEXP2:	LD	A,(HL)
 1125 E5BB  FE DF       	CP	0DFH		; INK-Token?
 1126 E5BD  D8          	RET	C		; <DFH
 1127 E5BE  FE E3       	CP	0E3H		; COLOR-Token?
 1128 E5C0  D0          	RET	NC		; >E2H
 1129 E5C1  FE E1       	CP	0E1H		; AT-Token?
 1130 E5C3  CA E928     	JP	Z,PRAT
 1131 E5C6  3A 03FD     	LD	A,(PRTFLG)
 1132 E5C9  A7          	AND	A		; PRINT-Erweiterung?
 1133 E5CA  20 1E       	JR	NZ,SNERR1
 1134 E5CC  3C          	INC	A
 1135 E5CD  32 03FD     	LD	(PRTFLG),A
 1136 E5D0  CD E5B1     PREX1:	CALL	LOCOL		; Farbwert lesen
 1137 E5D3  32 037E     	LD	(COLRET),A 	; Farbe merken
 1138 E5D6  7E          	LD	A,(HL)
 1139 E5D7  FE DF       	CP	0DFH		; INK?
 1140 E5D9  28 1A       	JR	Z,PRINK
 1141 E5DB  FE E2       	CP	0E2H		; COLOR?
 1142 E5DD  28 0E       	JR	Z,PRCOL
 1143 E5DF  CD C8BD     	CALL	TCHAR		; naechstes Zeichen holen
 1144 E5E2  CD E9F2     	CALL	PAPER		; Hintergrundfarbe
 1145 E5E5  7E          PREX2:	LD	A,(HL)
 1146 E5E6  FE 3B       	CP	';'
 1147 E5E8  28 3B       	JR	Z,PREX5
 1148 E5EA  C3 C348     SNERR1:	JP	SNER		; SN-ERROR
 1149                   
 1150 E5ED  CD C8BD     PRCOL:	CALL	TCHAR		; naechstes Zeichen holen
 1151 E5F0  CD E9E3     	CALL	BCOLOR		; Vordergrund- und Hintergrundfarbe
 1152 E5F3  18 F0       	JR	PREX2
 1153                   
 1154 E5F5  CD C8BD     PRINK:	CALL	TCHAR		; naechstes Zeichen holen
 1155 E5F8  CD E9D1     	CALL	INK		; Vordergrundfarbe
 1156 E5FB  7E          	LD	A,(HL)
 1157 E5FC  FE 3B       	CP	';'
 1158 E5FE  28 25       	JR	Z,PREX5
 1159 E600  CD C8CC     	CALL	CPSTX		; Komma?
 1160 E603  2C          	DB	','
 1161 E604  FE E0       	CP	0E0H		; PAPER?
 1162 E606  20 E2       	JR	NZ,SNERR1
 1163 E608  CD C8BD     	CALL	TCHAR		; naechstes Zeichen holen
 1164 E60B  CD E9F2     	CALL	PAPER
 1165 E60E  CD C8CC     	CALL	CPSTX		; Semikolon?
 1166 E611  3B          	DB	';'
 1167 E612  CD CB03     PREX3:	CALL	PRINT2		; Routine im BASIC-ROM aufrufen
 1168 E615  3A 037E     	LD	A,(COLRET)	; Farbe
 1169 E618  E5          	PUSH	HL
SLR180 SuperFast Relocating Macro Assembler     			    SLR180 1.31 Page 114
CE48    INC

 1170 E619  21 B7A3     	LD	HL,COLOR
 1171 E61C  CD EAF8     	CALL	IRMWR		; eintragen
 1172 E61F  E1          	POP	HL
 1173 E620  C1          	POP	BC
 1174 E621  C9          	RET
 1175                   
 1176 E622  C5          PREX4:	PUSH	BC
 1177 E623  18 AB       	JR	PREX1
 1178                   
 1179 E625  CD C8BD     PREX5:	CALL	TCHAR		; naechstes Zeichen holen
 1180 E628  18 E8       	JR	PREX3
 1181                   
 1182                   ; BASIC: String vervielfaeltigen
 1183                   
 1184 E62A  CD C8CC     STRING:	CALL	CPSTX		; Klammer auf?
 1185 E62D  28          	DB	'('
 1186 E62E  CD D421     	CALL	ARGVL1		; Wert abholen
 1187 E631  F5          	PUSH	AF
 1188 E632  CD C8D6     	CALL	CPCOMM		; Komma?
 1189 E635  CD CD3A     	CALL	SNALY
 1190 E638  CD C8DB     	CALL	CPBRGT		; Klammer zu?
 1191 E63B  F1          	POP	AF
 1192 E63C  E5          	PUSH	HL
 1193 E63D  F5          	PUSH	AF
 1194 E63E  CD D330     	CALL	LEN1		; Laenge holen
 1195 E641  23          	INC	HL
 1196 E642  23          	INC	HL
 1197 E643  5E          	LD	E,(HL)
 1198 E644  23          	INC	HL
 1199 E645  56          	LD	D,(HL)
 1200 E646  C1          	POP	BC
 1201 E647  C5          	PUSH	BC
 1202 E648  F5          	PUSH	AF
 1203 E649  D5          	PUSH	DE
 1204 E64A  4F          	LD	C,A
 1205 E64B  AF          	XOR	A
 1206 E64C  B9          	CP	C
 1207 E64D  28 0C       	JR	Z,STR2
 1208 E64F  B8          	CP	B
 1209 E650  28 09       	JR	Z,STR2
 1210 E652  79          	LD	A,C
 1211 E653  05          	DEC	B
 1212 E654  28 05       	JR	Z,STR2
 1213 E656  81          STR1:	ADD	A,C
 1214 E657  38 2B       	JR	C,STR5		; LS-ERROR (String zu lang)
 1215 E659  10 FB       	DJNZ	STR1
 1216 E65B  47          STR2:	LD	B,A
 1217 E65C  0E 00       	LD	C,0
 1218 E65E  C5          	PUSH	BC
 1219 E65F  CD D1E1     	CALL	STROP		; String-Arithmetik
 1220 E662  C1          	POP	BC
 1221 E663  C1          	POP	BC
 1222 E664  C5          	PUSH	BC
 1223 E665  CD D17E     	CALL	SADTB1
 1224 E668  E1          	POP	HL
 1225 E669  E3          	EX	(SP),HL
 1226 E66A  7C          	LD	A,H
 1227 E66B  E1          	POP	HL
SLR180 SuperFast Relocating Macro Assembler     			    SLR180 1.31 Page 115
CE48    INC

 1228 E66C  E3          	EX	(SP),HL
 1229 E66D  6F          	LD	L,A
 1230 E66E  24          	INC	H
 1231 E66F  25          STR3:	DEC	H
 1232 E670  E5          	PUSH	HL
 1233 E671  C5          	PUSH	BC
 1234 E672  28 07       	JR	Z,STR4
 1235 E674  CD D2F2     	CALL	STRMV1
 1236 E677  C1          	POP	BC
 1237 E678  E1          	POP	HL
 1238 E679  18 F4       	JR	STR3
 1239                   	;
 1240 E67B  C1          STR4:	POP	BC
 1241 E67C  E1          	POP	HL
 1242 E67D  D1          	POP	DE
 1243 E67E  CD D302     	CALL	STRZS3
 1244 E681  C3 D1A9     	JP	SLEN3
 1245                   	;
 1246 E684  1E 1C       STR5:	LD	E,28		; LS-ERROR
 1247 E686  C3 C356     	JP	ERROO		; Ausgabe Fehlercode
 1248                   
 1249                   ; BASIC: Neu nummerieren
 1250                   
 1251 E689  E5          RENUM:	PUSH	HL
 1252 E68A  21 000A     	LD	HL,10
 1253 E68D  22 0354     	LD	(DISTAN),HL	; Zeilennummernabstand
 1254 E690  2A 035F     	LD	HL,(PSTBEG)	; Programmbeginn
 1255 E693  F5          	PUSH	AF
 1256 E694  E5          	PUSH	HL
 1257 E695  23          	INC	HL
 1258 E696  23          	INC	HL
 1259 E697  7E          	LD	A,(HL)
 1260 E698  23          	INC	HL
 1261 E699  66          	LD	H,(HL)
 1262 E69A  6F          	LD	L,A
 1263 E69B  22 034E     	LD	(ANF),HL	; erste Zeilennummer
 1264 E69E  22 0352     	LD	(NANF),HL
 1265 E6A1  ED 5B 03D7  	LD	DE,(SVARPT)	; Ende
 1266 E6A5  1B          	DEC	DE
 1267 E6A6  1B          	DEC	DE
 1268 E6A7  E1          REN01:	POP	HL
 1269 E6A8  E5          	PUSH	HL
 1270 E6A9  7E          	LD	A,(HL)
 1271 E6AA  23          	INC	HL
 1272 E6AB  66          	LD	H,(HL)
 1273 E6AC  6F          	LD	L,A
 1274 E6AD  CD C689     	CALL	CPREG
 1275 E6B0  E3          	EX	(SP),HL
 1276 E6B1  20 F4       	JR	NZ,REN01
 1277 E6B3  D1          	POP	DE
 1278 E6B4  23          	INC	HL
 1279 E6B5  23          	INC	HL
 1280 E6B6  7E          	LD	A,(HL)
 1281 E6B7  23          	INC	HL
 1282 E6B8  66          	LD	H,(HL)
 1283 E6B9  6F          	LD	L,A
 1284 E6BA  22 0350     	LD	(ENDE),HL	; Zeilen-Abstand
 1285 E6BD  06 04       	LD	B,4
SLR180 SuperFast Relocating Macro Assembler     			    SLR180 1.31 Page 116
CE48    INC

 1286 E6BF  F1          	POP	AF
 1287 E6C0  21 034E     	LD	HL,ANF
 1288 E6C3  E3          	EX	(SP),HL
 1289 E6C4  28 20       REN02:	JR	Z,REN05
 1290 E6C6  CD C986     	CALL	DCHEX
 1291 E6C9  F5          	PUSH	AF
 1292 E6CA  7A          	LD	A,D
 1293 E6CB  B3          	OR	E
 1294 E6CC  CA C967     REN03:	JP	Z,FCER	 	; FC-ERROR
 1295 E6CF  F1          	POP	AF
 1296 E6D0  E3          	EX	(SP),HL
 1297 E6D1  73          	LD	(HL),E
 1298 E6D2  23          	INC	HL
 1299 E6D3  72          	LD	(HL),D
 1300 E6D4  23          	INC	HL
 1301 E6D5  28 0F       	JR	Z,REN05
 1302 E6D7  F5          	PUSH	AF
 1303 E6D8  05          	DEC	B
 1304 E6D9  28 07       	JR	Z,REN04
 1305 E6DB  F1          	POP	AF
 1306 E6DC  E3          	EX	(SP),HL
 1307 E6DD  CD C8D6     	CALL	CPCOMM		; Komma?
 1308 E6E0  18 E2       	JR	REN02
 1309                   	;
 1310 E6E2  F1          REN04:	POP	AF
 1311 E6E3  C2 C348     	JP	NZ,SNER		; SN-ERROR
 1312 E6E6  2A 0350     REN05:	LD	HL,(ENDE)
 1313 E6E9  ED 5B 034E  	LD	DE,(ANF)	; ANFANG
 1314 E6ED  CD C689     	CALL	CPREG
 1315 E6F0  DA C967     REN06:	JP	C,FCER		; FC-ERROR
 1316 E6F3  2A 035F     	LD	HL,(PSTBEG)
 1317 E6F6  CD C4BE     REN07:	CALL	ZPOIT1		; naechste Zeile
 1318 E6F9  38 04       	JR	C,REN08
 1319 E6FB  28 CF       	JR	Z,REN03
 1320 E6FD  18 F7       	JR	REN07
 1321                   	;
 1322 E6FF  E1          REN08:	POP	HL
 1323 E700  C5          	PUSH	BC
 1324 E701  ED 5B 0350  	LD	DE,(ENDE)
 1325 E705  21 0000     	LD	HL,0
 1326 E708  22 0350     	LD	(ENDE),HL
 1327 E70B  60          REN09:	LD	H,B
 1328 E70C  69          	LD	L,C
 1329 E70D  4E          	LD	C,(HL)
 1330 E70E  23          	INC	HL
 1331 E70F  46          	LD	B,(HL)
 1332 E710  78          	LD	A,B
 1333 E711  B1          	OR	C
 1334 E712  28 B8       	JR	Z,REN03
 1335 E714  23          	INC	HL
 1336 E715  7E          	LD	A,(HL)
 1337 E716  23          	INC	HL
 1338 E717  66          	LD	H,(HL)
 1339 E718  6F          	LD	L,A
 1340 E719  CD C689     	CALL	CPREG
 1341 E71C  2A 0350     	LD	HL,(ENDE)
 1342 E71F  23          	INC	HL
 1343 E720  22 0350     	LD	(ENDE),HL
SLR180 SuperFast Relocating Macro Assembler     			    SLR180 1.31 Page 117
CE48    INC

 1344 E723  20 E6       	JR	NZ,REN09
 1345 E725  23          	INC	HL
 1346 E726  23          	INC	HL
 1347 E727  29          	ADD	HL,HL
 1348 E728  23          	INC	HL
 1349 E729  ED 5B 03D7  	LD	DE,(SVARPT)
 1350 E72D  19          	ADD	HL,DE
 1351 E72E  38 C0       	JR	C,REN06
 1352 E730  CD C327     	CALL	TMEMO		; genug RAM?
 1353 E733  22 03D7     	LD	(SVARPT),HL
 1354 E736  AF          	XOR	A
 1355 E737  2B          	DEC	HL
 1356 E738  77          	LD	(HL),A
 1357 E739  2B          	DEC	HL
 1358 E73A  77          	LD	(HL),A
 1359 E73B  1B          	DEC	DE
 1360 E73C  1B          	DEC	DE
 1361 E73D  EB          	EX	DE,HL
 1362 E73E  73          	LD	(HL),E
 1363 E73F  23          	INC	HL
 1364 E740  72          	LD	(HL),D
 1365 E741  23          	INC	HL
 1366 E742  3D          	DEC	A
 1367 E743  77          	LD	(HL),A
 1368 E744  23          	INC	HL
 1369 E745  77          	LD	(HL),A
 1370 E746  23          	INC	HL
 1371 E747  EB          	EX	DE,HL
 1372 E748  2A 0352     	LD	HL,(NANF)
 1373 E74B  22 034E     	LD	(ANF),HL
 1374 E74E  E1          REN10:	POP	HL
 1375 E74F  4E          	LD	C,(HL)
 1376 E750  23          	INC	HL
 1377 E751  46          	LD	B,(HL)
 1378 E752  23          	INC	HL
 1379 E753  C5          	PUSH	BC
 1380 E754  01 034E     	LD	BC,ANF
 1381 E757  7E          	LD	A,(HL)
 1382 E758  12          	LD	(DE),A
 1383 E759  0A          	LD	A,(BC)
 1384 E75A  77          	LD	(HL),A
 1385 E75B  23          	INC	HL
 1386 E75C  13          	INC	DE
 1387 E75D  03          	INC	BC
 1388 E75E  7E          	LD	A,(HL)
 1389 E75F  12          	LD	(DE),A
 1390 E760  0A          	LD	A,(BC)
 1391 E761  77          	LD	(HL),A
 1392 E762  13          	INC	DE
 1393 E763  2A 034E     	LD	HL,(ANF)
 1394 E766  ED 4B 0354  	LD	BC,(DISTAN)
 1395 E76A  09          	ADD	HL,BC
 1396 E76B  22 034E     	LD	(ANF),HL
 1397 E76E  2A 0350     	LD	HL,(ENDE)
 1398 E771  2B          	DEC	HL
 1399 E772  7C          	LD	A,H
 1400 E773  B5          	OR	L
 1401 E774  22 0350     	LD	(ENDE),HL
SLR180 SuperFast Relocating Macro Assembler     			    SLR180 1.31 Page 118
CE48    INC

 1402 E777  20 D5       	JR	NZ,REN10
 1403 E779  12          	LD	(DE),A
 1404 E77A  E1          	POP	HL
 1405 E77B  2A 035F     	LD	HL,(PSTBEG)
 1406 E77E  E5          	PUSH	HL
 1407 E77F  E1          REN11:	POP	HL
 1408 E780  4E          	LD	C,(HL)
 1409 E781  23          	INC	HL
 1410 E782  46          	LD	B,(HL)
 1411 E783  23          	INC	HL
 1412 E784  C5          	PUSH	BC
 1413 E785  7E          	LD	A,(HL)
 1414 E786  23          	INC	HL
 1415 E787  A6          	AND	(HL)
 1416 E788  3C          	INC	A
 1417 E789  28 26       	JR	Z,REN15
 1418 E78B  23          REN12:	INC	HL
 1419 E78C  7E          REN13:	LD	A,(HL)
 1420 E78D  B7          	OR	A		; Zeilen-Ende
 1421 E78E  28 EF       	JR	Z,REN11
 1422 E790  FE 88       	CP	88H		; GOTO
 1423 E792  28 2A       	JR	Z,REN16
 1424 E794  FE 8C       	CP	8CH		; GOSUB
 1425 E796  28 26       	JR	Z,REN16
 1426 E798  FE 8B       	CP	8BH		; RESTORE
 1427 E79A  28 08       	JR	Z,REN14
 1428 E79C  FE D4       	CP	0D4H		; ELSE
 1429 E79E  28 04       	JR	Z,REN14
 1430 E7A0  FE A9       	CP	0A9H		; THEN
 1431 E7A2  20 E7       	JR	NZ,REN12
 1432 E7A4  CD C987     REN14:	CALL	DCHEX1
 1433 E7A7  7B          	LD	A,E
 1434 E7A8  B2          	OR	D
 1435 E7A9  C4 E7D2     	CALL	NZ,RNUP1 	; Vergleich mit Tabelle
 1436 E7AC  C4 E803     	CALL	NZ,RNUP2	; Zahl aendern
 1437 E7AF  18 DB       	JR	REN13
 1438                   	;
 1439 E7B1  2B          REN15:	DEC	HL
 1440 E7B2  22 03D7     	LD	(SVARPT),HL
 1441 E7B5  2B          	DEC	HL
 1442 E7B6  77          	LD	(HL),A
 1443 E7B7  2B          	DEC	HL
 1444 E7B8  77          	LD	(HL),A
 1445 E7B9  E1          	POP	HL
 1446 E7BA  E1          	POP	HL
 1447 E7BB  C3 C48A     	JP	LIN10		; Zeile neu einsortieren
 1448                   	;
 1449 E7BE  CD C987     REN16:	CALL	DCHEX1
 1450 E7C1  7B          	LD	A,E
 1451 E7C2  B2          	OR	D
 1452 E7C3  28 C7       	JR	Z,REN13
 1453 E7C5  CD E7D2     	CALL	RNUP1
 1454 E7C8  C4 E803     	CALL	NZ,RNUP2
 1455 E7CB  7E          	LD	A,(HL)
 1456 E7CC  FE 2C       	CP	','
 1457 E7CE  20 BC       	JR	NZ,REN13
 1458 E7D0  18 EC       	JR	REN16
 1459                   
SLR180 SuperFast Relocating Macro Assembler     			    SLR180 1.31 Page 119
CE48    INC

 1460 E7D2  E5          RNUP1:	PUSH	HL
 1461 E7D3  D5          	PUSH	DE
 1462 E7D4  11 FFFF     	LD	DE,-1
 1463 E7D7  CD C4BB     	CALL	ZPOIT		; naechste Zeile
 1464 E7DA  D1          	POP	DE
 1465 E7DB  03          	INC	BC
 1466 E7DC  03          	INC	BC
 1467 E7DD  03          	INC	BC
 1468 E7DE  03          	INC	BC
 1469 E7DF  60          	LD	H,B
 1470 E7E0  69          	LD	L,C
 1471 E7E1  ED 4B 0352  	LD	BC,(NANF)
 1472 E7E5  7E          RUP11:	LD	A,(HL)
 1473 E7E6  23          	INC	HL
 1474 E7E7  E5          	PUSH	HL
 1475 E7E8  B6          	OR	(HL)
 1476 E7E9  28 15       	JR	Z,RUP13
 1477 E7EB  7E          	LD	A,(HL)
 1478 E7EC  2B          	DEC	HL
 1479 E7ED  6E          	LD	L,(HL)
 1480 E7EE  67          	LD	H,A
 1481 E7EF  CD C689     	CALL	CPREG
 1482 E7F2  28 0A       	JR	Z,RUP12
 1483 E7F4  2A 0354     	LD	HL,(DISTAN)
 1484 E7F7  09          	ADD	HL,BC
 1485 E7F8  44          	LD	B,H
 1486 E7F9  4D          	LD	C,L
 1487 E7FA  E1          	POP	HL
 1488 E7FB  23          	INC	HL
 1489 E7FC  18 E7       	JR	RUP11
 1490                   	;
 1491 E7FE  AF          RUP12:	XOR	A		; aus CAOS 3.4 uebernommen
 1492 E7FF  3D          	DEC	A		; A=0FFh, Z=0
 1493                   ;	LD	A,0FFH
 1494                   ;	OR	A
 1495 E800  E1          RUP13:	POP	HL
 1496 E801  E1          	POP	HL
 1497 E802  C9          	RET
 1498                   
 1499 E803  C5          RNUP2:	PUSH	BC
 1500 E804  EB          	EX	DE,HL
 1501 E805  2A 03D7     	LD	HL,(SVARPT)
 1502 E808  ED 52       	SBC	HL,DE
 1503 E80A  E5          	PUSH	HL
 1504 E80B  C1          RUP21:	POP	BC
 1505 E80C  62          	LD	H,D
 1506 E80D  6B          	LD	L,E
 1507 E80E  1B          	DEC	DE
 1508 E80F  1A          	LD	A,(DE)
 1509 E810  FE 2C       	CP	','
 1510 E812  28 0B       	JR	Z,RUP22
 1511 E814  FE 3A       	CP	':'
 1512 E816  30 07       	JR	NC,RUP22
 1513 E818  C5          	PUSH	BC
 1514 E819  D5          	PUSH	DE
 1515 E81A  ED B0       	LDIR
 1516 E81C  D1          	POP	DE
 1517 E81D  18 EC       	JR	RUP21
SLR180 SuperFast Relocating Macro Assembler     			    SLR180 1.31 Page 120
CE48    INC

 1518                   	;
 1519 E81F  EB          RUP22:	EX	DE,HL
 1520 E820  D1          	POP	DE
 1521 E821  E5          	PUSH	HL
 1522 E822  C5          	PUSH	BC
 1523 E823  AF          	XOR	A
 1524 E824  06 98       	LD	B,98H
 1525 E826  CD D6AE     	CALL	SGN1
 1526 E829  CD D834     	CALL	NUMKON
 1527 E82C  C1          	POP	BC
 1528 E82D  D1          	POP	DE
 1529 E82E  23          	INC	HL
 1530 E82F  13          	INC	DE
 1531 E830  7E          RUP23:	LD	A,(HL)
 1532 E831  B7          	OR	A
 1533 E832  28 0F       	JR	Z,RUP24
 1534 E834  C5          	PUSH	BC
 1535 E835  E5          	PUSH	HL
 1536 E836  EB          	EX	DE,HL
 1537 E837  09          	ADD	HL,BC
 1538 E838  54          	LD	D,H
 1539 E839  5D          	LD	E,L
 1540 E83A  2B          	DEC	HL
 1541 E83B  ED B8       	LDDR
 1542 E83D  E1          	POP	HL
 1543 E83E  ED A0       	LDI
 1544 E840  C1          	POP	BC
 1545 E841  18 ED       	JR	RUP23
 1546                   	;
 1547 E843  D5          RUP24:	PUSH	DE
 1548 E844  ED 5B 035F  	LD	DE,(PSTBEG)
 1549 E848  CD C493     	CALL	LIN11
 1550 E84B  23          RUP25:	INC	HL
 1551 E84C  7E          	LD	A,(HL)
 1552 E84D  23          	INC	HL
 1553 E84E  B6          	OR	(HL)
 1554 E84F  20 FA       	JR	NZ,RUP25
 1555 E851  EB          	EX	DE,HL
 1556 E852  73          	LD	(HL),E
 1557 E853  23          	INC	HL
 1558 E854  72          	LD	(HL),D
 1559 E855  13          	INC	DE
 1560 E856  13          	INC	DE
 1561 E857  ED 53 03D7  	LD	(SVARPT),DE
 1562 E85B  E1          	POP	HL
 1563 E85C  54          	LD	D,H
 1564 E85D  5D          	LD	E,L
 1565 E85E  7E          RUP26:	LD	A,(HL)
 1566 E85F  B7          	OR	A
 1567 E860  23          	INC	HL
 1568 E861  20 FB       	JR	NZ,RUP26
 1569 E863  C1          	POP	BC
 1570 E864  E3          	EX	(SP),HL
 1571 E865  C5          	PUSH	BC
 1572 E866  EB          	EX	DE,HL
 1573 E867  C9          	RET
 1574                   
 1575                   ; BASIC: Zeile(n) loeschen
SLR180 SuperFast Relocating Macro Assembler     			    SLR180 1.31 Page 121
CE48    INC

 1576                   
 1577 E868  C8          DELETE:	RET	Z
 1578 E869  CD C986     	CALL	DCHEX
 1579 E86C  CA C442     	JP	Z,LIN13		; Zeiger auf folgende Zeilennummer stellen
 1580 E86F  CD C8D6     	CALL	CPCOMM		; Komma?
 1581 E872  D5          	PUSH	DE
 1582 E873  CD C986     	CALL	DCHEX
 1583 E876  E1          	POP	HL
 1584 E877  C0          	RET	NZ
 1585 E878  EB          	EX	DE,HL
 1586 E879  E5          	PUSH	HL
 1587 E87A  CD C4BB     	CALL	ZPOIT		; naechste Zeile
 1588 E87D  30 0A       	JR	NC,DELET1	; UL-ERROR
 1589 E87F  D1          	POP	DE
 1590 E880  F5          	PUSH	AF
 1591 E881  C5          	PUSH	BC
 1592 E882  CD C4BE     	CALL	ZPOIT1
 1593 E885  C1          	POP	BC
 1594 E886  DA C450     	JP	C,LIN6		; einsortieren
 1595 E889  C3 C44D     DELET1:	JP	ULER		; UL-ERROR
 1596                   
 1597                   ; BASIC: Programm unterbrechen
 1598                   
 1599 E88C  CD C8BE     PAUSE:	CALL	TCHAR1		; mit oder ohne Paramater?
 1600 E88F  20 0F       	JR	NZ,PAUS2
 1601 E891  CD E37D     PAUS1:	CALL	KBDS		; Tastaturabfrage
 1602 E894  30 FB       	JR	NC,PAUS1
 1603 E896  FE 03       	CP	3		; BRK?
 1604 E898  C8          	RET	Z
 1605 E899  FE 0A       	CP	LF		; CUU?
 1606 E89B  20 F4       	JR	NZ,PAUS1
 1607 E89D  C3 DDE4     	JP	CI		; Eingabe ASCII
 1608                   	;
 1609 E8A0  CD D421     PAUS2:	CALL	ARGVL1		; Wert abholen
 1610 E8A3  4F          	LD	C,A
 1611 E8A4  3E 10       PAUS3:	LD	A,16		; 16*6ms = 96 Millisekunden
 1612 E8A6  CD FC24     	CALL	WAIT		; UP WAIT direkt aufrufen
 1613                   ;	LD	E,14H		; WAIT
 1614                   ;	CALL	PV5
 1615 E8A9  CD E37D     	CALL	KBDS
 1616 E8AC  30 0A       	JR	NC,PAUS4
 1617 E8AE  FE 03       	CP	3		; BRK?
 1618 E8B0  C8          	RET	Z
 1619 E8B1  FE 0A       	CP	LF		; CUU?
 1620 E8B3  20 03       	JR	NZ,PAUS4
 1621 E8B5  C3 DDE4     	JP	CI		; Eingabe ASCII
 1622                   	;
 1623 E8B8  0D          PAUS4:	DEC	C		; Zaehler verringern
 1624 E8B9  20 E9       	JR	NZ,PAUS3	; weiter warten
 1625 E8BB  C9          	RET
 1626                   
 1627                   ; BASIC: Signalton
 1628                   
 1629 E8BC  06 01       BBEEP:	LD	B,1		; ohne Angabe 1x
 1630 E8BE  CD C8BE     	CALL	TCHAR1		; Parameter angegeben?
 1631 E8C1  28 04       	JR	Z,BBP1
 1632 E8C3  CD D421     	CALL	ARGVL1		; Wert abholen
 1633 E8C6  47          	LD	B,A		; Anzahl
SLR180 SuperFast Relocating Macro Assembler     			    SLR180 1.31 Page 122
CE48    INC

 1634 E8C7  3E 07       BBP1:	LD	A,7		; Beep
 1635 E8C9  1E 00       	LD	E,0		; CRT
 1636 E8CB  CD F02D     	CALL	PV5
 1637 E8CE  10 F7       	DJNZ	BBP1
 1638 E8D0  C9          	RET
 1639                   
 1640                   ; Hilfsroutine fuer mehrfachen Aufruf: naechsten Wert abholen
 1641                   
 1642 E8D1  CD C8D6     MC8D4:	CALL	CPCOMM		; Komma?
 1643 E8D4  C3 D421     	JP	ARGVL1		; Wert abholen
 1644                   
 1645                   ; BASIC: Fenster einstellen
 1646                   
 1647 E8D7  CD C8BE     WINDOW:	CALL	TCHAR1		; Parameter angegeben?
 1648 E8DA  28 2D       	JR	Z,WDW2		; nein, dann volles Fenster
 1649 E8DC  CD D421     	CALL	ARGVL1		; 1. Wert abholen
 1650 E8DF  47          	LD	B,A		; B = erste Zeile
 1651 E8E0  C5          	PUSH	BC
 1652 E8E1  CD E8D1     	CALL	MC8D4		; 2. Wert holen
 1653 E8E4  57          	LD	D,A		; D = letzte Zeile
 1654 E8E5  D5          	PUSH	DE
 1655 E8E6  CD E8D1     	CALL	MC8D4		; 3. Wert holen
 1656 E8E9  D1          	POP	DE
 1657 E8EA  5F          	LD	E,A		; E = erste Spalte
 1658 E8EB  D5          	PUSH	DE
 1659 E8EC  CD E8D1     	CALL	MC8D4		; 4. Wert holen
 1660 E8EF  D1          	POP	DE		; A = letzte Spalte
 1661 E8F0  E3          	EX	(SP),HL		; H = erste Zeile
 1662 E8F1  6B          	LD	L,E		; L = erste Spalte
 1663 E8F2  93          	SUB	E		; Anzahl Spalten
 1664                   ;	JR	C,SNERR2	; Anfang > Ende (wird von WININ ueberwacht)
 1665 E8F3  3C          	INC	A
 1666 E8F4  5F          	LD	E,A		; E = Fensterbreite
 1667 E8F5  7A          	LD	A,D		; letzte Zeile
 1668 E8F6  94          	SUB	H		; Anzahl Zeilen
 1669                   ;	JR	C,SNERR2	; Anfang > Ende (wird von WININ ueberwacht)
 1670 E8F7  3C          	INC	A
 1671 E8F8  57          	LD	D,A		; D = Fensterhoehe
 1672 E8F9  CD F06B     WDW1:	CALL	IRMON
 1673 E8FC  3A B79B     	LD	A,(WINNR)	; aktuelle Fensternummer
 1674 E8FF  CD F7F4     	CALL	WININ		; Fenster initialisieren
 1675 E902  CD F088     	CALL	IRMOF
 1676 E905  38 1E       	JR	C,SNERR2	; Fehler aufgetreten
 1677 E907  E1          	POP	HL
 1678 E908  C9          	RET
 1679                   	;
 1680 E909  E5          WDW2:	PUSH	HL		; Standardfenstergoesse bei BASIC:
 1681 E90A  21 0100     	LD	HL,100H		; 30 Zeilen, 40 Zeichen breit
 1682 E90D  11 1E28     	LD	DE,1E28H	; (oben und unten eine Zeile ungenutzt)
 1683 E910  18 E7       	JR	WDW1
 1684                   
 1685                   ; BASIC: in IRM schreiben (8000h bis BFFFh):
 1686                   
 1687 E912  CD C96C     VPOKE:	CALL	EPRVL4		; Parameter erfassen (Adresse)
 1688 E915  D5          	PUSH	DE
 1689 E916  CD E8D1     	CALL	MC8D4		; Wert abholen
 1690 E919  E3          	EX	(SP),HL
 1691 E91A  11 8000     	LD	DE,8000H	; IRM-Offset
SLR180 SuperFast Relocating Macro Assembler     			    SLR180 1.31 Page 123
CE48    INC

 1692 E91D  19          	ADD	HL,DE
 1693 E91E  38 05       	JR	C,SNERR2	; < 8000h
 1694 E920  CB 74       	BIT	6,H
 1695 E922  CA E9AE     	JP	Z,LOC1		; < C000h -> in IRM schreiben
 1696 E925  C3 C348     SNERR2:	JP	SNER		; SN-ERROR
 1697                   
 1698                   ; BASIC: PRINT AT:
 1699                   
 1700 E928  3A 03FD     PRAT:	LD	A,(PRTFLG)
 1701 E92B  CB 4F       	BIT	1,A
 1702 E92D  CB CF       	SET	1,A
 1703 E92F  32 03FD     	LD	(PRTFLG),A
 1704 E932  20 F1       	JR	NZ,SNERR2
 1705 E934  D5          	PUSH	DE
 1706 E935  E5          	PUSH	HL
 1707 E936  CD F06B     	CALL	IRMON
 1708                   ;
 1709                   ; seit CAOS 3.1 wurden die aktuellen Fensterdaten im Fenstervektorspeicher des
 1710                   ; Fensters Nr. 8 und 9 zwischengespeichert und diese Werte somit ueberschrieben.
 1711                   ; CAOS 3.4 machte es vor, dass es besser geht. Hier werden die aktuellen Werte
 1712                   ; im Fenstervektorspeicher des aktuellen Fensters gesichert
 1713                   ; 29.12.2020: Funktionalitaet fuer CAOS 4.8 uebernommen
 1714                   ;
 1715                   	; im Fenstervektorspeicher sichern
 1716 E939  3A B79B     	LD	A,(WINNR)	; aktuelle Fenster-Nr.
 1717 E93C  21 0000     	LD	HL,0		; WINON
 1718 E93F  11 2028     	LD	DE,2028H	; WINLG
 1719 E942  01 C635     	LD	BC,WININB	; WINON=HL, WINLG=DE, CURSO=BC einstellen
 1720 E945  CD FB84     	CALL	CLROMC		; im ROM-C ausfuehren
 1721 E948  CD F088     	CALL	IRMOF
 1722 E94B  E1          	POP	HL
 1723 E94C  CD E97B     	CALL	LOCAT		; Cursor positionieren
 1724 E94F  CD C8DB     	CALL	CPBRGT		; Klammer zu?
 1725 E952  CD C8CC     	CALL	CPSTX		; Semikolon?
 1726 E955  3B          	DB	';'
 1727 E956  7E          	LD	A,(HL)
 1728 E957  FE DF       	CP	0DFH
 1729 E959  38 1B       	JR	C,PRAT2		; <DFH
 1730 E95B  FE E3       	CP	0E3H
 1731 E95D  30 17       	JR	NC,PRAT2	; >E2H
 1732 E95F  CD E622     	CALL	PREX4		; INK, PAPER, COLOR
 1733 E962  E5          PRAT1:	PUSH	HL
 1734 E963  CD F06B     	CALL	IRMON
 1735 E966  3A B79B     	LD	A,(WINNR)	; aktuelle Fenster-Nr.
 1736 E969  01 C5EF     	LD	BC,WINAKB	; gesicherte Werte zurueck holen
 1737 E96C  CD FB84     	CALL	CLROMC		; im ROM-C ausfuehren
 1738 E96F  CD F088     	CALL	IRMOF
 1739 E972  E1          	POP	HL
 1740 E973  D1          	POP	DE
 1741 E974  C1          	POP	BC
 1742 E975  C9          	RET
 1743                   	;
 1744 E976  CD CB03     PRAT2:	CALL	PRINT2		; Routine im BASIC-ROM aufrufen
 1745 E979  18 E7       	JR	PRAT1
 1746                   
 1747                   ; BASIC: Cursor positionieren:
 1748                   
 1749 E97B  CD C8BD     LOCAT:	CALL	TCHAR		; naechstes Zeichen holen
SLR180 SuperFast Relocating Macro Assembler     			    SLR180 1.31 Page 124
CE48    INC

 1750 E97E  CD C8CC     	CALL	CPSTX		; Klammer auf?
 1751 E981  28          	DB	'('
 1752 E982  CD D421     LOCATE:	CALL	ARGVL1		; Wert abholen
 1753 E985  57          	LD	D,A
 1754 E986  E5          	PUSH	HL
 1755 E987  21 B79F     	LD	HL,WINLG+1
 1756 E98A  CD EAF3     	CALL	IRMRD
 1757 E98D  E1          	POP	HL
 1758 E98E  3D          	DEC	A
 1759 E98F  BA          	CP	D
 1760 E990  38 3C       	JR	C,SNERR3
 1761 E992  D5          	PUSH	DE
 1762 E993  CD E8D1     	CALL	MC8D4		; Wert abholen
 1763 E996  D1          	POP	DE
 1764 E997  4F          	LD	C,A
 1765 E998  E5          	PUSH	HL
 1766 E999  21 B79E     	LD	HL,WINLG
 1767 E99C  CD EAF3     	CALL	IRMRD		; Fenstergroesse lesen
 1768 E99F  E1          	POP	HL
 1769 E9A0  3D          	DEC	A
 1770 E9A1  B9          	CP	C
 1771 E9A2  38 2A       	JR	C,SNERR3
 1772 E9A4  79          	LD	A,C
 1773 E9A5  E5          	PUSH	HL
 1774 E9A6  21 B7A0     	LD	HL,CURSO
 1775 E9A9  CD EAF8     	CALL	IRMWR
 1776 E9AC  7A          	LD	A,D
 1777 E9AD  23          	INC	HL
 1778 E9AE  CD EAF8     LOC1:	CALL	IRMWR		; in IRM schreiben
 1779 E9B1  E1          	POP	HL
 1780 E9B2  C9          	RET
 1781                   
 1782                   ; BASIC: Eingabe eines Zeichens:
 1783                   
 1784 E9B3  E5          INKEY:	PUSH	HL
 1785 E9B4  CD E37D     	CALL	KBDS		; Tastaturabfrage
 1786 E9B7  30 0F       	JR	NC,INKEY3
 1787 E9B9  3E 01       	LD	A,1
 1788 E9BB  CD D17B     	CALL	STADTB
 1789 E9BE  CD DDE4     	CALL	CI		; Eingabe ASCII
 1790 E9C1  2A 03C2     INKEY1:	LD	HL,(STRDAT+2)
 1791 E9C4  77          	LD	(HL),A
 1792 E9C5  C3 D1A9     INKEY2:	JP	SLEN3
 1793                   	;
 1794 E9C8  AF          INKEY3:	XOR	A
 1795 E9C9  CD D17B     	CALL	STADTB
 1796 E9CC  18 F7       	JR	INKEY2
 1797                   
 1798 E9CE  C3 C348     SNERR3:	JP	SNER		; SN-ERROR
 1799                   
 1800                   ; BASIC: Vordergrundfarbe einstellen:
 1801                   
 1802 E9D1  CD D421     INK:	CALL	ARGVL1		; Wert abholen
 1803 E9D4  FE 20       	CP	32
 1804 E9D6  30 66       	JR	NC,FCERR	; FC-ERROR	(bisher SN-ERROR)
 1805 E9D8  87          	ADD	A,A
 1806 E9D9  87          	ADD	A,A		; *8
 1807 E9DA  87          	ADD	A,A
SLR180 SuperFast Relocating Macro Assembler     			    SLR180 1.31 Page 125
CE48    INC

 1808 E9DB  57          	LD	D,A		; neuer Farbwert
 1809 E9DC  CD E5B1     	CALL	LOCOL		; Farbwert lesen
 1810 E9DF  E6 07       	AND	7		; Hintergrund-Bits erhalten
 1811 E9E1  18 1C       	JR	COL2
 1812                   
 1813                   ; BASIC: Vordergrund- und Hintergrundfarbe einstellen:
 1814                   
 1815 E9E3  CD C8BE     BCOLOR:	CALL	TCHAR1
 1816 E9E6  28 56       	JR	Z,FCERR		; FC-ERROR	(bisher SN-ERROR)
 1817 E9E8  CD E9D1     	CALL	INK		; Vordergrund
 1818 E9EB  CD C8BE     	CALL	TCHAR1
 1819 E9EE  C8          	RET	Z
 1820 E9EF  CD C8D6     	CALL	CPCOMM		; Komma?
 1821                   ;	JR	PAPER		; Hintergrund
 1822                   
 1823                   ; BASIC: Hintergrundfarbe einstellen:
 1824                   
 1825 E9F2  CD D421     PAPER:	CALL	ARGVL1		; Wert abholen
 1826 E9F5  FE 08       COL1:	CP	8
 1827 E9F7  30 45       	JR	NC,FCERR	; FC-ERROR	(bisher SN-ERROR)
 1828 E9F9  57          	LD	D,A
 1829 E9FA  CD E5B1     	CALL	LOCOL		; Farbwert lesen
 1830 E9FD  E6 F8       	AND	0F8H		; Vordergrund-Bits erhalten
 1831 E9FF  B2          COL2:	OR	D		; neuen Farbwert einbauen
 1832 EA00  E5          	PUSH	HL
 1833 EA01  21 B7A3     	LD	HL,COLOR
 1834 EA04  18 A8       	JR	LOC1		; neuer Farbwert
 1835                   
 1836                   ; BASIC: Punkt loeschen:
 1837                   
 1838 EA06  1E 2F       PRESET:	LD	E,2FH		; UP PUDE
 1839 EA08  01          	DB	1	; LD BC,n
 1840                   
 1841                   ; BASIC: Punkt setzen:
 1842                   
 1843 EA09  1E 30       PSET:	LD	E,30H		; UP PUSE
 1844 EA0B  D5          	PUSH	DE
 1845 EA0C  CD C96C     	CALL	EPRVL4		; Parameter erfassen
 1846 EA0F  E5          	PUSH	HL		; Adresszeiger
 1847 EA10  7B          	LD	A,E
 1848 EA11  21 B7D3     	LD	HL,HOR
 1849 EA14  CD EAF8     	CALL	IRMWR		; X-Koordinate (low)
 1850 EA17  7A          	LD	A,D
 1851 EA18  23          	INC	HL
 1852 EA19  CD EAF8     	CALL	IRMWR		; X-Koordinate (high)
 1853 EA1C  E3          	EX	(SP),HL
 1854 EA1D  CD E8D1     	CALL	MC8D4		; Wert abholen
 1855 EA20  E3          	EX	(SP),HL
 1856 EA21  23          	INC	HL		; HL=VERT
 1857 EA22  CD EAF8     	CALL	IRMWR		; Y-Koordinate
 1858 EA25  E1          GRAPH2:	POP	HL		; HL=Adresszeiger
 1859 EA26  CD C8BE     	CALL	TCHAR1		; optionaler Parameter vorhanden?
 1860 EA29  28 0E       	JR	Z,GRAPH4	; nein
 1861 EA2B  CD E8D1     	CALL	MC8D4		; Wert abholen nach A
 1862 EA2E  17          	RLA
 1863 EA2F  17          	RLA			; Rotieren in Bites fuer Vordergundfarbe
 1864 EA30  17          	RLA
 1865 EA31  E5          	PUSH	HL
SLR180 SuperFast Relocating Macro Assembler     			    SLR180 1.31 Page 126
CE48    INC

 1866 EA32  21 B7D6     	LD	HL,FARB		; Grafik-Farbe
 1867 EA35  CD EAF8     	CALL	IRMWR		; in IRM schreiben
 1868 EA38  E1          	POP	HL		; HL=Adresszeiger
 1869 EA39  D1          GRAPH4:	POP	DE		; E=UP-Nr. fuer PUSE, PUDE, LINE, CIRCLE
 1870 EA3A  CD F02D     	CALL	PV5
 1871 EA3D  D0          	RET	NC		; kein FC-ERROR	(bisher SN-ERROR)
 1872 EA3E  C3 C967     FCERR:	JP	FCER		; FC-ERROR
 1873                   
 1874                   ; BASIC: Tonausgabe:
 1875                   
 1876 EA41  CD D421     SOUND:	CALL	ARGVL1		; 1. Wert abholen
 1877 EA44  E5          	PUSH	HL
 1878 EA45  21 B782     	LD	HL,ARG1		; Argumente hier ablegen
 1879 EA48  06 04       	LD	B,4		; 4 Argumente holen
 1880 EA4A  CD EAF8     SOUND1:	CALL	IRMWR		; Argument einschreiben
 1881 EA4D  23          	INC	HL
 1882 EA4E  E3          	EX	(SP),HL		; Umschaltung auf Programmzeiger
 1883 EA4F  05          	DEC	B
 1884 EA50  28 08       	JR	Z,SOUND2	; fertig mit 4 Werten
 1885 EA52  C5          	PUSH	BC
 1886 EA53  CD E8D1     	CALL	MC8D4		; 2. bis 4. Wert abholen
 1887 EA56  C1          	POP	BC
 1888 EA57  E3          	EX	(SP),HL		; Umschaltung auf ARG-Zeiger
 1889 EA58  18 F0       	JR	SOUND1
 1890                   	;
 1891 EA5A  CD C8BE     SOUND2:	CALL	TCHAR1		; weiterer Parameter?
 1892 EA5D  28 16       	JR	Z,SOUND3
 1893 EA5F  CD E8D1     	CALL	MC8D4		; optionalen 5. Wert (Lautstaerke) abholen
 1894 EA62  E3          	EX	(SP),HL
 1895 EA63  CD EAF8     	CALL	IRMWR		; und einschreiben nach ARG3
 1896 EA66  23          	INC	HL
 1897 EA67  E3          	EX	(SP),HL
 1898 EA68  CD C8BE     	CALL	TCHAR1		; weiterer Parameter?
 1899 EA6B  28 08       	JR	Z,SOUND3
 1900 EA6D  CD E8D1     	CALL	MC8D4		; optionalen 6. Wert (Tondauer) abholen
 1901 EA70  E3          	EX	(SP),HL
 1902 EA71  CD EAF8     	CALL	IRMWR		; und einschreiben nach ARG3+1
 1903 EA74  E3          	EX	(SP),HL
 1904 EA75  1E 35       SOUND3:	LD	E,35H		; UP-Nr. fuer TON
 1905 EA77  C1          	POP	BC		; Stack bereinigen
 1906 EA78  C3 F02D     	JP	PV5		; Tonausgabe aufrufen
 1907                   
 1908                   ; BASIC: String1 in String2 suchen
 1909                   
 1910 EA7B  CD CD36     INSTR:	CALL	SNALY6		; Klammer auf?
 1911 EA7E  CD C8D6     	CALL	CPCOMM		; Komma?
 1912 EA81  E5          	PUSH	HL
 1913 EA82  CD D330     	CALL	LEN1		; Laenge holen
 1914 EA85  28 B7       	JR	Z,FCERR		; FC-ERROR
 1915 EA87  47          	LD	B,A
 1916 EA88  23          	INC	HL
 1917 EA89  23          	INC	HL
 1918 EA8A  5E          	LD	E,(HL)
 1919 EA8B  23          	INC	HL
 1920 EA8C  56          	LD	D,(HL)
 1921 EA8D  E1          	POP	HL
 1922 EA8E  D5          	PUSH	DE
 1923 EA8F  C5          	PUSH	BC
SLR180 SuperFast Relocating Macro Assembler     			    SLR180 1.31 Page 127
CE48    INC

 1924 EA90  CD CD3A     	CALL	SNALY
 1925 EA93  CD C8DB     	CALL	CPBRGT		; Klammer zu?
 1926 EA96  C1          	POP	BC
 1927 EA97  D1          	POP	DE
 1928 EA98  E5          	PUSH	HL
 1929 EA99  D5          	PUSH	DE
 1930 EA9A  C5          	PUSH	BC
 1931 EA9B  CD D330     	CALL	LEN1		; Laenge holen
 1932 EA9E  28 9E       	JR	Z,FCERR		; FC-ERROR
 1933 EAA0  23          	INC	HL
 1934 EAA1  23          	INC	HL
 1935 EAA2  4E          	LD	C,(HL)
 1936 EAA3  23          	INC	HL
 1937 EAA4  66          	LD	H,(HL)
 1938 EAA5  69          	LD	L,C
 1939 EAA6  C1          	POP	BC
 1940 EAA7  4F          	LD	C,A
 1941 EAA8  D1          	POP	DE
 1942 EAA9  E5          	PUSH	HL
 1943 EAAA  C5          INSTR1:	PUSH	BC
 1944 EAAB  D5          	PUSH	DE
 1945 EAAC  1A          	LD	A,(DE)
 1946 EAAD  BE          INSTR2:	CP	(HL)
 1947 EAAE  28 0F       	JR	Z,INSTR5
 1948 EAB0  23          	INC	HL
 1949 EAB1  0D          	DEC	C
 1950 EAB2  20 F9       	JR	NZ,INSTR2
 1951 EAB4  AF          INSTR3:	XOR	A
 1952 EAB5  E1          	POP	HL
 1953 EAB6  E1          	POP	HL
 1954 EAB7  E1          	POP	HL
 1955 EAB8  11 CDF3     INSTR4:	LD	DE,SNLY16	; Rueckkehr zu Syntax-Check ')'
 1956 EABB  D5          	PUSH	DE
 1957 EABC  C3 D0C0     	JP	POS1
 1958                   	;
 1959 EABF  23          INSTR5:	INC	HL
 1960 EAC0  E5          	PUSH	HL
 1961 EAC1  2B          	DEC	HL
 1962 EAC2  23          INSTR6:	INC	HL
 1963 EAC3  0D          	DEC	C
 1964 EAC4  28 0E       	JR	Z,INSTR7
 1965 EAC6  13          	INC	DE
 1966 EAC7  05          	DEC	B
 1967 EAC8  28 11       	JR	Z,INSTR8
 1968 EACA  1A          	LD	A,(DE)
 1969 EACB  BE          	CP	(HL)
 1970 EACC  28 F4       	JR	Z,INSTR6
 1971 EACE  E1          	POP	HL
 1972 EACF  D1          	POP	DE
 1973 EAD0  C1          	POP	BC
 1974 EAD1  0D          	DEC	C
 1975 EAD2  18 D6       	JR	INSTR1
 1976                   	;
 1977 EAD4  13          INSTR7:	INC	DE
 1978 EAD5  05          	DEC	B
 1979 EAD6  E1          	POP	HL
 1980 EAD7  20 DB       	JR	NZ,INSTR3
 1981 EAD9  18 01       	JR	INSTR9
SLR180 SuperFast Relocating Macro Assembler     			    SLR180 1.31 Page 128
CE48    INC

 1982                   	;
 1983 EADB  E1          INSTR8:	POP	HL
 1984 EADC  D1          INSTR9:	POP	DE
 1985 EADD  D1          	POP	DE
 1986 EADE  D1          	POP	DE
 1987 EADF  A7          	AND	A
 1988 EAE0  ED 52       	SBC	HL,DE
 1989 EAE2  7D          	LD	A,L
 1990 EAE3  18 D3       	JR	INSTR4
 1991                   
 1992                   ; BASIC: F-Taste belegen:
 1993                   
 1994 EAE5  CD D421     BKEY:	CALL	ARGVL1		; Wert abholen
 1995 EAE8  FE 10       	CP	16		; F0 ... F15 zugelassen
 1996 EAEA  D2 EB8D     	JP	NC,SNERR4
 1997 EAED  1E 39       	LD	E,39H		; UP-Nr. fuer KEY
 1998 EAEF  01          	DB	1	; LC BC,nn
 1999                   
 2000                   ; BASIC: F-Tasten auflisten:
 2001                   
 2002 EAF0              KEYLIST:
 2003 EAF0  1E 3A       	LD	E,3AH		; UP-Nr. fuer KEYLI
 2004 EAF2  01          	DB	1	; LC BC,nn
 2005                   
 2006                   ; BASIC: Byte aus IRM lesen:
 2007                   
 2008 EAF3  1E 29       IRMRD:	LD	E,29H		; UP-Nr. fuer LDAM
 2009 EAF5  C3 F02D     JPV5:	JP	PV5
 2010                   
 2011                   ; BASIC: Byte in IRM schreiben:
 2012                   
 2013 EAF8  1E 28       IRMWR:	LD	E,28H		; UP-Nr. fuer LDMA
 2014 EAFA  18 F9       	JR	JPV5
 2015                   
 2016                   ; BASIC: Module schalten:
 2017                   
 2018 EAFC  CD D421     SWITCH:	CALL	ARGVL1		; 1. Wert abholen
 2019 EAFF  F5          	PUSH	AF		; Steckplatz
 2020 EB00  CD E8D1     	CALL	MC8D4		; 2. Wert abholen
 2021 EB03  57          	LD	D,A		; Steuerbyte
 2022 EB04  F1          	POP	AF
 2023 EB05  E5          	PUSH	HL
 2024 EB06  6F          	LD	L,A		; Steckplatz
 2025 EB07  3E 02       	LD	A,2		; schalten
 2026 EB09  1E 26       	LD	E,26H		; UP-Nr. fuer MODU
 2027 EB0B  CD F02D     	CALL	PV5
 2028 EB0E  E1          	POP	HL
 2029 EB0F  C9          	RET
 2030                   
 2031                   ; BASIC: Testen, ob Bildpunkt gesetzt ist:
 2032                   
 2033 EB10  CD CD36     PTEST:	CALL	SNALY6		; Klammer auf?
 2034 EB13  CD C96F     	CALL	EPRVL3		; Ausdruck berechnen -> DE
 2035 EB16  E5          	PUSH	HL		; Programmzeiger auf Stack legen
 2036 EB17  7B          	LD	A,E
 2037 EB18  21 B7D3     	LD	HL,HOR		; X-Koordinate eintragen
 2038 EB1B  CD EAF8     	CALL	IRMWR		; Low
 2039 EB1E  7A          	LD	A,D
SLR180 SuperFast Relocating Macro Assembler     			    SLR180 1.31 Page 129
CE48    INC

 2040 EB1F  23          	INC	HL
 2041 EB20  CD EAF8     	CALL	IRMWR		; High
 2042 EB23  23          	INC	HL		; VERT
 2043 EB24  E3          	EX	(SP),HL		; HL=Programmzeiger, (Stack)=VERT
 2044 EB25  0E 00       	ld	c,0		; Y-Koordinate nicht angegeben
 2045 EB27  7E          	LD	A,(HL)
 2046 EB28  FE 2C       	CP	','		; weiterer Parameter?
 2047 EB2A  20 0A       	JR	NZ,PTEST1	; nein
 2048 EB2C  CD E8D1     	CALL	MC8D4		; 2. Wert holen
 2049 EB2F  E3          	EX	(SP),HL		; HL=VERT
 2050 EB30  CD EAF8     	CALL	IRMWR		; Y-Koordinate eintragen
 2051 EB33  E3          	EX	(SP),HL		; HL=Programmzeiger
 2052 EB34  0E FF       	ld	c,-1		; Y-Koordinate angegeben
 2053 EB36  CD C8DB     PTEST1:	CALL	CPBRGT		; Klammer zu?
 2054 EB39  D1          	POP	DE		; VERT - wird nicht mehr benoetigt
 2055 EB3A  E3          	EX	(SP),HL		; Adresszeiger auf Stack
 2056 EB3B  11 CDF3     	LD	DE,SNLY16	; Rueckkehr zu Syntax-Check ')'
 2057 EB3E  D5          	PUSH	DE		; Sprungadresse auf Stack
 2058 EB3F  E5          	PUSH	HL		; urspruenglicher Stack-Wert
 2059 EB40  1E 2F       	LD	E,2FH		; UP-Nr. fuer PUDE
 2060 EB42  CD F02D     	CALL	PV5
 2061 EB45  DA C967     	JP	C,FCER		; ausserhalb -> FC-ERROR
 2062 EB48  F5          	PUSH	AF		; Z-Flag erhalten
 2063 EB49  DD CB 01 5E 	BIT	3,(IX+1)	; HiRes?
 2064 EB4D  28 20       	JR	Z,PTEST4	; Farbwert steht bereits in Register A
 2065 EB4F  F1          	POP	AF
 2066 EB50  06 00       	LD	B,0
 2067 EB52  28 19       	JR	Z,PTEST3	; Punkt war geloescht
 2068 EB54  21 B7D6     	LD	HL,FARB
 2069 EB57  CD EAF8     	CALL	IRMWR		; Grafikfarbe eintragen fuer folgendes PUSE
 2070 EB5A  0F          	RRCA
 2071 EB5B  0F          	RRCA			; Vordergrundfarbe nach Bit 0-3 rotieren
 2072 EB5C  0F          	RRCA
 2073 EB5D  E6 0F       	AND	0Fh
 2074 EB5F  20 02       	JR	NZ,PTEST2	; Farbe 1-15
 2075 EB61  3E 08       	LD	A,8		; Farbe 0 => 8 (beides ist schwarz)
 2076 EB63  47          PTEST2:	LD	B,A		; Rueckgabewert = Farbe 1..15
 2077 EB64  1E 30       	LD	E,30H		; UP-Nr. fuer PUSE
 2078 EB66  CD F02D     	CALL	PV5		; Punkt wieder setzen
 2079 EB69  0C          	inc	c		; war Y-Koordinate angegeben?
 2080 EB6A  28 01       	jr	z,PTEST3	; ja, dann Farbcode zurueck geben
 2081 EB6C  41          	ld	b,c		; ansonsten 1 fuer Punkt gesetzt
 2082 EB6D  78          PTEST3:	LD	A,B		; Rueckgabewert (0=geloescht oder Farbcode)
 2083 EB6E  06          	DB	06H		; LD B,0F1H
 2084 EB6F  F1          PTEST4:	POP	AF
 2085 EB70  18 65       	JR	JHPOS		; POP HL, JP POS1
 2086                   
 2087                   ; BASIC: IRM lesen (8000h bis BFFFh):
 2088                   
 2089 EB72  CD CDE1     VPEEK:	CALL	SNLY14		; Syntax-Check '('
 2090 EB75  E3          	EX	(SP),HL
 2091 EB76  11 CDF3     	LD	DE,SNLY16	; Rueckkehr zu Syntax-Check ')'
 2092 EB79  D5          	PUSH	DE
 2093 EB7A  CD C96F     	CALL	EPRVL3		; Wert bestimmen
 2094 EB7D  E5          	PUSH	HL
 2095 EB7E  21 8000     	LD	HL,8000H	; IRM-Offset
 2096 EB81  19          	ADD	HL,DE
 2097 EB82  38 09       	JR	C,SNERR4	; < 8000h
SLR180 SuperFast Relocating Macro Assembler     			    SLR180 1.31 Page 130
CE48    INC

 2098 EB84  CB 74       	BIT	6,H
 2099 EB86  20 05       	JR	NZ,SNERR4	; > BFFFh
 2100 EB88  CD EAF3     	CALL	IRMRD
 2101 EB8B  18 4A       	JR	JHPOS		; POP HL, JP POS1
 2102                   
 2103 EB8D  C3 C348     SNERR4:	JP	SNER		; SN-ERROR
 2104                   
 2105                   ; BASIC-Erweiterung 3: Funktionen
 2106                   ;**************************************************************
 2107                   ;* VERTEILER ZU ZUSAETZLICHEN STANDARDFUNKTIONEN
 2108                   ;* E: <HL> AUF SIGN. ZEICHEN NACH TOKEN
 2109                   ;*    <BC> =<<SP>>  (TOKEN-SGTOK)*2
 2110                   ;* A: <HL> AUF SIGN. ZEICHEN NACH TOKEN
 2111                   ;**************************************************************
 2112                   
 2113 EB90  79          BEXP3:	LD	A,C		; zulaessig?
 2114 EB91  FE 62       	CP	62H
 2115 EB93  28 DD       	JR	Z,VPEEK
 2116 EB95  FE 6E       	CP	6EH
 2117 EB97  CA EB10     	JP	Z,PTEST
 2118 EB9A  FE 7C       	CP	7CH
 2119 EB9C  28 1A       	JR	Z,CSRLN
 2120 EB9E  FE 76       	CP	76H
 2121 EBA0  28 39       	JR	Z,VGET
 2122 EBA2  D6 3E       	SUB	3EH
 2123 EBA4  38 E7       	JR	C,SNERR4	; nein
 2124 EBA6  FE 07       	CP	7
 2125 EBA8  30 E3       	JR	NC,SNERR4	; nein
 2126                   ;--------------------------------
 2127 EBAA  EB          	EX	DE,HL
 2128 EBAB  01 FDA6     	LD	BC,TOKJP	; Token-Adresstabelle
 2129 EBAE  E1          	POP	HL
 2130 EBAF  6F          	LD	L,A
 2131 EBB0  09          	ADD	HL,BC
 2132 EBB1  4E          	LD	C,(HL)
 2133 EBB2  23          	INC	HL
 2134 EBB3  66          	LD	H,(HL)
 2135 EBB4  69          	LD	L,C
 2136 EBB5  E5          	PUSH	HL		; Routine
 2137 EBB6  EB          	EX	DE,HL		; anspringen
 2138 EBB7  C9          	RET
 2139                   
 2140                   ; BASIC: aktuelle Zeilennummer holen:
 2141                   
 2142 EBB8  CD CDE1     CSRLN:	CALL	SNLY14		; Syntax-Check '('
 2143 EBBB  E3          	EX	(SP),HL
 2144 EBBC  11 CDF3     	LD	DE,SNLY16	; Rueckkehr zu Syntax-Check ')'
 2145 EBBF  D5          	PUSH	DE
 2146 EBC0  CD D424     	CALL	ARGVL2
 2147 EBC3  E5          	PUSH	HL
 2148 EBC4  A7          	AND	A		; Fenster beruecksichtigen?
 2149 EBC5  3E 00       	LD	A,0
 2150 EBC7  20 06       	JR	NZ,CSRLN1
 2151 EBC9  21 B79D     	LD	HL,WINON+1
 2152 EBCC  CD EAF3     	CALL	IRMRD
 2153 EBCF  47          CSRLN1:	LD	B,A
 2154 EBD0  21 B7A1     	LD	HL,CURSO+1
 2155 EBD3  CD EAF3     	CALL	IRMRD
SLR180 SuperFast Relocating Macro Assembler     			    SLR180 1.31 Page 131
CE48    INC

 2156 EBD6  80          	ADD	A,B		; aktuelle Zeile
 2157 EBD7  E1          JHPOS:	POP	HL
 2158 EBD8  C3 D0C0     CSRLN2:	JP	POS1
 2159                   
 2160                   ; BASIC: Zeichen von Bildschirm zurueck lesen
 2161                   
 2162 EBDB  E3          VGET:	EX	(SP),HL
 2163 EBDC  3E 01       	LD	A,1
 2164 EBDE  CD D17B     	CALL	STADTB
 2165 EBE1  CD F06B     	CALL	IRMON
 2166 EBE4  ED 5B B7A0  	LD	DE,(CURSO)
 2167 EBE8  CD E087     	CALL	DABR
 2168 EBEB  7E          	LD	A,(HL)
 2169 EBEC  CD F088     	CALL	IRMOF
 2170 EBEF  C3 E9C1     	JP	INKEY1		; als Zeichen zurueckgeben
 2171                   
 2172                   ; BASIC: Kanal schliessen:
 2173                   
 2174 EBF2  0E 00       CLOSE:	LD	C,0
 2175 EBF4  7E          	LD	A,(HL)
 2176 EBF5  FE 49       	CP	'I'		; Eingabe?
 2177 EBF7  28 05       	JR	Z,CLOS1
 2178 EBF9  0C          	INC	C
 2179 EBFA  FE 4F       	CP	'O'		; Ausgabe?
 2180 EBFC  20 8F       	JR	NZ,SNERR4
 2181 EBFE  C5          CLOS1:	PUSH	BC
 2182 EBFF  23          	INC	HL
 2183 EC00  7E          	LD	A,(HL)
 2184 EC01  FE 23       	CP	'#'
 2185 EC03  20 88       CLOS2:	JR	NZ,SNERR4	; SN-ERROR
 2186 EC05  23          	INC	HL
 2187 EC06  CD D421     	CALL	ARGVL1		; Wert abholen
 2188 EC09  E6 03       	AND	3		; 4 Geraete
 2189 EC0B  C1          	POP	BC
 2190 EC0C  C8          	RET	Z		; Console -> nichts tun
 2191 EC0D  E5          	PUSH	HL
 2192 EC0E  17          	RLA			; *2
 2193 EC0F  81          	ADD	A,C		; Ein-/Ausgabe
 2194 EC10  F5          	PUSH	AF
 2195 EC11  3D          	DEC	A
 2196 EC12  47          	LD	B,A
 2197 EC13  3E FF       	LD	A,-1
 2198 EC15  17          CLOS3:	RLA			; Bit platzieren
 2199 EC16  10 FD       	DJNZ	CLOS3
 2200 EC18  21 0307     	LD	HL,IOCHNL	; E/A-Flag
 2201 EC1B  A6          	AND	(HL)		; Bit loeschen
 2202 EC1C  77          	LD	(HL),A
 2203 EC1D  F1          	POP	AF
 2204 EC1E  E1          	POP	HL
 2205 EC1F  CB F7       	SET	6,A		; close
 2206 EC21  D5          	PUSH	DE
 2207 EC22  5F          	LD	E,A
 2208 EC23  16 03       	LD	D,3		; BRK-Code
 2209 EC25  CD E00E     	CALL	BASIO		; Kanal schliessen
 2210 EC28  D1          	POP	DE
 2211 EC29  C9          	RET
 2212                   
 2213                   ; BASIC-Erweiterung JOYST(i)
SLR180 SuperFast Relocating Macro Assembler     			    SLR180 1.31 Page 132
CE48    INC

 2214                   ; kompatibel zum KC 87 mit einem Joystick
 2215                   ;
 2216 EC2A  CD CDE1     JOYST:	CALL	SNLY14		; Syntax-Check '('
 2217 EC2D  E5          	PUSH	HL
 2218 EC2E  11 CDF3     	LD	DE,SNLY16	; Rueckkehr zu Syntax-Check ')'
 2219 EC31  D5          	PUSH	DE
 2220 EC32  CD C96F     	CALL	EPRVL3		; Ausdruck berechnen -> DE
 2221 EC35  7B          	LD	A,E
 2222 EC36  3D          	DEC	A
 2223 EC37  B2          	OR	D		; Argument gleich 1?
 2224 EC38  3E 00       	LD	A,0
 2225 EC3A  20 9C       	JR	NZ,CSRLN2	; nein: Rueckgabewert 0
 2226 EC3C  DB 90       	IN	A,(90h)		; M008 PIO A Daten
 2227 EC3E  2F          	CPL
 2228 EC3F  57          	LD	D,A
 2229 EC40  E6 0F       	AND	00001111b	; nur Richtungsbits, CY=0
 2230 EC42  1F          	RRA
 2231 EC43  30 02       	JR	NC,JOYST1
 2232 EC45  F6 10       	OR	00010000b	; <Up> auf Bit 3, CY=0
 2233 EC47  1F          JOYST1:	RRA
 2234 EC48  30 02       	JR	NC,JOYST2
 2235 EC4A  F6 04       	OR	00000100b	; <Down> auf Bit 2
 2236 EC4C  5F          JOYST2:	LD	E,A
 2237 EC4D  3E 30       	LD	A,00110000b	; Feuertasten
 2238 EC4F  A2          	AND	D
 2239 EC50  B3          	OR	E
 2240 EC51  18 85       	JR	CSRLN2		; Rueckgabewert in A
 2241                   
 2242                   ; BASIC: Zufallsgenerator:
 2243                   
 2244 EC53  ED 5F       RANDOM:	LD	A,R		; Zufallswert aus Refresh-Register
 2245 EC55  32 031D     	LD	(RNDVR3+2),A	; in CONST[0] eintragen
 2246 EC58  3E 07       	ld	a,7		; und Index auf 7 setzen,
 2247 EC5A  32 031B     	ld	(rndvr3),a	; damit dieser Wert sofort benutzt wird.
 2248 EC5D  C9          	RET
 2249                   
 2250                   ; BASIC: Kanal oeffnen:
 2251                   
 2252 EC5E  7E          OPEN:	LD	A,(HL)
 2253 EC5F  23          	INC	HL
 2254 EC60  FE 49       	CP	'I'		; Eingabe?
 2255 EC62  28 19       	JR	Z,OPEN1
 2256 EC64  FE 4F       	CP	'O'		; Ausgabe?
 2257 EC66  20 9B       	JR	NZ,CLOS2	; SN-ERROR
 2258 EC68  CD DE25     	CALL	OUTCHL		; Kanal-Ausgabe
 2259 EC6B  CD DDC8     	CALL	TESTCO
 2260 EC6E  C8          	RET	Z
 2261 EC6F  3E D5       	LD	A,0D5H		; *.UUU
 2262 EC71  CD DCB2     	CALL	CASS1		; Dateiname aufbereiten
 2263 EC74  21 03EA     	LD	HL,INTPRB	; Druckpuffer=Dateiname
 2264 EC77  AF          	XOR	A
 2265 EC78  CD DDD5     	CALL	CO		; Ausgabe Zeichen
 2266 EC7B  E1          	POP	HL
 2267 EC7C  C9          	RET
 2268                   	;
 2269 EC7D  CD DE5F     OPEN1:	CALL	INCHNL		; Kanal-Eingabe
 2270 EC80  3A 0309     	LD	A,(ININD)	; IN-Index
 2271 EC83  E6 03       	AND	3
SLR180 SuperFast Relocating Macro Assembler     			    SLR180 1.31 Page 133
CE48    INC

 2272 EC85  C8          	RET	Z
 2273 EC86  3E D5       	LD	A,0D5H		; *.UUU
 2274 EC88  CD DCB2     	CALL	CASS1		; Dateiname aufbereiten
 2275 EC8B  21 03EA     	LD	HL,INTPRB	; Druckpuffer=Dateiname
 2276 EC8E  CD DDE4     	CALL	CI		; Eingabe eines Zeichens
 2277 EC91  E1          	POP	HL
 2278 EC92  C9          	RET
 2279                   
 2280                   ; BASIC: Linie zeichnen:
 2281                   
 2282 EC93  01 043E     BLINE:	LD	BC,43EH		; 4 Parameter, UP LINE
 2283 EC96  18 03       	JR	GRAPH
 2284                   
 2285                   ; BASIC: Kreis zeichnen:
 2286                   
 2287 EC98  01 033F     CIRCLE:	LD	BC,33FH		; 3 Parameter, UP CIRCLE
 2288 EC9B  C5          GRAPH:	PUSH	BC
 2289 EC9C  CD C96C     	CALL	EPRVL4		; Parameter erfassen
 2290 EC9F  C1          	POP	BC
 2291 ECA0  C5          	PUSH	BC
 2292 ECA1  E5          	PUSH	HL
 2293 ECA2  21 B782     	LD	HL,ARG1		; hier ablegen
 2294 ECA5  7B          GRAPH1:	LD	A,E
 2295 ECA6  CD EAF8     	CALL	IRMWR		; Ablage der Parameter
 2296 ECA9  23          	INC	HL
 2297 ECAA  7A          	LD	A,D
 2298 ECAB  CD EAF8     	CALL	IRMWR
 2299 ECAE  23          	INC	HL
 2300 ECAF  05          	DEC	B
 2301 ECB0  CA EA25     	JP	Z,GRAPH2	; alle Parameter erfasst
 2302 ECB3  E3          	EX	(SP),HL
 2303 ECB4  C5          	PUSH	BC
 2304 ECB5  CD C8D6     	CALL	CPCOMM		; Komma?
 2305 ECB8  CD C96C     	CALL	EPRVL4		; naechsten Parameter
 2306 ECBB  C1          	POP	BC
 2307 ECBC  E3          	EX	(SP),HL
 2308 ECBD  18 E6       	JR	GRAPH1
 2309                   	;
 2310                   ;GRAPH2:	POP	HL
 2311                   ;	CALL	GFARB		; optionaler Parameter (Farbwert)
 2312                   ;	POP	DE		; E=UP-Nr. fuer LINE oder CIRCLE
 2313                   ;	JP	PV5
 2314                   
 2315                   ; BASIC: DEVICE einstellen
 2316                   ;	Aufruf: DEVICE nr, wobei nr=0 fuer TAPE usw.
 2317                   
 2318 ECBF  CD C8BE     BDEV:	CALL	TCHAR1		; Parameter angegeben?
 2319 ECC2  3E FF       	LD	A,0FFH		; ohne Parameter auflisten was es gibt
 2320 ECC4  C4 D421     	CALL	NZ,ARGVL1	; ansonsten Wert holen
 2321 ECC7  E5          	PUSH	HL
 2322 ECC8  CD F06B     	CALL	IRMON		; IRM ein
 2323 ECCB  CD FBD2     	CALL	SETDEV		; und Geraet entsprechend einstellen
 2324 ECCE  DA F8A2     	JP	C,BD2		; Treiber nicht aktiv -> IO-ERROR
 2325 ECD1  3E FE       	LD	A,0FEh
 2326 ECD3  CD FBD2     	CALL	SETDEV		; Name des Treibers anzeigen
 2327 ECD6  CD F4C4     	CALL	CRLF
 2328 ECD9  CD F088     BD1:	CALL	IRMOF		; IRM aus
 2329 ECDC  E1          	POP	HL
SLR180 SuperFast Relocating Macro Assembler     			    SLR180 1.31 Page 134
CE48    INC

 2330 ECDD  C9          	RET
 2331                   
 2332                   ; BASIC: MC-Programm laden
 2333                   ;	Aufruf: BLOAD "name.typ", wobei Name bei DEVICE=TAPE entfallen kann
 2334                   ; PE:	HL	Zeiger auf Kommando
 2335                   ; PA:	HL	Zeiger weiter gerueckt, wieweit abgearbeitet ist
 2336                   
 2337 ECDE  CD C8BE     BLOAD:	CALL	TCHAR1		; Parameter angegeben?
 2338 ECE1  28 14       	JR	Z,BLOAD2	; ohne Parameter
 2339 ECE3  CD CD3A     	CALL	SNALY
 2340 ECE6  E5          	PUSH	HL		; Kommandozeile
 2341                   ;	LD	A,12		; max. Laenge Dateiname+Typ
 2342 ECE7  CD ED2D     	CALL	MASK		; Zeichenkette in DE
 2343 ECEA  EB          	EX	DE,HL		; Dateiname in HL
 2344 ECEB  CD F06B     BLOAD1:	CALL	IRMON
 2345 ECEE  AF          	XOR	A
 2346 ECEF  32 B781     	LD	(ARGN),A	; ARGN=0 (kein Ladeoffset)
 2347 ECF2  CD F6DB     	CALL	LOAD		; UP 10H direkt aufrufen
 2348 ECF5  18 E2       	JR	BD1
 2349                   	;
 2350 ECF7  E5          BLOAD2:	PUSH	HL
 2351 ECF8  CD ED6D     	CALL	DEV		; Kassette?
 2352 ECFB  28 EE       	JR	Z,BLOAD1	; ja, das ist OK ohne Name
 2353 ECFD  1E 24       	LD	E,36		; MO-ERROR
 2354 ECFF  C3 C356     	JP	ERROO		; Error anzeigen
 2355                   
 2356                   ; BASIC: DIR anzeigen aktuelles Speichergeraet
 2357                   ;	Aufruf: FILES "maske", wobei Maske optional ist
 2358                   ; PE:	HL	Zeiger auf Kommando
 2359                   ; PA:	HL	Zeiger weiter gerueckt, wieweit abgearbeitet ist
 2360                   
 2361 ED02  CD C8BE     FILES:	CALL	TCHAR1		; Parameter angegeben?
 2362 ED05  28 10       	JR	Z,FILES3	; ohne Parameter
 2363 ED07  CD CD3A     	CALL	SNALY
 2364 ED0A  E5          	PUSH	HL		; Kommandozeile
 2365 ED0B  CD ED2D     	CALL	MASK		; Zeichenkette in DE
 2366 ED0E  CD F06B     FILES2:	CALL	IRMON		; IRM ein
 2367 ED11  CD E4E1     	CALL	PV7
 2368 ED14  08          	DB	8		; DEVICE-Funktion DIR aufrufen
 2369 ED15  18 C2       	JR	BD1
 2370                   	;
 2371 ED17  E5          FILES3:	PUSH	HL		; Kommandozeile
 2372 ED18  11 EDF6     	LD	DE,MASK0	; zeigt auf eine 0
 2373 ED1B  18 F1       	JR	FILES2		; gesamtes Verzeichnis anzeigen
 2374                   
 2375                   ; BASIC: Verzeichnis wechseln
 2376                   ;	Aufruf: CD "verzeichnisname"
 2377                   ; PE:	HL	Zeiger auf Kommando
 2378                   ; PA:	HL	Zeiger weiter gerueckt, wieweit abgearbeitet ist
 2379                   
 2380 ED1D              CHDIR:	;CALL	TCHAR1		; Parameter angegeben?
 2381 ED1D  CD CD3A     	CALL	SNALY
 2382 ED20  E5          	PUSH	HL		; Kommandozeile
 2383 ED21  CD ED2D     	CALL	MASK		; Zeichenkette "Verzeichnis" in DE bereitstellen
 2384 ED24  CD F06B     	CALL	IRMON		; IRM ein
 2385 ED27  CD E4E1     	CALL	PV7
 2386 ED2A  09          	DB	9		; DEVICE-Funktion CD aufrufen
 2387 ED2B  18 AC       	JR	BD1
SLR180 SuperFast Relocating Macro Assembler     			    SLR180 1.31 Page 135
CE48    INC

 2388                   
 2389                   ; Zeichenkette "Maske" bzw. "Verzeichnis" in DE bereitstellen
 2390                   ; PE:	HL	Zeiger auf Ende einer Zeichenkette, direkt nach dem " am Ende
 2391                   ;
 2392 ED2D  2B          MASK:	DEC	HL		; zurueck auf letztes Zeichen
 2393 ED2E  7E          	LD	A,(HL)
 2394 ED2F  FE 22       	CP	22H		; Anfuehrungszeichen?
 2395 ED31  28 FA       	JR	Z,MASK		; dann auch noch davor gehen
 2396 ED33  23          	INC	HL
 2397 ED34  E5          	PUSH	HL
 2398 ED35  CD D33F     	CALL	ASC1		; DE zeigt jetzt auf Beginn der Maske nach dem "
 2399 ED38  E1          	POP	HL
 2400 ED39  AF          	XOR	A		; A=0 und CY=0
 2401 ED3A  ED 52       	SBC	HL,DE
 2402 ED3C  44          	LD	B,H
 2403 ED3D  4D          	LD	C,L		; BC = Laenge der Zeichenkette
 2404 ED3E  EB          	EX	DE,HL		; HL = Beginn der Zeichenkette
 2405 ED3F  11 0362     	LD	DE,0362H	; INPBUF+1	; Eingabepuffer
 2406 ED42  D5          	PUSH	DE
 2407 ED43  ED B0       	LDIR
 2408 ED45  12          	LD	(DE),A		; 0 anhaengen
 2409 ED46  D1          	POP	DE		; Maske in EDIT-PUFFER
 2410 ED47  C9          	RET
 2411                   
 2412                   ; Sprung aus CAOS-ROM-C in INIT-Routine des ROM-Moduls (z.B. M052-USB)
 2413                   ; PE:	A	Schaltzustand Modul ein
 2414                   ;	B	Steckplatz
 2415                   
 2416 ED48  57          JROM:	LD	D,A		; Schaltzustand
 2417 ED49  68          	LD	L,B		; Steckplatz
 2418 ED4A  E5          	PUSH	HL		; Steckplatz merken zum wieder ausschalten
 2419 ED4B  CD F0E3     	CALL	MODUSW		; M052 einschalten (und MODST aktualisieren)
 2420                   ;	IN	A,(PIOAD)
 2421                   ;	AND	7Fh		; USER-ROM abschalten (wegen Aufruf aus TEMO)
 2422                   ;	OUT	(PIOAD),A
 2423                   	RESIXA	7,4		; RES 7,(IX+4),A
    1 ED4E  DD CB 04    	 DB	0DDh,0CBh,4
    2 ED51  BF          	 DB	7 SHL 3 OR 10000111b
 2424 ED52  D3 86       	OUT	(PORT2),A	; CAOS-ROM C aus!
 2425 ED54  45          	LD	B,L		; Steckplatz
 2426 ED55  21 ED5C     	LD	HL,JREX		; Rueckkehr hierher
 2427 ED58  E5          	PUSH	HL
 2428 ED59  C3 C020     	JP	0C020h		; Sprung in Modul-ROM -> Treiber initialisieren
 2429                   	;
 2430 ED5C  E1          JREX:	POP	HL		; L=Stekplatz des Moduls
 2431 ED5D  16 00       	LD	D,0		; Modul AUS
 2432 ED5F  CD F0E3     	CALL	MODUSW		; Modul wieder aus schalten
 2433 ED62  C3 FB98     	JP	CON		; Sprung zurueck in CAOS-ROM C
 2434                   ;_____________________________________________________________
 2435                   ;							**40**
 2436                   ; Berechnen der Quadratwurzel
 2437                   ; PE:	HL	16 Bit-Zahl (vorzeichenlos)
 2438                   ; PA:	A	Ergebnis 8 Bit
 2439                   ; VR:	AF,HL,DE
 2440                   
 2441 ED65  CD FB98     SQR:	CALL	CON
 2442 ED68  C3 D2CF     	JP	SQRC
 2443                   ;
SLR180 SuperFast Relocating Macro Assembler     			    SLR180 1.31 Page 136
CE48    INC

 2444                   ; DEVICE ermitteln:
 2445                   ; PA:	A	DEVICE-Nummer*32
 2446                   ;	Z=1	TAPE
 2447                   ;	CY=0
 2448                   ;
 2449 ED6B  26 A9       DEVH:	LD	H,High(DEVTAB)	; (HL)=Sprungadresse
 2450 ED6D  DD 7E 08    DEV:	LD	A,(IX+8)	; Device-Nr. in Bit 2-4
 2451 ED70  07          DEVROT:	RLCA			;	in Bit 3-5
 2452 ED71  07          	RLCA			;	in Bit 4-6
 2453 ED72  07          	RLCA			;	in Bit 5-7
 2454 ED73  E6 E0       	AND	11100000b	; Device-Nr. ausfiltern, Z=1 wenn Device=0
 2455 ED75  C9          	RET
 2456                   
 2457                   ; Initialisierungstabelle fuer M021:
 2458                   
 2459 ED76  03          CENINI:	DB	3
 2460                   
 2461 ED77  92 05       JOYINI:	 DB	92h,5		; PIO-A Steuerwort
 2462 ED79  E0          	  DB	0E0h		; Interruptvektor
 2463 ED7A  CF          	  DB	11001111b	; Einzelbit-Steuermodus
 2464 ED7B  7F          	  DB	01111111b	; Nur Bit 7 = Ausgabe (Strobe)
 2465 ED7C  97          	  DB	10010111b	; Interrupt bei jeder Bitaenderung
 2466 ED7D  C0          	  DB	11000000b	; Ueberwache Bits 0..5
 2467                   
 2468 ED7E  93 02       	 DB	93h,2		; PIO-B Steuerwort
 2469 ED80  CF          	  DB	11001111b	; Bitbetrieb
 2470 ED81  00          	  DB	00000000b	; alles Ausgaenge
 2471                   
 2472 ED82  90 01       	 DB	90h,1		; PIO-A Daten
 2473 ED84  80          	  DB	10000000b	; Strobe passiv
 2474                   ;
 2475                   ; ISR fuer CTC2: Tonlaenge
 2476                   ;
 2477 ED85  F5          ISRC2:	PUSH	AF
 2478 ED86  E5          	PUSH	HL
 2479 ED87  CD E482     	CALL	TOFF		; kehrt mit EI zurueck
 2480 ED8A  E1          	POP	HL
 2481 ED8B  F1          	POP	AF
 2482 ED8C  ED 4D       	RETI
 2483                   
 2484                   ; Reaktion auf ShCLR:
 2485                   
 2486 ED8E  F5          HCPGM:	PUSH	AF
 2487 ED8F  DD 7E 04    	LD	A,(IX+4)	; CAOS-C merken
 2488 ED92  F5          	PUSH	AF
 2489                   	SETIXA	7,4		; SET 7,(IX+4),A
    1 ED93  DD CB 04    	 DB	0DDh,0CBh,4
    2 ED96  FF          	 DB	7 SHL 3 OR 11000111b
 2490 ED97  D3 86       	OUT	(PORT2),A	; CAOS-C on
 2491 ED99  CD CAA0     	CALL	HCPGMC
 2492 ED9C  F1          	POP	AF
 2493 ED9D  CD E2A3     	CALL	OUT86		; CAOS-C wie vorher
 2494 EDA0  F1          	POP	AF
 2495 EDA1  C9          	RET
 2496                   ;
 2497                   ; Version 0 fuer TAPE- und DISK-Treiber melden
 2498                   ;
 2499 EDA2  AF          VER0:	XOR	A		; Version 0.0
SLR180 SuperFast Relocating Macro Assembler     			    SLR180 1.31 Page 137
CE48    INC

 2500 EDA3  C9          	RET
 2501                   ;_____________________________________________________________
 2502                   ;							**4A**
 2503                   ; Dezimalausgabe des Wertes in HL
 2504                   ; PE:	HL	Zahl
 2505                   ; VR:	AF, HL, BC
 2506                   
 2507 EDA4  D5          HLDEZ:	PUSH	DE		; bei Rekursion: letzten Rest retten
 2508 EDA5  01 FFF6     	LD	BC,-10
 2509 EDA8  11 FFFF     	LD	DE,-1		; Zaehler fuer Ergebnis (Anzahl Sub's)
 2510 EDAB  09          HLDEZ1:	ADD	HL,BC
 2511 EDAC  13          	INC	DE
 2512 EDAD  38 FC       	JR	C,HLDEZ1	; DE = HL/10
 2513 EDAF  01 000A     	LD	BC,10
 2514 EDB2  09          	ADD	HL,BC		; letzten Abzug korrigieren; HL = Rest
 2515 EDB3  EB          	EX	DE,HL		; 10er / Rest tauschen
 2516 EDB4  7C          	LD	A,H
 2517 EDB5  B5          	OR	L		; Zehner = 0 ?
 2518 EDB6  C4 EDA4     	CALL	NZ,HLDEZ	; Rekursion wenn Zehner vorhanden
 2519 EDB9  7B          	LD	A,E
 2520 EDBA  C6 30       	ADD	A,'0'		; Rest -> ASCII in A
 2521 EDBC  CD F3BB     	CALL	OCHR		; Ziffer ausgeben
 2522 EDBF  D1          	POP	DE		; voriger Rest
 2523 EDC0  C9          	RET
 2524                   ;
 2525                   ; Tabelle der ESC-Funktionen:
 2526                   ;
 2527 EDC1  E1D7        ESCTAB:	DW	ESC0		; Tabulatorsprung			ESC'0'
 2528 EDC3  F943        	DW	ESC1		; Anzeige Bild 0	Zugriff Bild 0	ESC'1'
 2529 EDC5  F948        	DW	ESC2		;	  Bild 1		Bild 1	ESC'2'
 2530 EDC7  F94D        	DW	ESC3		;	  Bild 0		Bild 1	ESC'3'
 2531 EDC9  F952        	DW	ESC4		;	  Bild 1		Bild 0	ESC'4'
 2532 EDCB  F0CC        	DW	ESC5		; MODUL-Anzeige				ESC'5'
 2533 EDCD  F0D4        	DW	ESC6		; SYSTEM-Anzeige			ESC'6'
 2534 EDCF  F991        	DW	ESC7		; Pixel invertieren			ESC'7'
 2535 EDD1  E2D3        	DW	ESC8		; Farbe invertieren			ESC'8'
 2536 EDD3  F99A        	DW	ESC9		; Farbebene ein/aus			ESC'9'
 2537 EDD5  F9A1        	DW	ESCA		; HiRes ein/aus				ESC'A'
 2538 EDD7  F9B7        	DW	ESCB		; HRG ein/aus				ESC'B'
 2539 EDD9  F98E        	DW	ESCC		; IBM/CAOS-Zeichensatz			ESC'C'
 2540 EDDB  F0EB        	DW	ESCD		; DEVICE-Umschaltung			ESC'D'
 2541 EDDD  E000        	DW	0E000H		; Soft-Reset				ESC'E'
 2542 EDDF  F000        	DW	0F000H		; Soft-Power-On				ESC'F'
 2543 EDE1  F98B        	DW	ESCG		; Umschaltung 2-Monitor-Betrieb		ESC'G'
 2544 EDE3  F0F3        	DW	ESCH		; Hilfefunktion (Idee aus CAOS 6.0)	ESC'H'
 2545 EDE5              ESCX:
 2546                   
 2547 EDE5  49 4E 49 54 INIT:	DB	'INIT',cr,0	; CAOS 4.8: Autostart-Kommando
 2548 EDEB  49 4E 49 54 UUU:	DB	'INITIAL.UUU'	; Standard-Dateiname fuer %INIT
 2549 EDF6  00          MASK0:	DB	0		; Maske fuer BASIC-Befehl FILES ohne Parameter
 2550                   
 2551                   	ABSFILL	0EDF7h,<ROM-E-Ende>
 2552                   
 2553                   ; High-Byte der Adresse muss konstant sein!
 2554                   ; je 1 Byte fuer Eingabe + Ausgabe pro Kanal
 2555                   
 2556 EDF7  16 24       BUPTAB:	DB	16H, 24H	; INTB, OCHR	Kanel #0 - Konsole
 2557 EDF9  37 38       	DB	37H, 38H	; MBIN, MBOUT	Kanal #1 - Kassette
SLR180 SuperFast Relocating Macro Assembler     			    SLR180 1.31 Page 138
CE48    INC

 2558 EDFB  06 02       	DB	06H, 02H	; USIN1, UOT1	Kanal #2 - Anwenderkanal 2
 2559 EDFD  07 03       	DB	07H, 03H	; USIN2, UOT2	Kanal #3 - Anwenderkanal 3
 2560                   
 2561 EDFF              VERSION:
 2562 EDFF  48          	DB	48H		; CAOS-Version 4.8
  244 EE00              LARGE:
  245         0000      if duenn
  247                   else
  248                   	INCLUDE ZSGROSS.INC	; Zeichensatz Grossbuchstaben Standard
    1                   ;*****************************************
    2                   ;**	CAOS 4.8 Zeichensatz Gross	**
    3                   ;**					**
    4                   ;**	Adresse:  EE00h bis EFFFh	**
    5                   ;**	Codes 20h-5Fh			**
    6                   ;**					**
    7                   ;**	letzte Aenderung: 05.02.2018	**
    8                   ;*****************************************
    9                   
   10 EE00  00 00 00 00 	DB	000H, 000H, 000H, 000H, 000H, 000H, 000H, 000H	; 20H
   11 EE08  30 78 78 30 	DB	030H, 078H, 078H, 030H, 030H, 000H, 030H, 000H	; 21H !
   12 EE10  EE 66 CC 00 	DB	0EEH, 066H, 0CCH, 000H, 000H, 000H, 000H, 000H	; 22H "
   13 EE18  36 36 FE 6C 	DB	036H, 036H, 0FEH, 06CH, 0FEH, 0D8H, 0D8H, 000H	; 23H #
   14 EE20  30 7C D0 7C 	DB	030H, 07CH, 0D0H, 07CH, 036H, 0FCH, 030H, 000H	; 24H $
   15 EE28  00 C6 CC 18 	DB	000H, 0C6H, 0CCH, 018H, 030H, 066H, 0C6H, 000H	; 25H %
   16 EE30  38 6C 38 76 	DB	038H, 06CH, 038H, 076H, 0DCH, 0CCH, 076H, 000H	; 26H &
   17 EE38  1C 0C 18 00 	DB	01CH, 00CH, 018H, 000H, 000H, 000H, 000H, 000H	; 27H '
   18 EE40  18 30 60 60 	DB	018H, 030H, 060H, 060H, 060H, 030H, 018H, 000H	; 28H (
   19 EE48  60 30 18 18 	DB	060H, 030H, 018H, 018H, 018H, 030H, 060H, 000H	; 29H )
   20 EE50  00 66 3C FF 	DB	000H, 066H, 03CH, 0FFH, 03CH, 066H, 000H, 000H	; 2AH *
   21 EE58  00 30 30 FC 	DB	000H, 030H, 030H, 0FCH, 030H, 030H, 000H, 000H	; 2BH +
   22 EE60  00 00 00 00 	DB	000H, 000H, 000H, 000H, 000H, 01CH, 00CH, 018H	; 2CH ,
   23 EE68  00 00 00 FE 	DB	000H, 000H, 000H, 0FEH, 000H, 000H, 000H, 000H	; 2DH -
   24 EE70  00 00 00 00 	DB	000H, 000H, 000H, 000H, 000H, 030H, 030H, 000H	; 2EH .
   25 EE78  06 0C 18 30 	DB	006H, 00CH, 018H, 030H, 060H, 0C0H, 080H, 000H	; 2FH /
   26                   
   27 EE80  7C C6 CE DE 	DB	07CH, 0C6H, 0CEH, 0DEH, 0F6H, 0E6H, 07CH, 000H	; 30H 0
   28 EE88  30 70 30 30 	DB	030H, 070H, 030H, 030H, 030H, 030H, 0FCH, 000H	; 31H 1
   29 EE90  78 CC 0C 38 	DB	078H, 0CCH, 00CH, 038H, 060H, 0CCH, 0FCH, 000H	; 32H 2
   30 EE98  FC 18 30 78 	DB	0FCH, 018H, 030H, 078H, 00CH, 0CCH, 078H, 000H	; 33H 3
   31 EEA0  1C 3C 6C CC 	DB	01CH, 03CH, 06CH, 0CCH, 0FEH, 00CH, 01EH, 000H	; 34H 4
   32 EEA8  FC C0 F8 0C 	DB	0FCH, 0C0H, 0F8H, 00CH, 00CH, 0CCH, 078H, 000H	; 35H 5
   33 EEB0  38 60 C0 F8 	DB	038H, 060H, 0C0H, 0F8H, 0CCH, 0CCH, 078H, 000H	; 36H 6
   34 EEB8  FC CC 0C 18 	DB	0FCH, 0CCH, 00CH, 018H, 030H, 030H, 030H, 000H	; 37H 7
   35 EEC0  78 CC CC 78 	DB	078H, 0CCH, 0CCH, 078H, 0CCH, 0CCH, 078H, 000H	; 38H 8
   36 EEC8  78 CC CC 7C 	DB	078H, 0CCH, 0CCH, 07CH, 00CH, 018H, 070H, 000H	; 39H 9
   37 EED0  00 00 30 30 	DB	000H, 000H, 030H, 030H, 000H, 030H, 030H, 000H	; 3AH :
   38 EED8  00 00 30 30 	DB	000H, 000H, 030H, 030H, 000H, 030H, 030H, 060H	; 3BH ;
   39 EEE0  18 30 60 C0 	DB	018H, 030H, 060H, 0C0H, 060H, 030H, 018H, 000H	; 3CH <
   40 EEE8  00 00 FC 00 	DB	000H, 000H, 0FCH, 000H, 0FCH, 000H, 000H, 000H	; 3DH =
   41 EEF0  60 30 18 0C 	DB	060H, 030H, 018H, 00CH, 018H, 030H, 060H, 000H	; 3EH >
   42 EEF8  78 CC 0C 18 	DB	078H, 0CCH, 00CH, 018H, 030H, 000H, 030H, 000H	; 3FH ?
   43                   
   44 EF00  7C C6 DE D6 	DB	07CH, 0C6H, 0DEH, 0D6H, 0DEH, 0C0H, 078H, 000H	; 40H @
   45 EF08  30 78 CC CC 	DB	030H, 078H, 0CCH, 0CCH, 0FCH, 0CCH, 0CCH, 000H	; 41H A
   46 EF10  FC 66 66 7C 	DB	0FCH, 066H, 066H, 07CH, 066H, 066H, 0FCH, 000H	; 42H B
   47 EF18  3C 66 C0 C0 	DB	03CH, 066H, 0C0H, 0C0H, 0C0H, 066H, 03CH, 000H	; 43H C
   48 EF20  F8 6C 66 66 	DB	0F8H, 06CH, 066H, 066H, 066H, 06CH, 0F8H, 000H	; 44H D
   49 EF28  FE 62 68 78 	DB	0FEH, 062H, 068H, 078H, 068H, 062H, 0FEH, 000H	; 45H E
SLR180 SuperFast Relocating Macro Assembler     			    SLR180 1.31 Page 139
ZSGROSS INC

   50 EF30  FE 62 68 78 	DB	0FEH, 062H, 068H, 078H, 068H, 060H, 0F0H, 000H	; 46H F
   51 EF38  3C 66 C0 C0 	DB	03CH, 066H, 0C0H, 0C0H, 0CEH, 066H, 03CH, 000H	; 47H G
   52 EF40  CC CC CC FC 	DB	0CCH, 0CCH, 0CCH, 0FCH, 0CCH, 0CCH, 0CCH, 000H	; 48H H
   53 EF48  78 30 30 30 	DB	078H, 030H, 030H, 030H, 030H, 030H, 078H, 000H	; 49H I
   54 EF50  1E 0C 0C 0C 	DB	01EH, 00CH, 00CH, 00CH, 0CCH, 0CCH, 078H, 000H	; 4AH J
   55 EF58  E6 66 6C 70 	DB	0E6H, 066H, 06CH, 070H, 06CH, 066H, 0E6H, 000H	; 4BH K
   56 EF60  F0 60 60 60 	DB	0F0H, 060H, 060H, 060H, 062H, 066H, 0FEH, 000H	; 4CH L
   57 EF68  C6 EE FE D6 	DB	0C6H, 0EEH, 0FEH, 0D6H, 0C6H, 0C6H, 0C6H, 000H	; 4DH M
   58 EF70  C6 E6 F6 DE 	DB	0C6H, 0E6H, 0F6H, 0DEH, 0CEH, 0C6H, 0C6H, 000H	; 4EH N
   59 EF78  38 6C C6 C6 	DB	038H, 06CH, 0C6H, 0C6H, 0C6H, 06CH, 038H, 000H	; 4FH O
   60                   
   61 EF80  FC 66 66 7C 	DB	0FCH, 066H, 066H, 07CH, 060H, 060H, 0F0H, 000H	; 50H P
   62 EF88  78 CC CC CC 	DB	078H, 0CCH, 0CCH, 0CCH, 0DCH, 078H, 01CH, 000H	; 51H Q
   63 EF90  FC 66 66 7C 	DB	0FCH, 066H, 066H, 07CH, 06CH, 066H, 0E6H, 000H	; 52H R
   64 EF98  7C C6 F0 3C 	DB	07CH, 0C6H, 0F0H, 03CH, 00EH, 0C6H, 07CH, 000H	; 53H S
   65 EFA0  FC B4 30 30 	DB	0FCH, 0B4H, 030H, 030H, 030H, 030H, 078H, 000H	; 54H T
   66 EFA8  CC CC CC CC 	DB	0CCH, 0CCH, 0CCH, 0CCH, 0CCH, 0CCH, 078H, 000H	; 55H U
   67 EFB0  CC CC CC 78 	DB	0CCH, 0CCH, 0CCH, 078H, 078H, 030H, 030H, 000H	; 56H V
   68 EFB8  C6 C6 C6 D6 	DB	0C6H, 0C6H, 0C6H, 0D6H, 0FEH, 0EEH, 0C6H, 000H	; 57H W
   69 EFC0  C6 C6 6C 38 	DB	0C6H, 0C6H, 06CH, 038H, 06CH, 0C6H, 0C6H, 000H	; 58H X
   70 EFC8  CC CC CC 78 	DB	0CCH, 0CCH, 0CCH, 078H, 030H, 030H, 078H, 000H	; 59H Y
   71 EFD0  FE C6 8C 18 	DB	0FEH, 0C6H, 08CH, 018H, 032H, 066H, 0FEH, 000H	; 5AH Z
   72 EFD8  FF FF FF FF 	DB	0FFH, 0FFH, 0FFH, 0FFH, 0FFH, 0FFH, 0FFH, 0FFH	; 5BH Vollzeichen
   73 EFE0  18 18 18 18 	DB	018H, 018H, 018H, 018H, 018H, 018H, 018H, 000H	; 5CH senkr. Strich
   74 EFE8  00 FE 06 06 	DB	000H, 0FEH, 006H, 006H, 000H, 000H, 000H, 000H	; 5DH Negationszeichen
   75 EFF0  10 38 6C C6 	DB	010H, 038H, 06CH, 0C6H, 000H, 000H, 000H, 000H	; 5EH ^
   76 EFF8  00 00 00 00 	DB	000H, 000H, 000H, 000H, 000H, 000H, 000H, 0FFH	; 5FH _
  249                   endif
  250                   	INCLUDE	CF48.INC	; ROM-F (F000-FDFF)
    1                   ;*****************************************
    2                   ;**	CAOS 4.8	ROM F		**
    3                   ;**					**
    4                   ;**	Adresse:  F000h bis FDFFh	**
    5                   ;**					**
    6                   ;**	letzte Aenderung: 20.02.2023	**
    7                   ;*****************************************
    8                   
    9                   ;	ORG	0F000H
   10                   				;			  feste Adresse
   11 F000  C3 F150     	JP	PWRON		; >> POWER ON <<		F000
   12 F003  C3 F039     	JP	PV1		; DEFB nr			F003
   13 F006  18 4F       	JR	PV2		; (ARGC)=nr			F006
   14 F008  02          ZEI2:	DB	2	; UOUT1					F008
   15 F009  18 4A       	JR	PV3		; E=nr				F009
   16 F00B  03          ZEI3:	DB	3	; UOUT2					F00B
   17 F00C  C3 E041     	JP	PV4		; E=nr, IRM e/a			F00C
   18 F00F  C3 F09F     	JP	RCALL		; DEFW offset			F00F
   19 F012  C3 F157     	JP	BYE		; JUMP-Einsprung		F012
   20 F015  18 16       	JR	PV5		; E=nr, IRM/Stack		F015
   21 F017  04          INTT1:	DB	4	; KBD					F017
   22 F018  C3 F06B     	JP	IRMON		;				F018
   23 F01B  C3 F088     	JP	IRMOF		;				F01B
   24 F01E  18 04       	JR	PV6		; (ARGC)=nr			F01E
   25 F020  00          OUTT1:	DB	0	; CRT					F020
   26 F021  C3 E4E1     	JP	PV7		; DEVICE-Aufruf, DEFB nr.	F021
   27                   				; PV7 ab CAOS 4.7 verfuegbar
   28 F024  C5          PV6:	PUSH	BC
   29 F025  CD F06B     	CALL	IRMON
SLR180 SuperFast Relocating Macro Assembler     			    SLR180 1.31 Page 140
CF48    INC

   30 F028  CD F057     	CALL	PV2
   31 F02B  18 07       	JR	PV51
   32                   
   33 F02D  C5          PV5:	PUSH	BC
   34 F02E  CD F06B     	CALL	IRMON
   35 F031  CD F055     	CALL	PV3
   36 F034  CD F088     PV51:	CALL	IRMOF
   37 F037  C1          	POP	BC
   38 F038  C9          	RET
   39                   
   40 F039  F3          PV1:	DI
   41 F03A  E5          	PUSH	HL
   42 F03B  E1          	POP	HL
   43 F03C  E1          	POP	HL
   44 F03D  23          	INC	HL		; nr uebergehen
   45 F03E  E5          	PUSH	HL
   46 F03F  2B          	DEC	HL		; (HL)=nr
   47 F040  3B          	DEC	SP
   48 F041  3B          	DEC	SP
   49 F042  FB          	EI
   50 F043  F5          	PUSH	AF
   51 F044  D5          	PUSH	DE
   52 F045  5E          	LD	E,(HL)
   53 F046  16 00       PV22:	LD	D,0
   54 F048  2A B7B0     	LD	HL,(SUTAB)
   55 F04B  19          	ADD	HL,DE
   56 F04C  19          	ADD	HL,DE		; HL=Pos. in Tab
   57 F04D  5E          	LD	E,(HL)
   58 F04E  23          	INC	HL
   59 F04F  56          	LD	D,(HL)
   60 F050  EB          	EX	DE,HL
   61 F051  D1          	POP	DE
   62 F052  F1          	POP	AF
   63 F053  E3          	EX	(SP),HL
   64 F054  C9          	RET			; UP anspringen
   65                   
   66 F055  37          PV3:	SCF			; VR: F
   67                   ;	JR	PV21
   68 F056  ED          	DB	0EDH		; ED A7 = NOP (Trick aus CAOS 3.4 uebernommern)
   69 F057  A7          PV2:	AND	A		; VR: F
   70 F058  E5          PV21:	PUSH	HL
   71 F059  D5          	PUSH	DE
   72 F05A  C5          	PUSH	BC
   73 F05B  E5          	PUSH	HL
   74 F05C  21 E0B8     	LD	HL,POP3		; Returnadresse
   75 F05F  E3          	EX	(SP),HL		; auf Stack legen
   76 F060  E5          	PUSH	HL
   77 F061  F5          	PUSH	AF
   78 F062  D5          	PUSH	DE
   79 F063  38 E1       	JR	C,PV22		; falls PV3
   80 F065  3A B780     	LD	A,(ARGC)	; sonst E
   81 F068  5F          	LD	E,A		; beschaffen
   82 F069  18 DB       	JR	PV22
   83                   ;
   84                   ; IRM ein und Stack auf (SYSP) setzen
   85                   ; aktuellen SP in IY merken
   86                   ; VR:	BC, F
   87                   ;
SLR180 SuperFast Relocating Macro Assembler     			    SLR180 1.31 Page 141
CF48    INC

   88 F06B  C1          IRMON:	POP	BC		; Rueckkehradresse
   89 F06C  FD E5       	PUSH	IY		; Inhalt von IY auf Anwenderstack legen
   90 F06E  FD 21 0000  	LD	IY,0		; SP in IY merken
   91 F072  FD 39       	ADD	IY,SP		; (kein UP veraendert IY waehrend IRM ON!)
   92 F074  F3          	DI
   93 F075  DD 77 0B    	LD	(IX+11),A	; Inhalt von Register A merken
   94 F078  DB 88       	IN	A,(PIOAD)
   95 F07A  F6 24       	OR	00100100b	; IRM+LED ein
   96 F07C  D3 88       	OUT	(PIOAD),A
   97 F07E  ED 7B B7AE  	LD	SP,(SYSP)	; System-SP verwenden
   98 F082  FB          	EI
   99 F083  DD 7E 0B    	LD	A,(IX+11)	; Register A regenerieren
  100 F086  C5          	PUSH	BC
  101 F087  C9          	RET			; wie JP (BC)
  102                   ;
  103                   ; IRM ausschalten und Stack auf IY setzen
  104                   ; VR:	BC
  105                   ;
  106 F088  C1          IRMOF:	POP	BC		; analog IRMON
  107 F089  DD 77 0B    	LD	(IX+11),A	; Inhalt von Register A merken
  108 F08C  DB 88       	IN	A,(PIOAD)
  109 F08E  CB 97       	RES	2,A		; IRM+LED aus
  110 F090  CB AF       	RES	5,A		; (F unveraendert)
  111 F092  F3          	DI
  112 F093  D3 88       	OUT	(PIOAD),A
  113 F095  FD F9       	LD	SP,IY		; gemerkten Anwender-SP regenerieren
  114 F097  FB          	EI
  115 F098  DD 7E 0B    	LD	A,(IX+11)	; Register A regenerieren
  116 F09B  FD E1       	POP	IY		; Inhalt von IY von Anwenderstack holen
  117 F09D  C5          	PUSH	BC
  118 F09E  C9          	RET
  119                   
  120                   ; Relativer UP-Aufruf ohne Registerzerstoerung:
  121                   
  122 F09F  E3          RCALL:	EX	(SP),HL
  123 F0A0  D5          	PUSH	DE
  124 F0A1  5E          	LD	E,(HL)
  125 F0A2  23          	INC	HL
  126 F0A3  56          	LD	D,(HL)		; DE=Offset
  127 F0A4  23          	INC	HL
  128 F0A5  EB          	EX	DE,HL
  129 F0A6  19          	ADD	HL,DE		; addieren
  130 F0A7  E3          	EX	(SP),HL		; Zieladresse
  131 F0A8  EB          	EX	DE,HL		; DE von Stack
  132 F0A9  F3          	DI
  133 F0AA  33          	INC	SP
  134 F0AB  33          	INC	SP
  135 F0AC  E3          	EX	(SP),HL		; HL von Stack
  136 F0AD  3B          	DEC	SP
  137 F0AE  3B          	DEC	SP
  138 F0AF  FB          	EI
  139 F0B0  C9          	RET			; Ziel anspringen
  140                   
  141                   ;BNROST: LD	A,(IX+2)	; Blocknummer
  142 F0B1  CD F3AA     AHOSTR:	CALL	AHEX		; Register A und folgende Zeichenkette
  143                   ;_____________________________________________________________
  144                   ;							**23**
  145                   ; Ausgabe einer Zeichenkette
SLR180 SuperFast Relocating Macro Assembler     			    SLR180 1.31 Page 142
CF48    INC

  146                   ; Zeichektette hinter dem CALL, Ende mit 00h
  147                   ; PE/PA: -
  148                   ; VR:	AF
  149                   
  150 F0B4  E3          OSTR:	EX	(SP),HL
  151 F0B5  CD F8EB     	CALL	ZKOUT		; Zeichenkette ausgeben
  152 F0B8  E3          	EX	(SP),HL
  153 F0B9  C9          	RET
  154                   
  155                   ; Module listen, lesen, schalten:
  156                   
  157 F0BA  7F7F        SWI7F:	DW	7F7FH
  158 F0BC  53 57 49 54 	DB	'SWITCH'
  159 F0C2  01          	DB	1
  160 F0C3  A7          	AND	A		; Argumente?
  161 F0C4  01 C348     	LD	BC,SWIC		; Module lesen/schalten
  162 F0C7  20 1F       	JR	NZ,JROMC2	; im ROM-C ausfuehren
  163                   
  164                   ; Module auflisten
  165 F0C9  CD F0D4     	CALL	ESC6		; interne Module listen
  166                   	;
  167 F0CC  CD FB98     ESC5:	CALL	CON
  168 F0CF  CD C296     	CALL	MODULC		; externe Module listen
  169 F0D2  18 06       	JR	ESC61
  170                   
  171                   ;SYS7F:	DW	7F7FH		; Dieses Menuewort ist ab CAOS 4.6 nicht
  172                   ;	DB	'SYSTEM'	; mehr erforderlich - macht SWITCH mit!
  173                   ;	DB	11H
  174 F0D4  CD FB98     ESC6:	CALL	CON
  175 F0D7  CD C1BF     	CALL	SYSTC		; Systemcheck (interne Module 0-5)
  176 F0DA  ED 5B B7A0  ESC61:	LD	DE,(CURSO)	; aktuelle Cursorposition mitnehmen
  177 F0DE  C3 FB87     MCOFF:	JP	COFF
  178                   
  179                   ; Module lesen und Schalten
  180 F0E1  2E 02       MODUL2:	LD	L,2		; 2=USER-ROM
  181 F0E3  3E 02       MODUSW:	LD	A,2		; Modul schalten
  182                   ;_____________________________________________________________
  183                   ;							**26**
  184                   ; Module lesen und Schalten
  185                   ; PE:	A=0 oder 1	Lesen
  186                   ;	A=2 oder >2	Schalten
  187                   ;	L	Steckplatz
  188                   ;	D	Steuerbyte
  189                   ; PA:	H	Modultyp (Strukturbyte)
  190                   ;	D	Modulsteuerbyte
  191                   ; VR:	AF,H,BC
  192                   
  193 F0E5  01 C3B1     MODU:	LD	BC,MODUC
  194 F0E8  C3 FB84     JROMC2:	JP	CLROMC		; im ROM-C ausfuehren
  195                   
  196 F0EB  CD FB98     ESCD:	CALL	CON
  197 F0EE  CD D640     	CALL	ESCDD		; DEVICE-Umschaltung
  198 F0F1  18 E7       	JR	ESC61
  199                   
  200 F0F3  CD FB98     ESCH:	CALL	CON
  201 F0F6  CD D995     	CALL	HELP		; alle erreichbaren Menueworte auflisten
  202 F0F9  ED 5B B7A0  	LD	DE,(CURSO)	; aktuelle Cursorposition
  203 F0FD  1E 00       	LD	E,0		; jedoch Spalte 0 setzen
SLR180 SuperFast Relocating Macro Assembler     			    SLR180 1.31 Page 143
CF48    INC

  204 F0FF  18 DD       	JR	MCOFF
  205                   
  206                   ; Betriebssystem wechseln:
  207                   
  208 F101  7F7F        JUMP7F:	DW	7F7FH
  209 F103  4A 55 4D 50 	DB	'JUMP'
  210 F107  03          	DB	3
  211 F108  7D          	LD	A,L		; Steckplatz
  212                   ;_____________________________________________________________
  213                   ;							**27**
  214                   ; Sprung in ein neues Betriebssystem
  215                   ; PE:	A	Modulsteckplatz 8-FF
  216                   ;		oder CAOS-ROM-Ebene 0-7
  217                   
  218         0001      if SYSROM
  219                   ;
  220                   ; 13.06.2021:
  221                   ; JUMP-Erweiterung: Wechsel der 8 CAOS-System-Ebenen
  222                   ; JUMP 0 bis JUMP 7 springt in die verschiedenen Systeme
  223                   ;
  224 F109  FE 08       JUMP:	CP	8		; externes Modul ab Steckplatz 8?
  225 F10B  DC FB98     	CALL	C,CON		; bei JUMP 0-7: ROM-C einschalten
  226 F10E  DA C64C     	JP	C,JUMPC		; und weiter zu JUMP-Erweiterung im ROM-C
  227                   else
  230                   endif
  231 F111  47          	LD	B,A
  232 F112  0E 80       	LD	C,80H
  233 F114  ED 78       	IN	A,(C)
  234 F116  3C          	INC	A		; Kennbyte FF?
  235 F117  20 13       	JR	NZ,JUM0
  236 F119  CD F0B4     	CALL	OSTR
  237 F11C  4B 65 69 6E 	DB	'Kein Modul!'
  238 F127  07 0D 0A 00 	DB	7,CR,LF,0
  239 F12B  C9          	RET
  240                   	;
  241 F12C  C5          JUM0:	PUSH	BC
  242 F12D  26 B8       	LD	H,HIGH(MODST)	; Modulsteuerbytespeicher
  243 F12F  06 07       	LD	B,7		; ab Platz 7!
  244 F131  04          JUM1:	INC	B
  245 F132  28 0D       	JR	Z,JUM2		; bis FF
  246 F134  ED 78       	IN	A,(C)
  247 F136  2F          	CPL
  248 F137  E6 70       	AND	70H		; Speichermodul?
  249 F139  20 F6       	JR	NZ,JUM1
  250 F13B  ED 79       	OUT	(C),A		; aus
  251 F13D  68          	LD	L,B
  252 F13E  77          	LD	(HL),A
  253 F13F  18 F0       	JR	JUM1
  254                   	;
  255 F141  C1          JUM2:	POP	BC
  256 F142  3E FF       	LD	A,0FFH		; Ausgabe FF (Adresse C000)
  257 F144  68          	LD	L,B
  258 F145  77          	LD	(HL),A		; Eintrag
  259 F146  F3          	DI
  260 F147  ED 79       	OUT	(C),A		; einschalten
  261 F149  DB 88       	IN	A,(PIOAD)
  262 F14B  E6 7E       	AND	01111110b	; interne ROMs abschalten
  263 F14D  C3 B7B4     	JP	NCAOS		; Sprung ueber IRM
SLR180 SuperFast Relocating Macro Assembler     			    SLR180 1.31 Page 144
CF48    INC

  264                   
  265                   ; Einschalt-Initialisierung:
  266                   
  267 F150  3E E3       PWRON:	LD	A,0E3H		; RAM4 WR einschalten, CAOS-Bank 0
  268 F152  D3 86       	OUT	(PORT2),A	; und CAOS-C ein
  269 F154  C3 C051     	JP	PWRONC		; Programm im ROM-C weiter abarbeiten ...
  270                   ;
  271                   ; Tasten-RESET und JUMP-Einsprung:
  272                   ;
  273 F157  31 01C4     BYE:	LD	SP,STACK	; System-Stack setzen
  274 F15A  3E E3       	LD	A,0E3H		; RAM4 WR einschalten, CAOS-Bank 0
  275 F15C  D3 86       	OUT	(PORT2),A	; und CAOS-C ein
  276 F15E  CD C0A9     	CALL	SYSI		; Systeminitialisierung
  277 F161  CD CA2E     PWR4:	CALL	V24INI		; M003 suchen und initialisieren
  278 F164  CD FB87     	CALL	COFF		; CAOS-C ausschalten (Standard)
  279 F167  01 0880     	LD	BC,880H		; auf Steckplatz 8
  280 F16A  ED 78       	IN	A,(C)		; ROM-Modul mit Strukturbyte
  281 F16C  3D          	DEC	A		; 01 vorhanden?
  282 F16D  20 16       	JR	NZ,PWR6		; nein!
  283 F16F  DD CB 08 B6 	RES	6,(IX+8)	; Autostartmodul setzt INIT-Kommando zurueck
  284 F173  3E 41       	LD	A,41H		; 43H bis CAOS 4.6, also mit Schreibfreigabe
  285 F175  ED 79       	OUT	(C),A		; R/O einschalten auf Adresse 4000H
  286 F177  32 B808     	LD	(MODST+8),A	; Schaltzustand eintragen
  287 F17A  DD 7E 04    	LD	A,(IX+4)
  288 F17D  E6 FC       	AND	0FCH		; internen RAM4 ausschalten
  289 F17F  CD E2A3     	CALL	OUT86		; (IX+4) und PORT2 einstellen
  290 F182  C3 4000     	JP	4000H		; Adresse 4000h im Modul anspringen
  291                   	;
  292 F185  06 FC       PWR6:	LD	B,0FCH
  293 F187  ED 78       	IN	A,(C)
  294 F189  FE A7       	CP	0A7H		; Floppy vorhanden?
  295 F18B  20 37       	JR	NZ,PWR7		; nein
  296                   ;	OUT	(C),A		; einschalten mit Steuerbyte A7H
  297                   ; Befehl kann entfallen, da die Kopplung fuer die Treibersuche bereits ein ist!
  298 F18D  01 B3F3     	LD	BC,UROK		; 0B3F3H
  299 F190  ED 78       	IN	A,(C)		; Betriebsart ermitteln
  300 F192  3D          	DEC	A
  301 F193  28 3B       	JR	Z,PWR8		; 1=CP/M-Betriebsart erkannt
  302 F195  FE 04       	CP	4
  303 F197  28 37       	JR	Z,PWR8		; 5=CAOS-Betriebsart erkannt
  304 F199  CD F0B4     	CALL	OSTR
  305 F19C  0C 0A       	DB	0CH,LF		; Ansonsten: Autostart mit JUMP FC
  306 F19E  41 75 74 6F 	DB	'Autostart Floppy'
  307 F1AE  0D 0A 00    	DB	CR,LF,0
  308 F1B1  06 00       	LD	B,0
  309 F1B3  CD F664     PWR5:	CALL	BRKT		; BRK-Taste gedrueckt?
  310 F1B6  38 18       	JR	C,PWR8		; ja, dann kein Autostart
  311 F1B8  10 F9       	DJNZ	PWR5		; 256-mal abfragen
  312 F1BA  3E 01       	LD	A,1
  313 F1BC  32 B781     	LD	(ARGN),A	; ein Parameter fuer JUMP FC vorgeben
  314 F1BF  3E FC       	LD	A,0FCH
  315 F1C1  CD F109     	CALL	JUMP		; Startversuch
  316                   ;	JR	PWR8
  317                   
  318                   ; neu ab CAOS 4.8: Autostart INIT (z.B. bei USB)
  319                   
  320 F1C4  CD ED6D     PWR7:	CALL	DEV		; aktuelles Device in Bit 2-4
  321 F1C7  3C          	INC	A		; Steckplatz
SLR180 SuperFast Relocating Macro Assembler     			    SLR180 1.31 Page 145
CF48    INC

  322 F1C8  26 A9       	LD	H,High(DevTab)
  323 F1CA  6F          	LD	L,A
  324 F1CB  7E          	LD	A,(HL)		; Steckplatz des aktuellen Device?
  325 F1CC  FE 08       	CP	8		; externes Modul?
  326 F1CE  30 04       	JR	NC,PWR9		; ja
  327 F1D0  DD CB 08 B6 PWR8:	RES	6,(IX+8)	; Autostart (INIT) bei TAPE und DISK unterbinden
  328 F1D4  AF          PWR9:	XOR	A
  329 F1D5  32 B781     	LD	(ARGN),A	; MENU ohne Parameter ausfuehren!
  330 F1D8  18 08       	JR	MEN0
  331                   ;
  332                   ;*__*__*__*__*__*__*__*__*__*__*__*__*__
  333                   ;
  334                   ; Epilogverwaltung:		(bereits in CAOS 2.5 von Frank Klemm realisiert)
  335                   ; -----------------		HEX/DEZ-Argumenta ab CAOS 4.8
  336                   ; Epiloge 0 ... 1F
  337                   ;
  338                   ; Bit:  4      3      2      1      0
  339                   ;	I      I      I	     I	    \
  340                   ;  0 = hex     -------+-------	   IRM 
  341                   ;  1 = dezimal   Anzahl der
  342                   ;	         Argumente	  on/off
  343                   ;
  344                   ; wenn Epilog 1F -> dann keine Auswer-
  345                   ; tung der Argumente, DE Zeiger auf Args
  346                   ;
  347                   ;*__*__*__*__*__*__*__*__*__*__*__*__*__
  348                   ;
  349                   ; Menue Display
  350                   ;
  351 F1DA  7F7F        	DW	7F7FH
  352 F1DC  4D 45 4E 55 	DB	'MENU'
  353 F1E0  01          	DB	1
  354 F1E1  E1          	POP	HL		; Stack clear
  355 F1E2  01 DA5F     MEN0:	LD	BC,SHORT	; Kurzform CAOS-Titelzeile mit DEVICE anzeigen
  356 F1E5  CD FB84     	CALL	CLROMC		; im ROM-C ausfuehren
  357                   ;_____________________________________________________________
  358                   ;							**46**
  359                   ; Menue anzeigen und Uebergang zur Kommandoeingabe
  360                   ; PE:	(IX+9)	Prologbyte
  361                   ;	ARGN=1	ARG1 auswerten
  362                   ;	ARG1=0	MENU normal anzeigen
  363                   ;	ARG1=1	versteckte Menueworte mit anzeigen
  364                   ;	ARG1=2	Adressen mit anzeigen
  365                   ;	ARGN=3	versteckte Menueworte und Adressen anzeigen
  366                   ; PA/VR: -
  367                   
  368 F1E8  2A B781     MENU:	LD	HL,(ARGN)
  369 F1EB  1E 00       	LD	E,0		; Parameter zum Testen in E bereithalten
  370 F1ED  2D          	DEC	L		; ARGN=1?
  371 F1EE  20 01       	JR	NZ,MEN1		; nein, E=0 verwenden
  372 F1F0  5C          	LD	E,H		; E=ARG1
  373 F1F1  21 C000     MEN1:	LD	HL,0C000H	; Menuewortsuche immer ab C000H
  374 F1F4  4D          	LD	C,L
  375 F1F5  45          	LD	B,L		; BC=0 (Suchlaenge)
  376 F1F6  CD F4C4     MEN2:	CALL	CRLF
  377 F1F9  3E 02       MEN3:	LD	A,2		; CLLN
  378 F1FB  CD F384     	CALL	OPRCHR		; Prompt ausgeben
  379 F1FE  CD F664     	CALL	BRKT
SLR180 SuperFast Relocating Macro Assembler     			    SLR180 1.31 Page 146
CF48    INC

  380 F201  38 66       	JR	C,LOOP2		; Break
  381 F203  DD 7E 09    	LD	A,(IX+9)	; Prologbyte
  382 F206  ED B1       MEN4:	CPIR
  383 F208  E2 F269     	JP	PO,LOOP2	; ausgesucht
  384 F20B  ED A1       	CPI			; 2mal nacheinander?
  385 F20D  E2 F269     	JP	PO,LOOP2	; ausgesucht
  386 F210  20 F4       	JR	NZ,MEN4		; nicht 2mal
  387 F212  7E          MEN5:	LD	A,(HL)
  388 F213  FE 20       	CP	20h		; Epilog (0..1Fh)?
  389 F215  38 26       	JR	C,MEN8
  390 F217  CB 43       	bit	0,e		; versteckte Menueworte anzeigen?
  391 F219  28 06       	jr	z,MEN6		; nein
  392 F21B  FE 7B       	CP	'z'+1		; <= 'z'?
  393 F21D  30 DA       	JR	NC,MEN3		; groesser als 'z'
  394 F21F  18 10       	jr	MEN7
  395                   	;
  396 F221  FE 30       MEN6:	CP	'0'		; >= '0' und
  397 F223  38 D4       	JR	C,MEN3		; kleiner als '0'
  398 F225  FE 5B       	CP	'Z'+1		; <= 'Z'?
  399 F227  30 D0       	JR	NC,MEN3		; groesser als 'Z'
  400 F229  FE 41       	CP	'A'		; >= 'A' oder
  401 F22B  30 04       	JR	NC,MEN7		; groesser als 'A'
  402 F22D  FE 3B       	CP	':'+1		; <= ':'?
  403 F22F  30 C8       	JR	NC,MEN3		; groesser als ':'
  404 F231  CD F3BB     MEN7:	CALL	OCHR
  405 F234  ED A1       	CPI			; INC HL, DEC BC
  406 F236  EA F212     	JP	PE,MEN5		; BC>0, also weiter
  407 F239  3E 02       	LD	A,2		; CLLN
  408 F23B  18 29       	JR	LOOP1		; ausgesucht
  409                   	;
  410 F23D              MEN8:	;LD	A,(CURSO)	; aktuelle Position
  411                   	;DEC	A		; leere Menuzeile?
  412                   	;JR	Z,MEN3		; diese unterdruecken
  413 F23D  CB 4B       	bit	1,e
  414 F23F  28 B5       	jr	z,MEN2		; keine Adressen anzeigen
  415 F241  3A B79E     	ld	a,(winlg)
  416 F244  FE 0F       	cp	15		; Fensterbreite fuer Adressen ausreichend?
  417 F246  38 AE       	jr	c,MEN2		; nein, dann nicht anzeigen!
  418 F248  3E 0B       	ld	a,11
  419 F24A  32 B7A0     	ld	(curso),a	; Spalte fuer Adressanzeige
  420 F24D  23          	inc	hl
  421 F24E  CD F39A     	call	hlhx		; Startadresse anzeigen
  422 F251  2B          	dec	hl
  423 F252  18 A2       	JR	MEN2
  424                   ;
  425                   ; 12.12.2020: Der Schutz von BASIC-Programmen wird ab CAOS 4.8 nicht mehr
  426                   ; unterstuetzt. Das heisst, das Programm wird bei BYE nicht mehr geloescht.
  427                   ;
  428 F254              BASBYE:
  429                   ;	LD	A,(DATFLG)	; geschuetzt?
  430                   ;	AND	A
  431                   ;	JR	Z,BASB1
  432                   ;	CALL	IRMOF
  433                   ;	CALL	NEW1		; NEW
  434                   ;	CALL	IRMON
  435                   ;BASB1:
  436 F254  16 00       	LD	D,0
  437 F256  CD F0E1     	CALL	MODUL2		; BASIC-ROM abschalten
SLR180 SuperFast Relocating Macro Assembler     			    SLR180 1.31 Page 147
CF48    INC

  438                   ;	JP	LOOP
  439                   ;_____________________________________________________________
  440                   ;							**12**
  441                   ; Eingabeschleife:
  442                   
  443 F259  DB 88       LOOP:	IN	A,(PIOAD)
  444 F25B  E6 DF       	AND	11011111b	; LED aus
  445 F25D  F6 04       	OR	00000100b	; IRM ein
  446 F25F  D3 88       	OUT	(PIOAD),A
  447 F261  CD FB87     	CALL	COFF
  448 F264  3E 0D       	LD	A,CR		; Zeilenanfang
  449 F266  CD F384     LOOP1:	CALL	OPRCHR		; Prompt ausgeben
  450 F269  CD F26E     LOOP2:	CALL	INPUT
  451 F26C  18 EB       	JR	LOOP
  452                   
  453                   ; Menuekommandoroutine
  454                   
  455 F26E  CD F47E     INPUT:	CALL	INLIN		; Eingabe
  456 F271  30 0A       	JR	NC,INPT1	; mit Enter abgeschlossen
  457 F273  3E 0B       	LD	A,0BH		; bei BRK
  458 F275  CD E0AC     	CALL	CRT		; Cursor hoch
  459 F278  3E 02       CRT02:	LD	A,2		; und
  460 F27A  C3 E0AC     	JP	CRT		; Zeile loeschen
  461                   	;
  462 F27D  13          INPT1:	INC	DE		; Zeichen nach Prompt
  463 F27E  1A          	LD	A,(DE)
  464 F27F  E6 DF       	AND	0DFH		; leer?
  465 F281  C8          	RET	Z
  466 F282  3A B802     	LD	A,(MODST+2)	; Schaltzustand USER-ROM
  467 F285  32 B780     	LD	(ARGC),A	; CAOS 4.6: hier uebergeben an USER-Programme
  468 F288  06 00       	 ld	b,0		; gesamten Speicher durchsuchen
  469 F28A  CD F333     	 call	ms1		; ab C000H
  470 F28D  38 3A       	JR	C,INPT5		; gefunden
  471 F28F  21 B805     	 ld	hl,modst+5
  472 F292  CB 46       	 bit	0,(hl)
  473 F294  20 08       	JR	NZ,INPT2	; CAOS-C war bereits an
  474 F296  CD FB98     	CALL	CON
  475 F299  CD F331     	 call	msuch		; durchsuchen im CAOS-ROM-C
  476 F29C  38 2B       	JR	C,INPT5		; gefunden
  477 F29E  D5          INPT2:	PUSH	DE		; Suchkette
  478 F29F  16 D1       	LD	D,0D1H		; 1. Ebene (BASIC nicht mit durchsuchen)
  479 F2A1  CD F0E1     INPT3:	CALL	MODUL2		; USER-ROM-C Ebene ein
  480                   	RESIXA	7,4		; RES 7,(IX+4),A
    1 F2A4  DD CB 04    	 DB	0DDh,0CBh,4
    2 F2A7  BF          	 DB	7 SHL 3 OR 10000111b
  481 F2A8  D3 86       	OUT	(PORT2),A	; CAOS-ROM-C aus!
  482 F2AA  EB          	EX	DE,HL
  483 F2AB  E3          	EX	(SP),HL		; DE=Suchkette, (SP)=SWITCH-Ebene
  484 F2AC  EB          	EX	DE,HL
  485 F2AD  CD F331     	 call	msuch		; Menuewort in USER-ROM suchen
  486 F2B0  E3          	 ex	(sp),hl		; (SP)=Ende+1 der gefundenen Kette
  487 F2B1  38 10       	JR	C,INPT4		; gefunden
  488 F2B3  06 10       	LD	B,10H		; Offset zur naechsten Ebene: C1, D1, E1, F1
  489 F2B5  09          	 add	hl,bc		; naechste Ebene berechnen (C ist 0)
  490 F2B6  EB          	 ex	de,hl		; DE=Schaltzustand
  491 F2B7  E3          	 ex	(sp),hl		; (SP)=Suchkette		
  492 F2B8  30 E7       	JR	NC,INPT3	; naechste Ebene
  493 F2BA  ED 5B B77F  	LD	DE,(ARGC-1)	; CAOS 4.6: D = USERC-Schaltzustand vor Suche
SLR180 SuperFast Relocating Macro Assembler     			    SLR180 1.31 Page 148
CF48    INC

  494 F2BE  CD F0E1     	CALL	MODUL2		; USER-ROMC wie zuvor
  495 F2C1  18 2E       	JR	ERR1		; invalid command
  496                   	;
  497 F2C3  21 B805     INPT4:	 ld	hl,modst+5
  498 F2C6  36 00       	 ld	(hl),0		; CAOS-C ausschalten
  499 F2C8  E1          	 pop	hl
  500 F2C9  23          INPT5:	INC	HL		; Epilogbyte uebergehen
  501 F2CA  E5          	PUSH	HL		; Startadresse
  502 F2CB  FE 1F       	CP	1FH		; Textparameter?
  503 F2CD  C8          	RET	Z		; ohne arg zu erfassen!
  504 F2CE  F5          	PUSH	AF		; Epilogbyte
  505 F2CF  0E 10       	LD	C,16		; Zahlenbasis hexadezimal
  506 F2D1  E6 10       	AND	10h		; Dezimal-Argumente?
  507 F2D3  28 02       	JR	Z,INPT6
  508 F2D5  0E 0A       	LD	C,10		; Zahlenbasis dezimal
  509 F2D7  CD F512     INPT6:	CALL	GARGC		; bis zu 10 Argumente erfassen
  510 F2DA  C1          	POP	BC		; B=Epilogbyte
  511 F2DB  38 32       	JR	C,ERR4		; bad args
  512 F2DD  3A B781     	LD	A,(ARGN)	; Anzahl Argumente
  513 F2E0  48          	LD	C,B
  514 F2E1  CB A0       	RES	4,B		; Bit fuer Zahlenbasis ausblenden
  515 F2E3  CB 28       	SRA	B
  516 F2E5  B8          	CP	B
  517 F2E6  38 19       	JR	C,ERR3		; zu wenig arg
  518 F2E8  CB 41       	BIT	0,C
  519 F2EA  CD F5F4     	CALL	LARG		; Arg's laden
  520 F2ED  C0          	RET	NZ		; mit IRM on
  521 F2EE  C3 E047     	JP	SCROFF		; mit IRM off
  522                   
  523 F2F1  CD F0B4     ERR1:	CALL	OSTR
  524 F2F4  4B 6F 6D 6D 	DB	'Kommando?',7,0
  525 F2FF  18 2C       	JR	ERRCR
  526                   	;
  527 F301  CD F0B4     ERR3:	CALL	OSTR
  528 F304  5A 75 20 77 	DB	'Zu wenig',0
  529 F30D  18 0F       	JR	ERRA
  530                   	;
  531 F30F  CD F0B4     ERR4:	CALL	OSTR
  532 F312  46 65 68 6C 	DB	'Fehlerhafte',0
  533 F31E  CD F0B4     ERRA:	CALL	OSTR
  534 F321  20 41 72 67 	DB	' Argumente',7,0
  535 F32D  E1          ERRCR:	 pop	hl		; Stack clear
  536 F32E  C3 F4C4     	JP	CRLF
  537                   
  538 F331  06 20       MSUCH:	 ld	b,20h		; 2000h Bytes
  539 F333  21 C000     MS1:	LD	HL,0C000H	; Standard-Suchbeginn
  540 F336  4D          ZS0:	LD	C,L		; C=0
  541 F337  DD 7E 09    	LD	A,(IX+9)	; aktuelles Prologbyte
  542                   ;_____________________________________________________________
  543                   ;							**1D**
  544                   ; Zeichenkette/Menuewort suchen
  545                   ; PE:	A	Prologbyte (bei CAOS: 7FH)
  546                   ;	BC	Laege des Suchbereiches
  547                   ;	DE	Anfang der Vergleichskette (Ende mit 0-20h)
  548                   ;	HL	Anfang des Suchbereichs
  549                   ; PA:	DE	Ende+1 Vergleichskette (wenn gefunden)
  550                   ;	HL	Ende+1 gefundene Kette
  551                   ;	CY=1	Kette gefunden
SLR180 SuperFast Relocating Macro Assembler     			    SLR180 1.31 Page 149
CF48    INC

  552                    ;	 dann  A=Epilogbyte 
  553                    ;	       BC=Anfang der Vergleichskette
  554                    ;	 sonst A=Prologbyte
  555                    ;	       BC=0
  556                    ;	       DE=Anfang der Vergleichskette
  557                   ; VR:	AF,BC,DE,HL
  558                   
  559 F33A  A7          ZSUCH:	 and	a		; CY=0
  560 F33B  ED B1       	CPIR			; (CY wird nicht veraendert)
  561 F33D  E0          	RET	PO		; Prolog nicht gefunden
  562 F33E  ED A1       	CPI
  563 F340  20 F8       	JR	NZ,ZSUCH	; nur 1x gefunden
  564 F342  D5          	 push	de		; Beginn der Vergleichskette retten
  565 F343  F5          	 push	af		; Prologbyte
  566 F344  1A          ZS1:	LD	A,(DE)		; Zeichen von Vergleichskette
  567 F345  13          	INC	DE
  568 F346  FE 21       	CP	21H
  569 F348  38 0D       	JR	C,ZS3		; Kettenende bei Vergleichskette erkannt
  570 F34A  CB 6E       	BIT	5,(HL)		; Grossbuchstabe im Speicher?
  571 F34C  CC F539     	CALL	Z,UPCASE	; dann Zeichen von Vergleichskette upcasen
  572 F34F  ED A1       	CPI
  573 F351  28 F1       	JR	Z,ZS1		; stimmt ueberein
  574 F353  F1          ZS2:	 pop	af		; verwendetes Prologbyte restaurieren
  575 F354  D1          	 pop	de		; und wieder zu Beginn der Vergleichskette
  576 F355  18 E3       	JR	ZSUCH		; Suche fortsetzen
  577                   	;
  578 F357  7E          ZS3:	LD	A,(HL)		; Zeichen aus Speicher weiter testen
  579 F358  FE 20       	CP	20H		; bis Epilogbyte (0..1Fh) kommt
  580 F35A  38 08       	JR	C,ZS4		; Epilog gefunden
  581                   ;	JR	Z,ZS2		; SPC (war in CAOS 4.3 und 4.4 nicht zugelassen)
  582 F35C  FE 80       	CP	80H
  583 F35E  30 F3       	JR	NC,ZS2		; Zeichen ab 80H nicht zugelassen
  584 F360  23          	INC	HL
  585 F361  0B          	DEC	BC		; Befehl am 11.04.2010 ergaenzt
  586 F362  18 F3       	JR	ZS3
  587                   	;
  588 F364  C1          ZS4:	 pop	bc
  589 F365  C1          	 pop	bc		; Anfang der Vergleichskette
  590 F366  C9          	 ret			; CY ist 1 vom CP 20H
  591                   ;_____________________________________________________________
  592                   ;							**13**
  593                   ; Normalein- und Ausgabe: CRT und KBD
  594                   ; PE:	-
  595                   ; PA:	HL	alter Ausgabezeiger
  596                   ; VR:	HL
  597                   
  598 F367  CD F377     NORM:	CALL	NIN		; Normaleingabe
  599                   ;_____________________________________________________________
  600                   ;							**20**
  601                   ; Setzen eines neuen Output Kanals
  602                   
  603 F36A  21 F020     NOUT:	LD	HL,OUTT1
  604                   ;_____________________________________________________________
  605                   ;							**1E**
  606 F36D  E5          SOUT:	PUSH	HL
  607 F36E  2A B7B9     	LD	HL,(OUTAB)	; bisheriger Zeiger
  608 F371  E3          	EX	(SP),HL
  609 F372  22 B7B9     	LD	(OUTAB),HL	; neuer Zeiger
SLR180 SuperFast Relocating Macro Assembler     			    SLR180 1.31 Page 150
CF48    INC

  610 F375  E1          	POP	HL
  611 F376  C9          	RET
  612                   ;_____________________________________________________________
  613                   ;							**21**
  614                   ; Setzen eines neuen Input Kanals
  615                   
  616 F377  21 F017     NIN:	LD	HL,INTT1
  617                   ;_____________________________________________________________
  618                   ;							**1F**
  619 F37A  E5          SIN:	PUSH	HL
  620 F37B  2A B7BB     	LD	HL,(INTAB)	; bisheriger Zeiger
  621 F37E  E3          	EX	(SP),HL
  622 F37F  22 B7BB     	LD	(INTAB),HL	; neuer Zeiger
  623 F382  E1          	POP	HL
  624 F383  C9          	RET
  625                   
  626                   ; Steuerzeichen und Prompt ausgeben
  627                   ; PE: A=Steuerzeichen
  628 F384  CD E0AC     OPRCHR:	CALL	CRT
  629 F387  3A B7EC     	LD	A,(PROMPT)
  630 F38A  FE 20       	CP	' '
  631 F38C  30 2D       	JR	NC,OCHR
  632 F38E  3E 25       	LD	A,'%'		; Standard
  633 F390  18 29       	JR	OCHR		; Prompt
  634                   ;_____________________________________________________________
  635                   ;							**1B**
  636                   ; Zwei 16-Bit-Werte hexadezimal anzeigen und
  637                   ; ein Leerzeichen danach
  638                   ; VR:	AF
  639 F392  CD F395     HLDE:	CALL	HLDE1		; 1x aufrufen, dann reinlaufen
  640 F395  CD F39A     HLDE1:	CALL	HLHX		; HL anzeigen
  641 F398  EB          	EX	DE,HL		; HL <-> DE tauschen
  642 F399  C9          	RET
  643                   ;_____________________________________________________________
  644                   ;							**1A**
  645                   ; 16-Bit-Wert hexadezimal anzeigen und ein Leerzeichen danach
  646                   ; VR:	AF
  647 F39A  7C          HLHX:	LD	A,H
  648 F39B  CD F3AA     	CALL	AHEX
  649 F39E  7D          ALSPC:	LD	A,L
  650 F39F  CD F3AA     AHSPC:	CALL	AHEX
  651                   ;_____________________________________________________________
  652                   ;							**2B**
  653                   ; Leerzeichen anzeigen
  654                   ; VR:	AF
  655 F3A2  3E 20       SPACE:	LD	A,' '		; Leerzeichen
  656 F3A4  18 15       	JR	OCHR
  657                   ;_____________________________________________________________
  658                   ;							**2D**
  659                   ; Cursor in Home-Position
  660                   ; VR:	AF
  661 F3A6  3E 10       HOME:	LD	A,10H		; Home-Code
  662 F3A8  18 11       	JR	OCHR
  663                   ;_____________________________________________________________
  664                   ;							**1C**
  665                   ; 8-Bit-Wert hexadezimal anzeigen
  666                   ; VR:	AF
  667 F3AA  F5          AHEX:	PUSH	AF
SLR180 SuperFast Relocating Macro Assembler     			    SLR180 1.31 Page 151
CF48    INC

  668 F3AB  0F          	RRCA			; Tetradentausch
  669 F3AC  0F          	RRCA
  670 F3AD  0F          	RRCA
  671 F3AE  0F          	RRCA
  672 F3AF  CD F3B3     	CALL	AHEX0		; erst aufrufen,
  673 F3B2  F1          	POP	AF		; dann reinlaufen
  674 F3B3  E6 0F       AHEX0:	AND	0FH		; Maske
  675 F3B5  C6 90       	ADD	A,90H		; uebliche
  676 F3B7  27          	DAA			; Routine
  677 F3B8  CE 40       	ADC	A,40H		; fuer die
  678 F3BA  27          	DAA			; Hexausgabe
  679                   ;_____________________________________________________________
  680                   ;							**24**
  681                   ; Ausgabe eines Zeichens ueber def. Kanal
  682                   ; VR:	AF
  683 F3BB  E5          OCHR:	PUSH	HL
  684 F3BC  2A B7B9     	LD	HL,(OUTAB)	; Ausgabekanal
  685 F3BF  D5          INTA1:	PUSH	DE		; siehe auch PV1 (sehr aehnlich)
  686 F3C0  C5          	PUSH	BC
  687 F3C1  5E          	LD	E,(HL)		; UP-Nr. der Routine
  688 F3C2  16 00       	LD	D,0
  689 F3C4  2A B7B0     	LD	HL,(SUTAB)
  690 F3C7  F5          	PUSH	AF
  691 F3C8  19          	ADD	HL,DE
  692 F3C9  19          	ADD	HL,DE
  693 F3CA  F1          	POP	AF
  694 F3CB  5E          	LD	E,(HL)
  695 F3CC  23          	INC	HL
  696 F3CD  56          	LD	D,(HL)		; DE = Adresse der Routine
  697 F3CE  EB          	EX	DE,HL
  698                   	; hier CAOS-C ausschalten
  699 F3CF  CD E1D6     	CALL	JPHL		; Routine aufrufen
  700                   	; hier CAOS-C wieder einschalten wie er war
  701 F3D2  C3 E0B8     POP31:	JP	POP3		; auch fuer PV2 bis PV6!
  702                   ;_____________________________________________________________
  703                   ;							**16**
  704                   ; Eingabe eines Zeichens ueber def. Kanal
  705                   ;
  706 F3D5  E5          INTB:	PUSH	HL
  707 F3D6  2A B7BB     	LD	HL,(INTAB)	; Eingabekanal
  708 F3D9  18 E4       	JR	INTA1
  709                   ;_____________________________________________________________
  710                   ;							**04**
  711                   ; Eingabe eines Zeichens mit Cursoreinblendung
  712                   ;
  713 F3DB  E5          KBD:	PUSH	HL
  714 F3DC  D5          	PUSH	DE
  715 F3DD  C5          	PUSH	BC
  716 F3DE  DD CB 08 76 KBD1:	BIT	6,(IX+8)	; F-Taste aktiv?
  717 F3E2  20 60       	JR	NZ,KBD9		; ja
  718 F3E4  1E 00       KBD2:	LD	E,0
  719 F3E6  CD F039     KBD3:	CALL	PV1
  720 F3E9  25          	DB	25h		; CUCP - blinken
  721 F3EA  1C          	INC	E		; e/a-Merker
  722 F3EB  06 0F       	LD	B,15		; F00h mal
  723 F3ED  CD E388     KBD4:	CALL	KBDZ		; abfragen
  724 F3F0  38 07       	JR	C,KBD5
  725 F3F2  0B          	DEC	BC
SLR180 SuperFast Relocating Macro Assembler     			    SLR180 1.31 Page 152
CF48    INC

  726 F3F3  78          	LD	A,B
  727 F3F4  B1          	OR	C
  728 F3F5  20 F6       	JR	NZ,KBD4		; warten,
  729 F3F7  18 ED       	JR	KBD3		; dann Cursor wieder weg usw.
  730                   	;
  731 F3F9  CB 43       KBD5:	BIT	0,E		; gerade ein?
  732 F3FB  28 04       	JR	Z,KBD5a
  733 F3FD  CD F039     	CALL	PV1		; Cursor wegnehmen
  734 F400  25          	DB	25h		; CUCP
  735 F401  57          KBD5a:	LD	D,A
  736 F402  DD CB 08 6E 	BIT	5,(IX+8)	; Click ein?
  737 F406  C4 E2C6     	CALL	NZ,CLIK		; Click-Ton erzeugen
  738 F409  7A          	LD	A,D
  739 F40A  21 B7A2     	LD	HL,STBT
  740 F40D  CB 66       	BIT	4,(HL)		; ESC aktiv?
  741 F40F  28 0D       	JR	Z,KBD6
  742 F411  ED 5B B7A0  	LD	DE,(CURSO)
  743 F415  CD E1A1     	CALL	CRT1		; ESC ausfuehren
  744 F418  ED 53 B7A0  	LD	(CURSO),DE
  745 F41C  18 C6       	JR	KBD2
  746                   	;
  747 F41E  FE 1B       KBD6:	CP	ESC
  748 F420  20 04       	JR	NZ,KBD7
  749 F422  CB E6       	SET	4,(HL)		; ESC merken
  750 F424  18 BE       KBD2J:	JR	KBD2
  751                   	;
  752 F426  FE F1       KBD7:	CP	0F1H		; F-Taste?
  753 F428  38 A8       	JR	C,POP31
  754 F42A  E6 0F       	AND	0FH
  755 F42C  47          	LD	B,A
  756 F42D  21 B900     	LD	HL,FTASTE	; 0B900H
  757 F430  7E          KBD8:	LD	A,(HL)
  758 F431  2C          	INC	L
  759 F432  28 B0       	JR	Z,KBD2		; Speicherende
  760 F434  A7          	AND	A
  761 F435  20 F9       	JR	NZ,KBD8		; Position im Puffer
  762 F437  10 F7       	DJNZ	KBD8		; auszaehlen
  763 F439  7D          	LD	A,L
  764 F43A  FE 9C       	CP	9CH
  765 F43C  30 A6       	JR	NC,KBD2		; Speicherende
  766 F43E  DD CB 08 F6 	SET	6,(IX+8)	; F-Taste aktiv
  767 F442  18 08       	JR	KBD10
  768                   	;
  769 F444  CD F664     KBD9:	CALL	BRKT		; Abbruch?
  770 F447  38 1A       	JR	C,KBD12
  771 F449  2A B7D1     	LD	HL,(FTAST)	; Zeiger auf
  772 F44C  7E          KBD10:	LD	A,(HL)		; naechstes CHR
  773 F44D  FE 1B       	CP	ESC
  774 F44F  20 0B       	JR	NZ,KBD11
  775 F451  23          	INC	HL
  776 F452  22 B7D1     	LD	(FTAST),HL
  777 F455  21 B7A2     	LD	HL,STBT
  778 F458  CB E6       	SET	4,(HL)		; ESC merken
  779 F45A  18 82       KBD1J:	JR	KBD1
  780                   	;
  781 F45C  23          KBD11:	INC	HL
  782 F45D  22 B7D1     	LD	(FTAST),HL	; Zeiger retten
  783 F460  A7          	AND	A		; NUL-Ende?
SLR180 SuperFast Relocating Macro Assembler     			    SLR180 1.31 Page 153
CF48    INC

  784 F461  20 06       	JR	NZ,KBD13
  785 F463  DD CB 08 B6 KBD12:	RES	6,(IX+8)	; ja - inaktiv
  786 F467  18 BB       	JR	KBD2J
  787                   	;
  788 F469  21 B7A2     KBD13:	LD	HL,STBT
  789 F46C  CB 66       	BIT	4,(HL)		; ESC aktiv?
  790 F46E  CA F3D2     	JP	Z,POP31
  791 F471  ED 5B B7A0  	LD	DE,(CURSO)
  792 F475  CD E1A1     	CALL	CRT1		; ESC ausfuehren
  793 F478  ED 53 B7A0  	LD	(CURSO),DE
  794 F47C  18 DC       	JR	KBD1J
  795                   ;_____________________________________________________________
  796                   ;							**17**
  797                   ; Eingabe einer Zeile mit Funktion aller Cursortasten,
  798                   ; Abschluss mit <ENTER> oder Abbruch <BRK>
  799                   ; Cursor danach am Anfang der naechsten Zeile
  800                   ;
  801                   ; PA:	CY=0	Eingabe mit Enter beendet (ab CAOS 4.3)
  802                   ;	CY=1	Eingabe mit BRK beendet (ab CAOS 4.3)
  803                   ;	DE	VRAM-Adresse auf Beginn der Eingabezeile
  804                   ; VR:	AF, DE
  805                   ;
  806 F47E  CD F3D5     INLIN:	CALL	INTB
  807 F481  CD F3BB     	CALL	OCHR
  808 F484  FE 03       	CP	3		; BRK?
  809 F486  37          	SCF
  810 F487  28 04       	JR	Z,INLI1
  811 F489  FE 0D       	CP	CR		; ENTER?
  812 F48B  20 F1       	JR	NZ,INLIN
  813 F48D  F5          INLI1:	PUSH	AF		; CY=1 bei BRK, CY=0 bei Enter
  814 F48E  CD F4C4     	CALL	CRLF		; Cursor an Anfang der naechsten Zeile (PA: A=0)
  815 F491  ED 5B B7A0  	LD	DE,(CURSO)
  816 F495  BA          	CP	D		; Zeile 1 durch PAGE-Mode?
  817 F496  20 04       	JR	NZ,INLI2
  818 F498  3A B79F     	LD	A,(WINLG+1)	; Anzahl Zeilen
  819 F49B  57          	LD	D,A		; D muss dann in letzte Zeile zeigen
  820 F49C  15          INLI2:	DEC	D		; Zeile darueber
  821 F49D  E5          	PUSH	HL		; HL sichern
  822 F49E  CD E087     	CALL	DABR		; VRAM-Adresse ermitteln
  823 F4A1  EB          	EX	DE,HL		; VRAM-Adresse in DE zurueckgeben
  824 F4A2  E1          	POP	HL		; HL unveraendert
  825 F4A3  F1          	POP	AF		; PA: CY=BRK
  826 F4A4  C9          NOOP:	RET
  827                   ;
  828                   ; Sprung zu einer Adresse mit Registeruebergabe
  829                   ; Syntax: %go ADR [HL [DE [BC [A] ] ] ]
  830                   ;
  831 F4A5  7F7F        GO7F:	DW	7F7FH
  832 F4A7  47 4F 20    	DB	'GO '
  833 F4AA  03          	DB	3		; mindestens 1 Argument erforderlich
  834 F4AB  AF          	XOR	A
  835 F4AC  32 B781     	LD	(ARGN),A
  836                   ; alter Code, 4 Byte lang:
  837                   ;	PUSH	HL		; Adresse auf den Stack
  838                   ;	EX	DE,HL		; ARG2 von DE nach HL
  839                   ;	LD	D,B
  840                   ;	LD	E,C		; ARG3 von BC nach DE
  841                   ; 28.10.2022: neuer Code von ZM.ASM uebernommen, 3 Byte lang
SLR180 SuperFast Relocating Macro Assembler     			    SLR180 1.31 Page 154
CF48    INC

  842                   ; BC(Arg3) => DE(Arg2) => HL(Arg1) => Stack
  843 F4AF  C5          	PUSH	BC		; (SP)=(ARG3)
  844 F4B0  E3          	EX	(SP),HL		; Stack = (ARG1), HL=(ARG3)
  845 F4B1  EB          	EX	DE,HL		; DE = (ARG3), HL=(ARG2)
  846 F4B2  ED 4B B788  	LD	BC,(ARG4)	; BC = (ARG4)
  847 F4B6  3A B78A     	LD	A,(ARG5)	; A = (ARG5)
  848 F4B9  C9          	RET			; JMP (ARG1)
  849                   ;_____________________________________________________________
  850                   ;							**19**
  851                   ; ERROR anzeigen
  852                   
  853 F4BA  CD F0B4     ERRM:	CALL	OSTR
  854 F4BD  45 52 52 4F 	DB	'ERROR',7,0
  855                   ;_____________________________________________________________
  856                   ;							**2C**
  857                   ; Neue Zeile mit CR,LF
  858                   ; PA:	A=0
  859                   ; VR:	AF
  860                   ;
  861 F4C4  CD F0B4     CRLF:	CALL	OSTR
  862 F4C7  0D 0A 00    	DB	CR,LF,0
  863 F4CA  C9          	RET
  864                   ;_____________________________________________________________
  865                   ;							**18**
  866                   ; Erfassung einer eingegebenen Hex-Zahl
  867                   ; PE:	DE	Zeichenkette
  868                   ; PA:	DE	Ende der Zeichenkette
  869                   ;	(NUMNX)	Laenge der Zeichenkette
  870                   ;	(NUMVX)	umgewandelte Zahl
  871                   ;	HL=NUMNX
  872                   ;	CY=1	Fehler
  873                   ; VR:	AF, DE, HL
  874                   ;
  875 F4CB  C5          RHEX:	PUSH	BC		; RHEX darf BC nicht veraendern
  876 F4CC  0E 10       	LD	C,16		; Hexadezimalzahlen
  877 F4CE  CD F4D7     	CALL	RZAHL
  878 F4D1  C1          	POP	BC
  879 F4D2  C9          	RET
  880                   ;_____________________________________________________________
  881                   ;							**4B**
  882                   ; Erfassung einer eingegebenen Dezimal-Zahl
  883                   ; PE:	DE	Zeichenkette
  884                   ; PA:	DE	Ende der Zeichenkette
  885                   ;	(NUMNX)	Laenge der Zeichenkette
  886                   ;	(NUMVX)	umgewandelte Zahl
  887                   ;	HL=NUMNX
  888                   ;	CY=1	Fehler
  889                   ; VR:	AF, C, DE, HL
  890                   ;
  891 F4D3  0E 0A       RDEZ:	LD	C,10		; Dezimalzahlen
  892 F4D5  1B          	DEC	DE	; (anstelle von JR RZAHL)
  893                   
  894                   ; Erfassung einer eingegebenen Dez- oder Hex-Zahl
  895                   ; PE:	DE	Adresse Zeichenkette (im VRAM)
  896                   ;	C	Zahlenbasis (2..32)
  897                   ; PA:	(NUMNX)	Anzahl der HEX-Zeichen (0-4)
  898                   ;	(NUMVX)	Wert der erfassten Zahl
  899                   ;	HL=NUMNX
SLR180 SuperFast Relocating Macro Assembler     			    SLR180 1.31 Page 155
CF48    INC

  900                   ;	CY=1	Fehler
  901                   ; VR:	AF, C, DE, HL
  902                   ;
  903 F4D6  13          RHX0:	INC	DE
  904 F4D7  1A          RZAHL:	LD	A,(DE)
  905 F4D8  FE 20       	CP	' '		; Trennzeichen
  906 F4DA  28 FA       	JR	Z,RHX0		; uebergehen
  907 F4DC  AF          	XOR	A
  908 F4DD  21 B798     	LD	HL,NUMVX+1
  909 F4E0  77          	LD	(HL),A
  910 F4E1  2B          	DEC	HL		; HL=NUMVX
  911 F4E2  77          	LD	(HL),A
  912 F4E3  2B          	DEC	HL		; HL=NUMNX
  913 F4E4  77          	LD	(HL),A		; alles auf 0 setzen
  914                   ; Erfassen der ASCII-Zeichen
  915 F4E5  1A          RHX1:	LD	A,(DE)
  916 F4E6  E6 DF       	AND	0DFH		; CY=0
  917 F4E8  C8          	RET	Z		; Ende-Dummy oder Space
  918 F4E9  1A          	LD	A,(DE)		;	       aus: 3A..40 41..60 61..80 81..FF
  919 F4EA  D6 30       	SUB	'0'		;	      wird: 0A..10 11..30 31..50 51..CF
  920 F4EC  D8          	RET	C		; kleiner als '0'
  921 F4ED  FE 0A       	CP	10
  922 F4EF  38 06       	JR	C,RHX2		; 0..9
  923 F4F1  D6 11       	SUB	17		; HEX-Korrektur	    F9..FF 00..1F 20..3F 40..BE
  924 F4F3  E6 DF       	AND	11011111b	; klein -> gross    D9..DF 00..1F 00..1F 40..9E
  925 F4F5  C6 0A       	ADD	10		; kleiner als 'A'   E3..E9 0A..29 0A..29 4A..A8
  926 F4F7  B9          RHX2:	CP	C		; > Zahlenbasis?
  927 F4F8  3F          	CCF
  928 F4F9  D8          	RET	C
  929 F4FA  34          	INC	(HL)		; NUMNX erhoehen
  930 F4FB  23          RHX3:	INC	HL
  931 F4FC  D5          	PUSH	DE
  932 F4FD  56          	LD	D,(HL)	
  933 F4FE  CD FBA0     	CALL	MULA		;(NUMVX)*Basis + Ziffer
  934 F501  D1          	POP	DE
  935 F502  77          	LD	(HL),A
  936 F503  78          	LD	A,B		; naechste Stelle
  937 F504  CB 45       	BIT	0,L		; HL=NUMVX ?
  938 F506  20 F3       	JR	NZ,RHX3		; wiederholen
  939 F508  2B          	DEC	HL
  940 F509  2B          	DEC	HL		; HL=NUMNX
  941 F50A  ED 44       	NEG			; CY=1 wenn A<>0
  942 F50C  D8          	RET	C		; Fehler: Zahl zu gross
  943 F50D  13          	INC	DE		; Zeiger auf naechstes Zeichen
  944 F50E  18 D5       	JR	RHX1
  945                   ;_____________________________________________________________
  946                   ;							**22**
  947                   ; Bis zu 10 hexadezimale Argumente erfassen
  948                   ; PE:	DE	Adresse im VRAM
  949                   ; PA:	(ARGN) und (ARG1) bis (ARG10)
  950                   ;	CY=1	Fehler
  951                   ; VR:	AF, BC, DE, HL
  952                   ;
  953 F510  0E 10       GARG:	LD	C,16		; Zahlenbasis = hexadezimal
  954                   ;_____________________________________________________________
  955                   ;							**4C**
  956                   ; Bis zu 10 Argumente erfassen, beliebige Zahlenbasis
  957                   ; PE:	C	Zahlenbasis 10 oder 16
SLR180 SuperFast Relocating Macro Assembler     			    SLR180 1.31 Page 156
CF48    INC

  958                   ;	DE	Adresse im VRAM
  959                   ; PA:	(ARGN) und (ARG1) bis (ARG10)
  960                   ;	CY=1	Fehler
  961                   ; VR:	AF, BC, DE, HL
  962                   ;
  963 F512  AF          GARGC:	XOR	A
  964 F513  32 B781     	LD	(ARGN),A	; (ARGN)=0
  965 F516  CD F4D7     GARG1:	CALL	RZAHL		; Argument erfassen
  966 F519  D8          	RET	C		; Fehler
  967 F51A  7E          	LD	A,(HL)		; NUMNX lesen
  968 F51B  B7          	OR	A		; Ende erreicht?
  969 F51C  C8          	RET	Z		; fertig
  970 F51D  3A B781     	LD	A,(ARGN)
  971 F520  3C          	INC	A		; Argumente mitzaehlen
  972 F521  FE 0B       	CP	11		; 10 Argumente?
  973 F523  3F          	CCF
  974 F524  D8          	RET	C		; zu viele Argumente
  975 F525  32 B781     	LD	(ARGN),A
  976 F528  87          	ADD	A,A		; ARGN*2
  977 F529  F6 80       	OR	LOW(ARGC)
  978 F52B  D5          	PUSH	DE
  979 F52C  5F          	LD	E,A
  980 F52D  16 B7       	LD	D,HIGH(ARGN)
  981 F52F  23          	INC	HL
  982 F530  ED A0       	LDI			; Low(ARGx)
  983 F532  ED A0       	LDI			; High(Argx)
  984 F534  03          	INC	BC
  985 F535  03          	INC	BC		; BC korrigieren
  986 F536  D1          	POP	DE
  987 F537  18 DD       	JR	GARG1
  988                   
  989                   ; Kleinbuchstaben in A in Grossbuchstaben umwandeln:
  990 F539  FE 61       UPCASE:	CP	'a'
  991 F53B  D8          	RET	C
  992 F53C  FE 7B       	CP	'z' + 1
  993 F53E  D0          	RET	NC
  994 F53F  E6 DF       	AND	11011111b
  995 F541  C9          	RET
  996                   
  997 F542  DD 36 05 00 KPUFF:	LD	(IX+5),LOW(CASS)
  998 F546  DD 36 06 B7 	LD	(IX+6),HIGH(CASS)
  999 F54A  C9          	RET
 1000                   ;_____________________________________________________________
 1001                   ;							**43**
 1002                   ; E/A-Kanal initialisieren
 1003                   ; PE:	HL	Tabelle mit Initialisierungsdaten
 1004                   ;		1. Byte: E/A-Adresse
 1005                   ;		2. Byte: Anzahl
 1006                   ;		danach die Initialisierungsbytes
 1007                   ; VR:	F, HL
 1008                   
 1009 F54B  C5          INIEA:	PUSH	BC
 1010 F54C  4E          	LD	C,(HL)		; erstes Byte: Portadresse
 1011 F54D  23          	INC	HL
 1012 F54E  46          	LD	B,(HL)		; zweites Byte: Anzahl
 1013 F54F  23          	INC	HL
 1014 F550  ED B3       	OTIR			; ... Bytes
 1015 F552  C1          	POP	BC
SLR180 SuperFast Relocating Macro Assembler     			    SLR180 1.31 Page 157
CF48    INC

 1016 F553  C9          	RET
 1017                   ;
 1018                   ; CAOS-interne Initialisierung meherer E/A-Kanaele ohne DI/EI
 1019                   ; PE:	HL	Initialisierungsdaten mit vorangestelltem Byte fuer Anzahl
 1020                   ; PA:	D=0
 1021                   ; VR:	D, F, HL
 1022                   ;
 1023 F554  56          INIMEX:	LD	D,(HL)		; Anzahl Kanaele
 1024 F555  23          	INC	HL
 1025 F556  CD F54B     INIMX1:	CALL	INIEA
 1026 F559  15          	DEC	D
 1027 F55A  20 FA       	JR	NZ,INIMX1
 1028 F55C  C9          	RET
 1029                   ;_____________________________________________________________
 1030                   ;							**44**
 1031                   ; Initialisierung mehrerer E/A-Kanaele
 1032                   ; PE:	HL	Tabelle mit Initialisierungsdaten
 1033                   ;	D	Anzahl der Kanaele
 1034                   ; VR:	F, D, HL
 1035                   
 1036 F55D  F3          INIME:	DI
 1037 F55E  CD F556     	CALL	INIMX1
 1038 F561  FB          	EI
 1039 F562  C9          	RET
 1040                   ;
 1041                   ; Dateiname abfragen
 1042                   ; PA:	HL	Zeiger auf den eingegebenen Namen
 1043                   ;	CY=1	mit BRK abgebrochen
 1044                   ;
 1045 F563  21 0006     NAME:	LD	HL,6
 1046 F566  CD F0B4     NAMHL:	CALL	OSTR
 1047 F569  4E 61 6D 65 	DB	'Name :',0
 1048 F570  CD F47E     	CALL	INLIN		; Dateiname abfragen
 1049 F573  D8          	RET	C		; BRK
 1050 F574  19          	ADD	HL,DE		; Beginn Name
 1051 F575  C9          	RET
 1052                   
 1053 F576  7F7F        SAVE7F:	DW	7F7FH
 1054 F578  53 41 56 45 	DB	'SAVE'
 1055 F57C  05          	DB	5
 1056 F57D  CD F563     	CALL	NAME		; Dateiname abfragen
 1057 F580  D8          	RET	C		; mit BRK abgebrochen
 1058                   ;_____________________________________________________________
 1059                   ;							**36**
 1060                   ; Datei speichern
 1061                   ;
 1062                   ; PE:   HL	Dateiname
 1063                   ; PA:   CY=1    Fehler oder BRK
 1064                   ; VR:	AF, BC, DE, HL
 1065                   ;
 1066 F581  CD E4D8     SAVE:	CALL	CLC		; Kassettenpuffer loeschen
 1067                   ;	LD	DE,CASS		; DE wird von CLC uebergeben
 1068 F584  E5          	PUSH	HL		; Dateiname
 1069 F585  01 000C     	LD	BC,12		; 15.06.2019: von 11 auf 12 geaendert
 1070 F588  ED B0       	LDIR			; Name in Puffer kopieren
 1071 F58A  AF          	XOR	A
 1072 F58B  12          	LD	(DE),A		; Ende-0 anhaengen
 1073 F58C  21 B781     	LD	HL,ARGN		; alle Argumente inklusive ARGN
SLR180 SuperFast Relocating Macro Assembler     			    SLR180 1.31 Page 158
CF48    INC

 1074 F58F  1E 10       	LD	E,10H
 1075 F591  0E 15       	LD	C,15H
 1076 F593  ED B0       	LDIR			; in den Puffer kopieren
 1077 F595  CD F542     	CALL	KPUFF		; Standard-Puffer setzen
 1078 F598  E1          	POP	HL		; Dateiname
 1079 F599  CD E4E1     	CALL	PV7		; Vorblock ausgeben
 1080 F59C  02          	DB	2		; ISRO
 1081 F59D  D8          	RET	C		; Fehler, bereits beim initialisieren
 1082 F59E  2A B784     	LD	HL,(ARG2)	; Endadresse+1
 1083 F5A1  ED 5B B782  	LD	DE,(ARG1)	; Anfangsadresse
 1084 F5A5  A7          	AND	A
 1085 F5A6  ED 52       	SBC	HL,DE		; Anzahl Datenbytes
 1086 F5A8  E5          	push	hl		; Anzahl auf Stack 
 1087 F5A9  2A B782     SAV1:	LD	HL,(ARG1)	; Adresse fuer aktuellen Block
 1088 F5AC  11 B700     	LD	DE,CASS
 1089 F5AF  01 0080     	LD	BC,128
 1090 F5B2  3A B801     	LD	A,(MODST+1)
 1091 F5B5  E6 01       	AND	1
 1092 F5B7  20 0E       	JR	NZ,SAV3		; IRM ein
 1093 F5B9  41          	LD	B,C
 1094 F5BA  CD E047     SAV2:	CALL	SCROFF
 1095 F5BD  7E          	LD	A,(HL)		; vom RAM
 1096 F5BE  CD E050     	CALL	SCRON
 1097 F5C1  12          	LD	(DE),A		; in den Puffer
 1098 F5C2  23          	INC	HL
 1099 F5C3  13          	INC	DE
 1100 F5C4  10 F4       	DJNZ	SAV2
 1101 F5C6  01          	DB	01H	; LD BC,nn	ueberspringt LDIR = ED B0
 1102                   ;	JR	SAV4
 1103                   	;
 1104 F5C7  ED B0       SAV3:	LDIR			; kopieren
 1105 F5C9  22 B782     SAV4:	LD	(ARG1),HL	; Adresse fuer naechsten Block eintragen
 1106 F5CC  E1          	pop	hl		; Anzahl
 1107 F5CD  CD F639     	CALL	SUP5		; Blocknummer anzeigen
 1108 F5D0  01 00A0     	LD	BC,160		; kurzer Vorton
 1109 F5D3  38 12       	JR	C,SAV5		; BRK -> Datei schliessen
 1110 F5D5  11 0080     	ld	de,128		; Blocklaenge
 1111 F5D8  ED 52       	sbc	hl,de		; Ende erreicht?
 1112 F5DA  28 0B       	jr	z,SAV5		; ja, genau das Blockende
 1113 F5DC  3F          	CCF
 1114 F5DD  30 08       	jr	NC,SAV5		; ja, letzter Block mit weniger Bytes
 1115 F5DF  E5          	push	hl		; restliche Anzahl
 1116 F5E0  CD E4E1     	CALL	PV7		; Datenblock ausgeben
 1117 F5E3  00          	DB	0		; MBO
 1118 F5E4  30 C3       	JR	NC,SAV1		; kein Fehler
 1119 F5E6  E1          	pop	hl		; restliche Byte-Anzahl vom Stack nehmen
 1120                   	;
 1121 F5E7  F5          SAV5:   PUSH    AF              ; Fehlerstatus merken
 1122 F5E8  CD E4E1     	CALL	PV7		; Ausgabe Endeblock 0FFH
 1123 F5EB  03          	DB	3		; CSRO
 1124 F5EC  CD E4D8     	CALL	CLC		; CAOS 4.6: Puffer loeschen nicht mehr in CSRO
 1125 F5EF  CD F4C4     	CALL	CRLF		; CAOS 4.6: Zeilenvorschub nicht mehr in CSRO
 1126 F5F2  F1          	POP     AF              ; CY=1 bei Fehler
 1127 F5F3  C9          	RET
 1128                   ;_____________________________________________________________
 1129                   ;							**15**
 1130                   ; Laden der Argumente in Register
 1131                   ; PA:	HL, DE, BC, A mit Daten der Argumente
SLR180 SuperFast Relocating Macro Assembler     			    SLR180 1.31 Page 159
CF48    INC

 1132                   ;
 1133 F5F4  ED 4B B786  LARG:	LD	BC,(ARG3)
 1134 F5F8  ED 5B B784  	LD	DE,(ARG2)
 1135 F5FC  2A B782     	LD	HL,(ARG1)
 1136 F5FF  3A B781     	LD	A,(ARGN)
 1137 F602  C9          	RET
 1138                   
 1139                   ; Lesen eines Blockes mit Ausschrift Blocknummer bzw. Name
 1140                   ;
 1141                   ; PE:	(IX+3)	zu lesender Block
 1142                   ; PA:	CY=1	BRK gedrueckt nach Lesefehler oder Fehler bei Device nicht TAPE
 1143                   ; VR:	AF,BC	(Block<>1) ( 00>  )
 1144                   ;	AF,BC,HL (Block=1) ( Name )
 1145                   
 1146 F603  DD 34 03    RDBLK:	INC	(IX+3)		; erwarteter Block
 1147 F606  CD E4E1     LUP1:	CALL	PV7
 1148 F609  01          	DB	1		; MBI
 1149 F60A  30 1C       LUP2:	JR	NC,LUP3		; kein Fehler aufgetreten
 1150                   
 1151 F60C  CD ED6D     	CALL	DEV		; Kassette?
 1152 F60F  37          	SCF			; Fehlerflag wieder setzen
 1153 F610  C0          	RET	NZ		; Abbruch bei Fehler wenn kein TAPE
 1154                   
 1155                   ; bei Kassette nach Wiederholung fragen:
 1156 F611  CD F640     	CALL	BLERR		; fehlerhaften Block mit ? anzeigen
 1157 F614  CD F4C4     	CALL	CRLF		; neue Zeile
 1158 F617  DD 7E 03    	LD	A,(IX+3)
 1159 F61A  3D          	DEC	A		; Vorblock mit Nr. 01 erwartet?
 1160 F61B  28 E9       	JR	Z,LUP1		; dann weiter versuchen...
 1161 F61D  CD F3DB     	CALL	KBD		; Tastaturabfrage
 1162 F620  FE 03       	CP	3		; BRK?
 1163 F622  37          	SCF
 1164 F623  C8          	RET	Z
 1165 F624  FE 0A       	CP	LF		; CUD? (fehlerhaften Block uebernehmen?)
 1166 F626  20 DE       	JR	NZ,LUP1
 1167 F628  DD 7E 02    LUP3:	LD	A,(IX+2)	; gelesener Block
 1168 F62B  DD 46 03    	LD	B,(IX+3)	; zu lesender Block
 1169 F62E  B8          	CP	B		; richtige Blocknummer?
 1170 F62F  28 1B       	JR	Z,LUP4		; ja
 1171 F631  3C          	INC	A		; Block FF?
 1172 F632  28 1B       	JR	Z,LUP5		; Endeblock immer als richtig werten
 1173 F634  CD F63C     	CALL	BLNOT		; falsche Blocknummer mit * anzeigen
 1174 F637  18 CD       	JR	LUP1		; weiter versuchen
 1175                   	;
 1176 F639  AF          SUP5:	XOR	A		; nichts anzeigen nach der Blocknummer
 1177 F63A  18 18       	JR	AHSTR
 1178                   	;
 1179 F63C  3E 2A       BLNOT:	LD	A,'*'		; falsche Blocknummer mit * anzeigen
 1180 F63E  18 14       	JR	AHSTR
 1181                   	;
 1182 F640  CD F0B4     BLERR:	CALL	OSTR		; fehlerhaften Block mit ? anzeigen		
 1183 F643  09 09 09 20 	DB	9,9,9,' ',0	; hinter der letzten korrekten Blocknummer
 1184 F648  3E 3F       	LD	A,'?'		; Pruefsumme fehlerhaft
 1185 F64A  18 08       	JR	AHSTR
 1186                   
 1187 F64C  3D          LUP4:	DEC	A		; Block 01?
 1188 F64D  28 1F       	JR	Z,LUP6		; Dateiname anzeigen
 1189 F64F  CD F278     LUP5:	CALL	CRT02		; falls eine fehlerhafte Zeile dabei war
SLR180 SuperFast Relocating Macro Assembler     			    SLR180 1.31 Page 160
CF48    INC

 1190                   ;SUP5:				; Zeile komplett loeschen mit CLLN
 1191 F652  3E 3E       	LD	A,'>'		; korrekte Blocknummer
 1192 F654  F5          AHSTR:	PUSH	AF
 1193 F655  DD 7E 02    	LD	A,(IX+2)	; Blocknummer
 1194 F658  CD F3AA     	CALL	AHEX		; hexadezimal anzeigen
 1195 F65B  F1          	POP	AF
 1196 F65C  CD F3BB     	CALL	OCHR		; Kennung (>, *, ?) anhaengen
 1197 F65F  3E 19       	LD	A,19H
 1198 F661  CD E0AC     	CALL	CRT		; zurueck zum Zeilenanfang
 1199                   ;	JP	BRKT
 1200                   ;_____________________________________________________________
 1201                   ;							**2A**
 1202                   ; Test auf BRK-Anforderung
 1203                   
 1204 F664  CD E37D     BRKT:	CALL	KBDS		; Tastaturabfrage
 1205 F667  D0          	RET	NC		; keine Taste gedrueckt
 1206 F668  FE 03       	CP	3		; war das die BRK-Taste?
 1207 F66A  37          	SCF			; CY=1
 1208 F66B  C8          	RET	Z		; ja, BRK erkannt
 1209 F66C  A7          	AND	A		; CY=0
 1210 F66D  C9          	RET
 1211                   
 1212                   ; Dateiname aus Vorblock anzeigen (fuer TAPELIST und LOAD)
 1213                   ; 15.06.2019: Anzahl von 11 auf 12 geaendert wegen 8.3 im Vorblock
 1214                   ; 02.04.2021: wieder 11 (wegen TAPELIST/BASIC)
 1215                   ; 15.05.2021: 12 bei LOAD und 11 bei TAPELIST als Kompromiss
 1216                   ; 11.09.2021: Register HL wird nicht mehr veraendert
 1217 F66E  06 0C       LUP6:	LD	B,12		; Kontrolle/Anzeige 11 gueltige Zeichen
 1218 F670  48          TLNAME:	LD	C,B
 1219 F671  E5          	PUSH	HL
 1220 F672  21 B700     	LD	HL,CASS		; Dateiname in Kassettenpuffer
 1221 F675  7E          LUP7:	LD	A,(HL)		; auf gueltige Zeichen testen
 1222 F676  B7          	OR	A
 1223 F677  28 10       	JR	Z,LUP8		; 00h ist OK
 1224 F679  FE 20       	CP	20h
 1225 F67B  38 21       	JR	C,LUP10		; <20h also raus
 1226 F67D  FE 7F       	CP	7Fh
 1227 F67F  38 08       	JR	C,LUP8		; 20h..7Eh ist OK
 1228 F681  FE D3       	CP	0D3h
 1229 F683  38 19       	JR	C,LUP10		; 7Fh..D2h raus
 1230 F685  FE DA       	CP	0DAh		; D3..D5 sind BASIC-Dateitypen,
 1231                   				; D7..D9 sind geschuetzte BASIC-Dateitypen
 1232 F687  30 15       	JR	NC,LUP10	; >D9h also raus
 1233 F689  2C          LUP8:	INC	L
 1234 F68A  10 E9       	DJNZ	LUP7
 1235 F68C  68          	LD	L,B		; L=0 wieder zurueck auf Anfang Kassettenpuffer
 1236 F68D  41          	LD	B,C		; anzuzeigende Anzahl
 1237 F68E  7E          LUP9:	LD	A,(HL)		; aus Kassettenpuffer anzeigen
 1238 F68F  E6 7F       	AND	7Fh		; hohe Zeichen fuer BASIC-Dateiname
 1239 F691  23          	INC	HL
 1240                   ;	OR	A		; CY=0 (kein Fehler)
 1241 F692  20 02       	JR	NZ,LUP11
 1242 F694  3E 20       	LD	A,' '		; statt 00 Leerzeichen anzeigen
 1243 F696  CD F3BB     LUP11:	CALL	OCHR		; Dateiname anzeigen
 1244 F699  10 F3       	DJNZ	LUP9
 1245 F69B  CD F3A2     	CALL	SPACE		; Leerzeichen zwischen Dateiname + Adressen
 1246 F69E  E1          LUP10:	POP	HL
 1247 F69F  A7          	AND	A		; kein Fehler
SLR180 SuperFast Relocating Macro Assembler     			    SLR180 1.31 Page 161
CF48    INC

 1248 F6A0  C9          	RET			; (CRT und damit OCHR/SPACE veraendern AF nicht)
 1249                   
 1250 F6A1  CD F0B4     NOMC:	CALL	OSTR
 1251 F6A4  4B 65 69 6E 	DB	'Keine MC-Datei!',CR,LF,0
 1252 F6B6  CD FC1F     CLJP:	CALL	CSRI		; Datei schliessen
 1253 F6B9  37          	SCF			; Fehlerflag setzen
 1254 F6BA  C9          	RET
 1255                   
 1256 F6BB  7F7F        VERI7F:	DW	7F7FH
 1257 F6BD  56 45 52 49 	DB	'VERIFY',1
 1258                   ;_____________________________________________________________
 1259                   ;							**11**
 1260                   ; Kassettendatei kontrollieren
 1261                   
 1262 F6C4  CD ED6D     VERIF:	CALL	DEV		; Kassette?
 1263 F6C7  C0          	RET	NZ		; nur bei TAPE sinnvoll
 1264 F6C8  DD 77 07    	LD	(IX+7),A	; A=0
 1265 F6CB  18 1D       	JR	LOAD1
 1266                   
 1267 F6CD  7F7F        LOAD7F:	DW	7F7FH
 1268 F6CF  4C 4F 41 44 	DB	'LOAD',1
 1269 F6D4  CD ED6D     	CALL	DEV		; Kassette?
 1270 F6D7  C4 F563     	CALL	NZ,NAME		; Dateiname abfragen falls nicht TAPE
 1271 F6DA  D8          	RET	C		; mit BRK abgebrochen
 1272                   ;_____________________________________________________________
 1273                   ;							**10**
 1274                   ; Datei einlesen
 1275                   
 1276 F6DB  DD 36 07 01 LOAD:	LD	(IX+7),1	; Daten lesen
 1277 F6DF  3A B781     	LD	A,(ARGN)
 1278 F6E2  FE 02       	CP	2
 1279 F6E4  38 04       	JR	C,LOAD1		; Autostart?
 1280 F6E6  DD CB 07 CE 	SET	1,(IX+7)	; unterdruecken
 1281 F6EA  CD F542     LOAD1:	CALL	KPUFF		; Standardpuffer setzen
 1282 F6ED  CD E4E1     	CALL	PV7		; HL = Dateiname
 1283 F6F0  04          	DB	4		; ISRI (Vorblock einlesen)
 1284 F6F1  30 05       	JR	NC,LOAD0	; kein Fehler aufgetreten
 1285 F6F3  CD ED6D     	CALL	DEV		; Kassette?
 1286 F6F6  37          	SCF			; Fehlerflag setzen
 1287 F6F7  C0          	RET	NZ		; Abbruch wenn nicht Kassette
 1288 F6F8  CD F60A     LOAD0:	CALL	LUP2		; Blockinhalt auswerten (Name anzeigen usw.)
 1289 F6FB  38 B9       LOAD2:	JR	C,CLJP		; BRK -> CSRI -> Fehler
 1290 F6FD  DD CB 07 46 	BIT	0,(IX+7)
 1291 F701  28 47       	JR	Z,LOAD5		; Verify
 1292 F703  3A B710     	LD	A,(CASS+10H)	; Anzahl der Argumente beim Abspeichern
 1293 F706  D6 02       	SUB	2		; 0 oder 1 Argument ist falsch
 1294 F708  FE 09       	CP	9		; MC?
 1295 F70A  30 95       	JR	NC,NOMC		; Fehler: kein gueltiger CAOS-Vorblock
 1296                   ;
 1297                   ; 11.09.2021: ARGN aus Vorblock wird nun um 2 verringert in den Bits 2-4 von
 1298                   ; (IX+7) abgelegt. Das spart das doppelte Laden von (CASS+10H) und vereinfacht
 1299                   ; den Test auf Autostart nach dem Einlesen der Datei
 1300                   ;
 1301 F70C  07          	RLCA			; Anzahl ARG-2
 1302 F70D  07          	RLCA			; nach Bits 2..4 rotieren
 1303                   ;
 1304                   ; 12.09.2021: Da (IX+7) bei LOAD mit 1 und bei VERIFY mit 0 initialisiert wird,
 1305                   ; muessen die Bits nicht maskiert werden und die Bits 2..4 koennen direkt
SLR180 SuperFast Relocating Macro Assembler     			    SLR180 1.31 Page 162
CF48    INC

 1306                   ; gesetzt werden mittels OR
 1307                   ;
 1308 F70E  DD B6 07    	OR	(IX+7)
 1309                   ;	AND	00011100b	; Bits 0..1 und 5..7 zuruecksetzen
 1310                   ;	XOR	(IX+7)		; a = (a XOR b) XOR b fuer Bits 2..4
 1311 F711  DD 77 07    	LD	(IX+7),A	; in IX+7 merken fuer spaetere Auswertung
 1312 F714  2A B715     	LD	HL,(CASS+15H)	; SADR
 1313 F717  E5          	PUSH	HL
 1314 F718  ED 5B B713  	LD	DE,(CASS+13H)	; EADR+1
 1315 F71C  2A B711     	LD	HL,(CASS+11H)	; AADR
 1316 F71F  3A B781     	LD	A,(ARGN)
 1317 F722  A7          	AND	A		; Ladeoffset?
 1318 F723  28 11       	JR	Z,LOAD3		; nein
 1319 F725  ED 4B B782  	LD	BC,(ARG1)	; Offset
 1320 F729  09          	ADD	HL,BC		; Anfangsadresse und Endadresse
 1321 F72A  EB          	EX	DE,HL		; umrechnen
 1322 F72B  09          	ADD	HL,BC
 1323 F72C  EB          	EX	DE,HL
 1324 F72D  DD CB 07 66 	BIT	4,(IX+7)	; 4 bis 7 Argumente?
 1325 F731  20 03       	JR	NZ,LOAD3
 1326 F733  E3          	EX	(SP),HL
 1327 F734  09          	ADD	HL,BC		; Startadresse auch umrechnen
 1328 F735  E3          	EX	(SP),HL
 1329 F736  CD F392     LOAD3:	CALL	HLDE		; Anfangsadresse und Endadresse anzeigen
 1330 F739  3A B710     	LD	A,(CASS+10H)
 1331 F73C  FE 03       	CP	3
 1332 F73E  38 05       	JR	C,LOAD4		; keine Startadresse
 1333 F740  E3          	EX	(SP),HL
 1334 F741  CD F39A     	CALL	HLHX		; Startadresse anzeigen
 1335 F744  E3          	EX	(SP),HL
 1336 F745  C1          LOAD4:	POP	BC		; Startadresse merken
 1337 F746  ED 43 B786  	LD	(ARG3),BC
 1338 F74A  CD F4C4     LOAD5:	CALL	CRLF		; Zeilenvorschub nach Dateiname + Adressen
 1339 F74D  EB          	EX	DE,HL		; DE = Ladeadresse
 1340                   ; Load-Hauptschleife
 1341 F74E  CD F603     LOAD6:	CALL	RDBLK		; 128-Byte-Block einlesen
 1342 F751  38 A8       	JR	C,LOAD2		; BRK -> CSRI -> Fehler melden
 1343 F753  DD CB 07 46 	BIT	0,(IX+7)
 1344 F757  28 26       	JR	Z,LOAD11	; Verify
 1345 F759  E5          	PUSH	HL		; Endadresse
 1346 F75A  ED 52       	SBC	HL,DE		; noch zu lesende Bytes
 1347 F75C  01 0080     	LD	BC,128		; Blockgroesse 128 Byte
 1348 F75F  B7          	OR	A		; CY=0, damit auch EADR<AADR funktioniert!
 1349 F760  ED 42       	SBC	HL,BC		; voller Block?
 1350 F762  09          	ADD	HL,BC
 1351 F763  30 01       	JR	NC,LOAD7	; ja
 1352 F765  4D          	LD	C,L		; restliche Anzahl
 1353 F766  21 B700     LOAD7:	LD	HL,CASS		; Standard-Kassettenpuffer
 1354 F769  3A B801     	LD	A,(MODST+1)
 1355 F76C  E6 01       	AND	1
 1356 F76E  20 16       	JR	NZ,LOAD9	; IRM ist ein
 1357 F770  41          	LD	B,C
 1358 F771  7E          LOAD8:	LD	A,(HL)		; Byteweise aus dem Puffer
 1359 F772  CD E047     	CALL	SCROFF
 1360 F775  12          	LD	(DE),A		; in den RAM kopieren
 1361 F776  23          	INC	HL
 1362 F777  13          	INC	DE
 1363 F778  CD E050     	CALL	SCRON
SLR180 SuperFast Relocating Macro Assembler     			    SLR180 1.31 Page 163
CF48    INC

 1364 F77B  10 F4       	DJNZ	LOAD8
 1365 F77D  18 09       	JR	LOAD10
 1366                   ;
 1367                   ; CAOS 4.7:
 1368                   ; Bei VERIFY wird mit Blocknummer FF der Vergleich beendet
 1369                   ;
 1370 F77F  DD 34 02    LOAD11:	INC	(IX+2)		; Blocknummer FF?
 1371 F782  28 0A       	JR	Z,LOAD12	; ja, bei VERIFY Einlesen beenden
 1372 F784  18 C8       	JR	LOAD6
 1373                   	;
 1374 F786  ED B0       LOAD9:	LDIR			; gelesenen Block kopieren
 1375 F788  E1          LOAD10:	POP	HL
 1376 F789  ED 52       	SBC	HL,DE		; Endadresse erreicht?
 1377 F78B  19          	ADD	HL,DE		; EADR regenerieren (Z-Flag bleibt erhalten)
 1378                   ;
 1379                   ; CAOS 4.6:
 1380                   ; Damit das Einlesen auch bei Diskette funktioniert, muss zusaetzlich oder
 1381                   ; ausschliesslich (?) der Adressvergleich stattfinden! Da hier nur MC-Dateien
 1382                   ; gelesen werden, ist eigentlich keine Abfrage auf Blocknr. FF erforderlich
 1383                   ;
 1384 F78C  20 C0       	JR	NZ,LOAD6
 1385 F78E  CD E4D8     LOAD12:	CALL	CLC		; CAOS 4.6: Puffer loeschen nicht mehr in CSRI
 1386 F791  CD F4C4     	CALL	CRLF		; CAOS 4.6: Zeilenvorschub nicht mehr in CSRI
 1387                   	;
 1388 F794  CD E4E1     	CALL	PV7		; Datei schliessen
 1389 F797  05          	DB	5		; CSRI
 1390 F798  D8          	RET	C		; Fehler
 1391 F799  DD 7E 07    	LD	A,(IX+7)
 1392 F79C  E6 03       	AND	3		; Bits 0+1 testen
 1393 F79E  3D          	DEC	A
 1394 F79F  C0          	RET	NZ		; kein Start oder Verify
 1395 F7A0  DD 7E 07    	LD	A,(IX+7)
 1396 F7A3  E6 1C       	AND	00011100b	; Bits 2..4 testen (ARGN-2 in Vorblock)
 1397 F7A5  DD 36 07 00 	LD	(IX+7),0	; Befehl fehlte in CAOS 4.3!
 1398 F7A9  C8          	RET	Z		; kein Fehler, kein Autostart bei ARGN=2
 1399 F7AA  2A B786     	LD	HL,(ARG3)	; Startadresse
 1400 F7AD  E9          	JP	(HL)		; anspringen
 1401                   
 1402 F7AE  7F7F        	DW	7F7FH
 1403 F7B0  43 4F 4C 4F 	DB	'COLOR'
 1404 F7B5  11          	DB	11H		; Argumente dezimal ab CAOS 4.8
 1405 F7B6  CD FB98     	CALL	CON		; CAOS ROM-C ein
 1406 F7B9  C3 C57D     	JP	COLRC		; dort abarbeiten
 1407                   ;_____________________________________________________________
 1408                   ;							**0F**
 1409 F7BC  CD FB98     COLR:	CALL	CON
 1410 F7BF  C3 C59E     	JP	SETCO
 1411                   
 1412 F7C2  7F7F        	DW	7F7FH
 1413 F7C4  44 49 53 50 	DB	'DISPLAY'
 1414 F7CB  03          	DB	3
 1415                   ;_____________________________________________________________
 1416                   ;							**3B**
 1417 F7CC  CD FB98     DISP:	CALL	CON		; CLROMC hier nicht nutzbar (wegen BC)
 1418 F7CF  CD C836     	CALL	DISPC
 1419 F7D2  18 1D       	JR	JCOFF
 1420                   
 1421 F7D4  7F7F        	DW	7F7FH
SLR180 SuperFast Relocating Macro Assembler     			    SLR180 1.31 Page 164
CF48    INC

 1422 F7D6  4D 4F 44 49 	DB	'MODIFY'
 1423 F7DC  03          	DB	3
 1424                   ;_____________________________________________________________
 1425                   ;							**2E**
 1426 F7DD  01 C867     MODI:	LD	BC,MODIC
 1427 F7E0  18 1A       	JR	JROMC		; im ROM-C ausfuehren
 1428                   ;
 1429                   ;***************************************************************
 1430                   ; Fensterverwaltung
 1431                   ; %WINDOW		aktiviert Fenster 0 in voller Groesse
 1432                   ; %WINDOW nr		aktiviert Fenster nr
 1433                   ; %WINDOW aa bb cc dd e	Fenster definieren
 1434                   ;         |  |  |  |  |
 1435                   ;         |  |  |  |  |_ Fenster-Nr. in (ARG5)
 1436                   ;         |  |  |  |____ Spaltenzahl in (ARG4)
 1437                   ;         |  |  |_______ Spaltenanfang in Register C
 1438                   ;         |  |__________ Zeilenanzahl in Register E
 1439                   ;         |_____________ Zeilenanfang in Register L
 1440                   ;
 1441 F7E2  7F7F        WIND7F:	DW	7F7FH
 1442 F7E4  57 49 4E 44 	DB	'WINDOW'
 1443 F7EA  11          	DB	11H		; Argumente dezimal!
 1444 F7EB  CD FB98     	CALL	CON		; CLROMC hier nicht nutzbar (wegen BC)
 1445 F7EE  CD C5B9     	CALL	WINDC
 1446 F7F1  C3 FB87     JCOFF:	JP	COFF
 1447                   ;_____________________________________________________________
 1448                   ;							**3C**
 1449                   ; PE:	A	Fensternummer 0..9
 1450                   ;	HL	Fensteranfang
 1451                   ;	DE	Fenstrergroesse
 1452                   ; PA:	CY=1	Fehler
 1453                   ; VR:	AF, BC, DE, HL
 1454                   ;
 1455 F7F4  01 C619     WININ:	LD	BC,WININC
 1456 F7F7  18 03       	JR	JROMC		; im ROM-C ausfuehren
 1457                   ;_____________________________________________________________
 1458                   ;							**3D**
 1459                   ; PE:	A	Fensternummer 0..9
 1460                   ; PA:	CY=1	Fehler
 1461                   ; VR:	AF, BC, DE, HL
 1462                   ;
 1463 F7F9  01 C5E9     WINAK:	LD	BC,WINAKC
 1464 F7FC  C3 FB84     JROMC:	JP	CLROMC		; im ROM-C ausfuehren
 1465                   ;_____________________________________________________________
 1466                   ;
 1467                   ; F-Taste belegen bzw. Belegung auflisten
 1468                   ;
 1469 F7FF  7F7F        	DW	7F7FH
 1470 F801  4B 45 59    	DB	'KEY'
 1471 F804  01          	DB	1		; Parameter hexadezimal
 1472 F805  FE 01       	CP	1		; Parameter angegeben?
 1473 F807  30 05       	JR	NC,KEYL		; ja, F-Taste bearbeiten
 1474                   ;_____________________________________________________________
 1475                   ;							**3A**
 1476 F809  01 C533     KEYLI:	LD	BC,KEYLIC	; Keylist
 1477 F80C  18 EE       	JR	JROMC		; im ROM-C ausfuehren
 1478                   
 1479 F80E  7D          KEYL:	LD	A,L		; Nummer
SLR180 SuperFast Relocating Macro Assembler     			    SLR180 1.31 Page 165
CF48    INC

 1480                   ;_____________________________________________________________
 1481                   ;							**39**
 1482 F80F  01 C487     KEY:	LD	BC,KEYC		; Taste belegen
 1483 F812  18 E8       	JR	JROMC		; im ROM-C ausfuehren
 1484                   ;_____________________________________________________________
 1485                   ;							**25**
 1486                   ; Cursor komplementieren
 1487                   ;
 1488 F814  E5          CUCP:	PUSH	HL
 1489 F815  D5          	PUSH	DE
 1490 F816  C5          	PUSH	BC
 1491 F817  F5          	PUSH	AF
 1492 F818  CD E059     	CALL	PADR0		; Adresse im VRAM berechnen
 1493 F81B  38 20       	JR	C,CUCP3		; ausserhalb
 1494 F81D  E5          	PUSH	HL
 1495 F81E  CD E087     	CALL	DABR
 1496 F821  7E          	LD	A,(HL)
 1497 F822  E1          	POP	HL
 1498 F823  A7          	AND	A		; Dummy?
 1499 F824  20 0A       	JR	NZ,CUCP1
 1500 F826  3E 06       	LD	A,6		; vorletzte
 1501 F828  B5          	OR	L		; Cursorzeile
 1502 F829  6F          	LD	L,A
 1503 F82A  7E          	LD	A,(HL)
 1504 F82B  EE FE       	XOR	0FEH		; Strichcursor 7 Pixel breit
 1505 F82D  77          	LD	(HL),A
 1506 F82E  18 0D       	JR	CUCP3
 1507                   	;
 1508 F830  ED 5B B7EE  CUCP1:	LD	DE,(CUMUST)	; Muster
 1509 F834  06 08       	LD	B,8		; Zeichenhoehe
 1510 F836  1A          CUCP2:	LD	A,(DE)
 1511 F837  AE          	XOR	(HL)		; verknuepfen
 1512 F838  77          	LD	(HL),A
 1513 F839  13          	INC	DE
 1514 F83A  2C          	INC	L
 1515 F83B  10 F9       	DJNZ	CUCP2		; 8-mal
 1516 F83D  C3 E0B7     CUCP3:	JP	POP4
 1517                   ;_____________________________________________________________
 1518                   ;							**30**
 1519                   ; Punkt setzen
 1520                   ; PE:	(HOR)	Horizontalkoordinate
 1521                   ;	(VERT)	Vertikalkoordinate
 1522                   ;	(FARB)	Bildpunktfarbe
 1523                   ; PA:	CY=1	Punkt auaerhalb (Fehler)
 1524                   ; VR:	AF
 1525                   ;
 1526 F840  CD FB98     PUSE:	CALL	CON		; CLROMC hier nicht nutzbar (wegen BC)
 1527 F843  CD C7AD     	CALL	PUSEC		; Punkt setzen
 1528 F846  18 06       	JR	COF
 1529                   ;_____________________________________________________________
 1530                   ;							**2F**
 1531                   ; Punkt loeschen
 1532                   ; PE:	(HOR)	Horizontalkoordinate
 1533                   ;	(VERT)	Vertikalkoordinate
 1534                   ;	(FARB)	Bildpunktfarbe
 1535                   ; PA:	CY=1	Punkt auaerhalb (Fehler)
 1536                   ;	Z=1	Punkt war nicht gesetzt
 1537                   ;	A	Farbbyte
SLR180 SuperFast Relocating Macro Assembler     			    SLR180 1.31 Page 166
CF48    INC

 1538                   ; VR:	AF
 1539                   ;
 1540 F848  CD FB98     PUDE:	CALL	CON		; CLROMC hier nicht nutzbar (wegen BC)
 1541 F84B  CD C7B8     	CALL	PUDEC		; Punkt loeschen
 1542 F84E  C3 FB87     COF:	JP	COFF
 1543                   ;_____________________________________________________________
 1544                   ;							**3F**
 1545                   ; Kreis zeichnen
 1546                   ; PE:	(ARG1)	X-Koordinate Mittelpunkt
 1547                   ;	(ARG2)	Y-Koordinate Mittelpunkt
 1548                   ;	(ARG3)	Radius
 1549                   ;	(FARB)	Farbe des Kreises
 1550                   ; PA:	-
 1551                   ; VR:	AF, BC, DE, HL, BC', DE', HL'
 1552                   
 1553 F851  01 C6E6     CIRCL:	LD	BC,CIRCLC	; Kreis
 1554 F854  18 A6       	JR	JROMC		; im ROM-C ausfuehren
 1555                   ;_____________________________________________________________
 1556                   ;							**3E**
 1557                   ; Linie zeichnen
 1558                   ; PE:	(ARG1)	X-Koordinate-Anfang
 1559                   ;	(ARG2)	Y-Koordinate-Anfang
 1560                   ;	(ARG3)	X-Koordinate-Ende
 1561                   ;	(ARG4)	Y-Koordinate-Ende
 1562                   ;	(FARB)	Farbe der Linie
 1563                   ; PA:	-
 1564                   ; VR:	AF, BC, DE, HL, AF', BC', DE', HL'
 1565                   
 1566 F856  01 C669     LINE:	LD	BC,LINEC	; Linie
 1567 F859  18 A1       	JR	JROMC
 1568                   ;_____________________________________________________________
 1569                   ;							**37**
 1570                   ; Byteweise Eingabe:
 1571                   ; PE:	D	Steuerbyte
 1572                   ;	HL	Name nur bei INIT (Adresszeiger 11 Byte)
 1573                   ;	Bit 5,(IX+7) Blocknummernanzeige unterdruecken?
 1574                   ; PA:	A	Datenbyte (nicht bei Close)
 1575                   ;	CY=1	Fehler
 1576                   ; VR:	AF, DE, HL
 1577                   ;
 1578 F85B  CD FB98     MBIN:	CALL	CON		; CAOS-ROM C ein
 1579 F85E  CD CDBA     	CALL	MBIC		; Byte einlesen
 1580 F861  18 EB       	JR	COF		; CAOS-ROM C aus
 1581                   ;_____________________________________________________________
 1582                   ;							**38**
 1583                   ; Byteweise Ausgabe:
 1584                   ; PE:	A	Datenbyte
 1585                   ;	D	Steuerbyte
 1586                   ;	HL	Name nur bei INIT (Adresszeiger 11 Byte)
 1587                   ;	Bit 5,(IX+7) Blocknummernanzeige unterdruecken?
 1588                   ; PA:	CY=1	Fehler
 1589                   ; VR:	AF, DE, HL
 1590                   ;
 1591 F863  CD FB98     MBOUT:	CALL	CON		; CAOS-ROM C ein
 1592 F866  CD CD21     	CALL	MBOC		; Byte ausgeben
 1593 F869  18 E3       	JR	COF		; CAOS-ROM C aus
 1594                   
 1595                   ; aktuelles Menuewort wieder loeschen (fuer HELP-Funktion)
SLR180 SuperFast Relocating Macro Assembler     			    SLR180 1.31 Page 167
CF48    INC

 1596                   
 1597 F86B  16 0C       CLR12:	LD	D,12		; maximal 12 Zeichen
 1598 F86D  3E 1F       CLR12a:	LD	A,1FH		; DEL
 1599 F86F  CD F3BB     	CALL	OCHR		; loeschen
 1600 F872  15          	DEC	D
 1601 F873  20 F8       	JR	NZ,CLR12a
 1602 F875  C9          	RET
 1603                   
 1604                   ; BASIC-I/O-Verteiler
 1605                   ; PE:	E	Steuerbyte
 1606                   ;	Bit 0..2 Kanalauswahl
 1607                   ;		00 = Eingabe Kanal 0 = Tastatur
 1608                   ;		01 = Ausgabe Kanal 0 = Bildschirm
 1609                   ;		02 = Eingabe Kanal 1 = Kassette
 1610                   ;		03 = Ausgabe Kanal 1 = Kassette
 1611                   ;		04 = Eingabe Kanal 2 = Anwenderkanal 1
 1612                   ;		05 = Ausgabe Kanal 2 = Anwenderkanal 1
 1613                   ;		06 = Eingabe Kanal 3 = Anwenderkanal 2
 1614                   ;		07 = Ausgabe Kanal 3 = Anwenderkanal 2
 1615                   ;	Bit 3	Init = Datei oeffnen
 1616                   ;	Bit 4	BIT8 - ungenutzt?
 1617                   ;	Bit 5	Ruecksprung zu CAOS (BYE)
 1618                   ;	Bit 6	Close = Datei schliessen
 1619                   ;	Bit 7	Abfrage Tastaturstatus
 1620                   ;	HL	Zeiger, bei Init beginnt Dateiname 2 Byte danach
 1621                   ;	D	Datenbyte bei Ausgabe
 1622                   ; PA:	A	Datenbyte bei Eingabe
 1623                   ;	E	Steuerbyte
 1624                   ;	Bit 3	nach Init zurueckgesetzt
 1625                   ;	Bit 7	Tastaturstatus 0=Taste gedrueckt
 1626                   ; VR:	AF, DE
 1627                   
 1628 F876  E5          BASPV:	PUSH	HL		; HL sichern (Dateiname)
 1629 F877  C5          	PUSH	BC		; BC sichern
 1630 F878  CD F06B     	CALL	IRMON		; IRM ein und System-SP setzen
 1631 F87B  CB 6B       	BIT	5,E
 1632 F87D  C2 F254     	JP	NZ,BASBYE	; BYE -> BASIC-ROM aus -> CAOS
 1633 F880  D5          	PUSH	DE		; E = Steuerbyte
 1634 F881  23          	INC	HL
 1635 F882  23          	INC	HL
 1636 F883  CB 7B       	BIT	7,E
 1637 F885  20 56       	JR	NZ,BSA2		; Tastaturstatus
 1638 F887  E5          	PUSH	HL
 1639 F888  7B          	LD	A,E		; Kanalnummer
 1640 F889  E6 07       	AND	7		; 0-3
 1641 F88B  21 EDF7     	LD	HL,BUPTAB	; Tabelle der Unterprogramme
 1642 F88E  85          	ADD	A,L
 1643 F88F  6F          	LD	L,A
 1644 F890  7A          	LD	A,D		; Parameter
 1645 F891  53          	LD	D,E		; Steuerbyte
 1646 F892  5E          	LD	E,(HL)		; UP-Nummer
 1647 F893  E1          	POP	HL		; Dateiname
 1648 F894  CD F055     	CALL	PV3		; Aufruf (UP-Nr. in E)
 1649 F897  D1          	POP	DE		; E = Steuerbyte
 1650 F898  57          	LD	D,A		; D = Ausgabeparameter
 1651 F899  30 0D       	JR	NC,BSA0		; kein Fehler
 1652 F89B  7B          	LD	A,E		; Steuerbyte
 1653 F89C  E6 06       	AND	6		; Kanalgruppe ausfiltern
SLR180 SuperFast Relocating Macro Assembler     			    SLR180 1.31 Page 168
CF48    INC

 1654 F89E  FE 02       	CP	2		; MBIN/MBOUT?
 1655 F8A0  20 06       	JR	NZ,BSA0		; bei allen anderen Kanaelen CY uninteressant
 1656                   
 1657                   ; Sprung zu BASIC: ?IO ERROR
 1658 F8A2  CD F088     BD2:	CALL	IRMOF		; IRM aus
 1659 F8A5  C3 DC82     	JP	IOERR		; Sprung zu Fehler-Routine in den BASIC-ROM
 1660                   
 1661 F8A8  7B          BSA0:	LD	A,E		; Steuerbyte
 1662 F8A9  E6 4F       	AND	4FH		; Kanalnummer und Close-Bit ausfiltern
 1663 F8AB  EE 43       	XOR	43H		; Close bei Kassettenausgabe?
 1664 F8AD  20 25       	JR	NZ,BSA1
 1665 F8AF  CD ED6D     	CALL	DEV		; DEVICE=Kassette?
 1666 F8B2  20 20       	JR	NZ,BSA1		; VERIFY nur bei TAPE ausfuehren
 1667 F8B4  CD F0B4     	CALL	OSTR
 1668 F8B7  56 45 52 49 	DB	'VERIFY ?(Y):',0
 1669 F8C4  CD F3DB     	CALL	KBD
 1670 F8C7  CD E391     	CALL	CSTBT		; anzeigen, was eingegeben wurde
 1671 F8CA  F5          	PUSH	AF
 1672 F8CB  CD F4C4     	CALL	CRLF		; auf neue Zeile wechseln
 1673 F8CE  F1          	POP	AF
 1674 F8CF  FE 59       	CP	'Y'
 1675 F8D1  CC F6C4     	CALL	Z,VERIF		; bei "Y" VERIFY ausfuehren
 1676 F8D4  7A          BSA1:	LD	A,D		; Ausgabeparameter
 1677 F8D5  CB 9B       	RES	3,E		; Init ruecksetzen
 1678 F8D7  CD F088     	CALL	IRMOF		; IRM aus und BASIC-SP wiederherstellen
 1679 F8DA  C1          	POP	BC		; BC regenerieren
 1680 F8DB  E1          	POP	HL		; HL regenerieren
 1681 F8DC  C9          	RET
 1682                   	;
 1683 F8DD  CD E37D     BSA2:	CALL	KBDS		; Tastaturstatusabfrage
 1684 F8E0  D1          	POP	DE
 1685 F8E1  57          	LD	D,A		; Zeichencode in D zurueck geben
 1686 F8E2  30 F0       	JR	NC,BSA1		; keine Taste gedrueckt
 1687 F8E4  CB BB       	RES	7,E		; Rueckmeldung, dass Taste gedrueckt wurde
 1688 F8E6  18 EC       	JR	BSA1
 1689                   
 1690                   
 1691 F8E8  CD F3BB     ZKOUT0:	CALL	OCHR
 1692                   ;_____________________________________________________________
 1693                   ;							**45**
 1694 F8EB  7E          ZKOUT:	LD	A,(HL)
 1695 F8EC  23          	INC	HL
 1696 F8ED  A7          	AND	A
 1697 F8EE  20 F8       	JR	NZ,ZKOUT0
 1698 F8F0  C9          	RET
 1699                   ;_____________________________________________________________
 1700                   ;							**35**
 1701                   ; Tonausgabe
 1702                   ;
 1703                   ; (ARG1) => HL	L = Tonhoehe 1 (ZK fuer CTC 0, 0=kein Ton)
 1704                   ;		H = Vorteiler 1 (0, 1)
 1705                   ; (ARG2) => DE	E = Tonhoehe 2 (ZK fuer CTC 1, 0=kein Ton)
 1706                   ;		D = Vorteiler 2 (0, 1)
 1707                   ; (ARG3) => BC	C = Lautstaerke in 2er-Schritten (0 ... 1FH)
 1708                   ;		B = Tondauer in 20ms-Schritten (0 ... FFH)
 1709                   ;		    bzw. 0 = Dauerton)
 1710                   
 1711 F8F1  CD F5F4     TON:	CALL	LARG		; Argumente laden
SLR180 SuperFast Relocating Macro Assembler     			    SLR180 1.31 Page 169
CF48    INC

 1712 F8F4  DD CB 08 4E TON1:	BIT	1,(IX+8)	; noch alter Ton?
 1713 F8F8  20 FA       	JR	NZ,TON1		; warten
 1714                   ; hier Einsprung von Beep und Click:
 1715 F8FA  79          TON2:	LD	A,C		; Lautstaerke
 1716 F8FB  E6 1E       	AND	00011110b	; maskieren (Bit 1-4)
 1717 F8FD  EE 9F       	XOR	10011111b	; Komplement da nullaktiv
 1718 F8FF  4F          	LD	C,A
 1719 F900  78          	LD	A,B		; Tondauer
 1720 F901  A7          	AND	A		; 0=Dauerton?
 1721 F902  F3          	DI
 1722 F903  28 0D       	JR	Z,TON3		; ja, keine CTC2 starten
 1723 F905  CB B9       	RES	7,C		; nein, Blinken aus
 1724 F907  DD CB 08 CE 	SET	1,(IX+8)	; neuer Ton
 1725 F90B  3E C7       	LD	A,11000111b	; EI, Zaehler 50Hz
 1726 F90D  D3 8E       	OUT	(CTC2),A	; CTC2
 1727 F90F  78          	LD	A,B		; Dauer
 1728 F910  D3 8E       	OUT	(CTC2),A
 1729 F912  DB 89       TON3:	IN	A,(PIOBD)
 1730 F914  E6 60       	AND	01100000b	; RAM8 maskieren
 1731 F916  B1          	OR	C		; Lautstaerke einbauen
 1732 F917  D3 89       	OUT	(PIOBD),A	; Lautstaerke ausgeben
 1733 F919  FB          	EI
 1734                   
 1735                   ; 01.05.2021 (nach Idee von Frank Ludwig)
 1736                   ; Kanal 1 wird mit 90 Grad Phasenverschiebung programmiert, damit die
 1737                   ; Tonausgabe bei gleichen Parametern fuer Kanal 0 und 1 besser klingt
 1738                   
 1739 F91A  01 038C     	LD	BC,0300h+CTC0	; B=Steuerbyte "Kanal Reset"
 1740 F91D  7D          	LD	A,L		; Tonhoehe 1
 1741 F91E  CD F925       	CALL	TON4		; Tonkanal 1 starten (CY ist 0)
 1742 F921  0C          	INC	C		; CTC1
 1743 F922  EB          	EX	DE,HL		; Tonkanal 2 starten
 1744 F923  7D          	LD	A,L		; Tonhoehe 2
 1745 F924  1F          	RRA			; halbe ZK fuer 90Grad Phasenverschiebung
 1746 F925  ED 41       TON4:	OUT	(C),B		; CTC-Kanal anhalten
 1747 F927  CE 00       	ADC	0		; +CY um ZK=1 zu beruecksichtigen
 1748 F929  C8          	RET	Z		; kein Ton (ZK=0)
 1749 F92A  CB 3C       	SRL	H		; Bit 0 (Vorteiler) nach CY
 1750 F92C  67          	LD	H,A		; ZK fuer Phasenverschiebung nach H
 1751 F92D  3E 28       	LD	A,00101000b	; Steuerbyte "Zeitgeber" vor 3x RRA
 1752 F92F  1F          	RRA			;   (ohne Kanal Reset)
 1753 F930  1F          	RRA			; Vorteiler nach Bit 5 rotieren
 1754 F931  1F          	RRA
 1755 F932  F3          	DI
 1756 F933  ED 79       	OUT	(C),A		; CTC als Zeitgeber starten
 1757 F935  ED 61       	OUT	(C),H		; bei CTC1 ZK fuer Phasenverschiebung ausgeben		
 1758 F937  ED 79       	OUT	(C),A		; CTC nochmals mit echter ZK programmieren
 1759 F939  FB          	EI			; Interrupts wieder ein nach letztem OUT
 1760 F93A  ED 69       	OUT	(C),L		; jetzt volle ZK nach ersten Nulldurchgang
 1761 F93C  C9          	RET
 1762                   
 1763                   ; ESC-Funktionen:
 1764                   
 1765 F93D  21 B7A2     ESCPRG:	LD	HL,STBT		; ShSTOP
 1766 F940  CB E6       	SET	4,(HL)		; Kennung, dass ESC-Funktion folgt
 1767 F942  C9          	RET
 1768                   
 1769 F943  01 B200     ESC1:	LD	BC,VRAM0+00H	; 0B200H
SLR180 SuperFast Relocating Macro Assembler     			    SLR180 1.31 Page 170
CF48    INC

 1770 F946  18 0D       	JR	ESCVR
 1771                   
 1772 F948  01 AD05     ESC2:	LD	BC,VRAM1+05H	; 0AD05H
 1773 F94B  18 08       	JR	ESCVR
 1774                   
 1775 F94D  01 AD04     ESC3:	LD	BC,VRAM1+04H	; 0AD04H
 1776 F950  18 03       	JR	ESCVR
 1777                   
 1778 F952  01 B201     ESC4:	LD	BC,VRAM0+01H	; 0B201H
 1779 F955  60          ESCVR:	LD	H,B
 1780 F956  2E 00       	LD	L,0
 1781 F958  22 B7CB     	LD	(VRAM),HL
 1782                   
 1783                   ; 08.08.2020: Beim Bildwechsel die Fenster- und Cursorposition merken
 1784                   ;	( Idee von Tim Hennig am 25.07.2020 )
 1785                   
 1786 F95B  3A B7A2     	LD	A,(STBT)	; Bit 7 gesetzt, wenn 2 Monitore
 1787 F95E  07          	RLCA			; Bit 7 -> CY
 1788 F95F  30 1D       	JR	NC,NOBW		; nein, 2 Bilder (KC85/4-Modus)
 1789                   
 1790 F961  DD 7E 01    	LD	A,(IX+1)	; Istzustand
 1791 F964  A9          	XOR	C		; Sollzustand
 1792 F965  CB 57       	BIT	2,A		; Wechsel Bild-Zugriff?
 1793 F967  28 15       	JR	Z,NOBW		; nein
 1794 F969  21 B79B     	LD	HL,WINNR	; B79B
 1795 F96C  11 AADD     	LD	DE,WIN2		; Tauschbereich	
 1796 F96F  06 0B       	LD	B,CCTL0-WINNR	; 11 Byte (Fensternummer + Fenstervektor)
 1797 F971  1A          SWAP:	LD	A,(DE)
 1798 F972  ED A0       	LDI
 1799 F974  03          	INC	BC		; BC korrigieren
 1800 F975  2B          	DEC	HL
 1801 F976  77          	LD	(HL),A
 1802 F977  23          	INC	HL
 1803 F978  10 F7       	DJNZ	SWAP
 1804 F97A  ED 5B B7A0  	LD	DE,(CURSO)	; gespeicherte Cursor-Position
 1805                   
 1806 F97E  06 FA       NOBW:	LD	B,0FAH		; Maske
 1807 F980  78          AXO84:	LD	A,B		; AND/XOR/OUT84
 1808                   ;	DI			; Befehl von CAOS 4.3 bis 4.7 zusaetzlich
 1809 F981  DD A6 01    	AND	(IX+1)
 1810 F984  A9          	XOR	C
 1811 F985  DD 77 01    OUT84:	LD	(IX+1),A
 1812 F988  D3 84       	OUT	(PORT1),A
 1813                   ;	EI			; Befehl von CAOS 4.3 bis 4.7 zusaetzlich
 1814 F98A  C9          	RET
 1815                   ;
 1816                   ; Umschaltung Grafikmode mit ESC-G
 1817                   ;
 1818 F98B  0E 80       ESCG:	LD	C,10000000b	; 2-Monitor-Bit ein/aus
 1819 F98D  21          	DB	21H	; LD HL,nn
 1820                   
 1821 F98E  0E 20       ESCC:	LD	C,00100000b	; IBM <-> CAOS
 1822 F990  21          	DB	21H	; LD HL,nn
 1823                   
 1824 F991  0E 04       ESC7:	LD	C,00000100b	; Invers-Bit
 1825 F993  21 B7A2     XORSTB:	LD	HL,STBT
 1826 F996  7E          	LD	A,(HL)
 1827 F997  A9          	XOR	C
SLR180 SuperFast Relocating Macro Assembler     			    SLR180 1.31 Page 171
CF48    INC

 1828 F998  77          	LD	(HL),A
 1829 F999  C9          	RET
 1830                   
 1831 F99A              ESC9:	;DI			; Befehl von CAOS 4.3 bis 4.7 zusaetzlich
 1832 F99A  DD 7E 01    	LD	A,(IX+1)	; VR: A
 1833 F99D  EE 02       	XOR	2
 1834 F99F  18 E4       	JR	OUT84		; BC unveraendert
 1835                   
 1836 F9A1  21 B7A2     ESCA:	LD	HL,STBT
 1837 F9A4  CB B6       	RES	6,(HL)		; HRG aus
 1838 F9A6  01 FF08     ESCAB:	LD	BC,0FF08h
 1839 F9A9  CD F980     	CALL	AXO84
 1840 F9AC  A1          	AND	C
 1841 F9AD  80          	ADD	A,B		; CY = Bit 3
 1842 F9AE  F3          	DI			; Befehl ab CAOS 4.5 zusaetzlich
 1843 F9AF  DB 89       	IN	A,(PIOBD)
 1844 F9B1  17          	RLA			; als Bit 0 einschieben
 1845 F9B2  0F          	RRCA			; auf Bit 7 rotieren
 1846 F9B3  D3 89       	OUT	(PIOBD),A
 1847 F9B5  FB          	EI			; Befehl ab CAOS 4.5 zusaetzlich
 1848 F9B6  C9          	RET
 1849                   
 1850 F9B7  21 B7A2     ESCB:	LD	HL,STBT
 1851 F9BA  CB F6       	SET	6,(HL)		; HRG ein
 1852 F9BC  18 E8       	JR	ESCAB
 1853                   
 1854                   ; Druckerinitialisierung V.24 oder Centronics:
 1855 F9BE  7F7F        LST7F:	DW	7F7FH
 1856 F9C0  4C 53 54 44 	DB	'LSTDEV'
 1857 F9C6  01          	DB	1
 1858                   ;_____________________________________________________________
 1859                   ;							**47**
 1860                   ; PE:	(ARGN) - Anzahl der Argumente (0 bis 5)
 1861                   ;	(ARG1)	Modulschacht des zu nutzenden Moduls
 1862                   ;	(ARG2)	Kanal des V.24-Moduls (1/2)
 1863                   ;	(ARG3)	USER-Ausgabekanal (2/3)
 1864                   ;	(ARG4)	Reaktion auf SHIFT CLEAR
 1865                   ;	(ARG5)	Druckertyp
 1866                   ; PA:	-
 1867                   ; VR:	AF, BC, DE, HL
 1868                   ;
 1869 F9C7  01 C8DD     V24OUT:	LD	BC,LSTC		; Druckerinitialisierung
 1870 F9CA  C3 FB84     	JP	CLROMC		; im ROM-C ausfuehren
 1871                   
 1872                   ; Duplexroutine
 1873                   
 1874 F9CD  7F7F        V24D7F:	DW	7F7FH
 1875 F9CF  56 32 34 44 	DB	'V24DUP'
 1876 F9D5  01          	DB	1
 1877                   ;_____________________________________________________________
 1878                   ;							**48**
 1879                   ; PE:	(ARGN)	Anzahl der Argumente (0 oder 3)
 1880                   ;	(ARG1)	Modulschacht V.24-Moduls (8, C ...)
 1881                   ;	(ARG2)	Kanal des V.24-Moduls (1/2)
 1882                   ;	(ARG3)	USER-Aus/Eingabekanal (2/3)
 1883                   ; PA:	-
 1884                   ; VR:	AF, BC, DE, HL
 1885                   ;
SLR180 SuperFast Relocating Macro Assembler     			    SLR180 1.31 Page 172
CF48    INC

 1886 F9D6  01 C9BE     V24DUP:	LD	BC,V24DC	; Duplex-Initialisierung
 1887 F9D9  CD FB84     	CALL	CLROMC		; im ROM-C ausfuehren
 1888 F9DC  DC F4BA     	CALL	C,ERRM		; Fehler
 1889 F9DF  C9          	RET
 1890                   
 1891                   ; Druckroutine mit Protokoll
 1892                   
 1893 F9E0  CD E0AC     ECHO:	CALL	CRT		; Zeichen auf Bildschirm anzeigen
 1894 F9E3  DD CB 04 7E PRINT:	BIT	7,(IX+4)	; CAOS-C bereits ein?
 1895 F9E7  C2 CA50     	JP	NZ,PRINTC	; direkt zur Druckausgabe
 1896 F9EA  C5          	PUSH	BC
 1897 F9EB  01 CA50     	LD	BC,PRINTC	; Druckroutine
 1898 F9EE  CD FB84     	CALL	CLROMC		; im ROM-C ausfuehren
 1899 F9F1  C1          	POP	BC
 1900 F9F2  C9          	RET
 1901                   
 1902                   ; Druckroutine fuer M001:			17 Byte
 1903                   ;
 1904                   ; PE:	A	Zeichen
 1905                   ; VR:	-
 1906                   
 1907 F9F3  C5          M001PR:	PUSH	BC
 1908 F9F4  F5          	PUSH	AF
 1909 F9F5  0E 05       	LD	C,05h		; M001 PIO Port B (Steuersignale)
 1910 F9F7  ED 40       CBUSY1:	IN	B,(C)
 1911 F9F9  CB 50       	BIT	2,B		; BUSY?
 1912 F9FB  20 FA       	JR	NZ,CBUSY1
 1913 F9FD  06 01       	LD	B,00000001b	; Bit 0 = Strobe
 1914 F9FF  F3          	DI			; DI wegen Joysticktreiber
 1915 FA00  D3 04       	OUT	(04h),A		; M001 PIO Port A (Daten)
 1916 FA02  18 0F       	JR	CSTROB
 1917                    
 1918                   ; Druckroutine fuer M021:
 1919                   ;
 1920                   ; PE:	A	Zeichen
 1921                   ; VR:	-
 1922                   
 1923 FA04  C5          M021PR:	PUSH	BC
 1924 FA05  F5          	PUSH	AF
 1925 FA06  0E 90       	LD	C,90h		; M021 PIO Port A (Steuersignale)
 1926 FA08  ED 40       CBUSY2:	IN	B,(C)
 1927 FA0A  CB 70       	BIT	6,B		; BUSY?
 1928 FA0C  20 FA       	JR	NZ,CBUSY2
 1929 FA0E  06 80       	LD	B,10000000b	; Bit 7 = Strobe
 1930 FA10  F3          	DI			; DI wegen Joysticktreiber
 1931 FA11  D3 91       	OUT	(91h),A		; M021 PIO Port B (Daten)
 1932 FA13  AF          CSTROB:	XOR	A		; Strobe-Impuls aktiv
 1933 FA14  ED 79       	OUT	(C),A		; war vorher ED 71 = OUT (C),0
 1934 FA16  FB          	EI			; (erst nach naechstem Befehl)
 1935 FA17  ED 41       	OUT	(C),B		; Strobe-Impuls passiv
 1936 FA19  F1          	POP	AF
 1937 FA1A  C1          	POP	BC
 1938 FA1B  C9          	RET
 1939                   
 1940                   ; Druckroutine fuer V.24:
 1941                   ;
 1942                   ; PE:	A	Zeichen
 1943                   ; VR:	-
SLR180 SuperFast Relocating Macro Assembler     			    SLR180 1.31 Page 173
CF48    INC

 1944                   
 1945 FA1C  C5          V24PR:	PUSH	BC
 1946 FA1D  F5          	PUSH	AF
 1947 FA1E  CD FA73     	CALL	LCSO		; SIO-Offset fuer V24OUT ermitteln
 1948 FA21  C6 0A       V24PR0:	ADD	A,0Ah		; SIO-Steuerport
 1949 FA23  4F          	LD	C,A
 1950 FA24  ED 78       V24PR1:	IN	A,(C)
 1951 FA26  E6 04       	AND	00000100b	; bereit?
 1952 FA28  28 FA       	JR	Z,V24PR1	; nein, warten
 1953                   	;
 1954 FA2A  0D          V24PR2:	DEC	C
 1955 FA2B  0D          	DEC	C		; SIO-Datenport
 1956 FA2C  F1          	POP	AF
 1957 FA2D  ED 79       	OUT	(C),A		; Ausgabe
 1958 FA2F  C1          	POP	BC
 1959 FA30  C9          	RET
 1960                   
 1961                   ; Ausgabe V.24-Duplex:
 1962                   ;
 1963                   ; PE:	A	Zeichen
 1964                   ; VR:	-
 1965                   ;
 1966 FA31  C5          V24OT:	PUSH	BC
 1967 FA32  F5          	PUSH	AF
 1968 FA33  CD FA7B     	CALL	LCSOD		; SIO-Offset fuer V24DUP ermitteln
 1969 FA36  18 E9       	JR	V24PR0
 1970                   
 1971                   ; Eingabe V.24-Duplex (Interrupt):
 1972                   ;
 1973                   ; PA:	A	Zeichen
 1974                   ;	CY	Status (1 = BRK, 0 = Zeichen gueltig)
 1975                   ; VR:	AF
 1976                   ;
 1977 FA38  3E EE       V24I:	LD	A,11101110b	; Steuerbyte fuer Interrupt-Betrieb
 1978 FA3A  18 03       	JR	V24IN0
 1979                   
 1980                   ; Eingabe V.24-Duplex (Polling):
 1981                   ;
 1982                   ; PA:	A	Zeichen
 1983                   ;	CY	Status (1 = BRK, 0 = Zeichen gueltig)
 1984                   ; VR:	AF
 1985                   ;
 1986 FA3C  3A B7E8     V24IN:	LD	A,(HCPZ2)
 1987 FA3F  C5          V24IN0:	PUSH	BC
 1988 FA40  D5          	PUSH	DE
 1989 FA41  57          	LD	D,A		; Steuerbyte
 1990 FA42  E6 04       	AND	00000100b	; Kanal A oder B?
 1991 FA44  0F          	RRCA
 1992 FA45  0F          	RRCA
 1993 FA46  C6 0A       	ADD	A,0Ah		; SIO-Steuerport
 1994 FA48  4F          	LD	C,A
 1995 FA49  3E 68       	LD	A,01101000b	; Sendeeinstellungen
 1996 FA4B  A2          	AND	D
 1997 FA4C  5F          	LD	E,A
 1998 FA4D  ED 78       V24IN1:	IN	A,(C)
 1999 FA4F  E6 01       	AND	00000001b	; CY=0, Daten abholbereit?
 2000 FA51  3E 05       	LD	A,5		; WR5 auswaehlen
 2001 FA53  F3          	DI			; Interrupts waehrend I/O-Sequenz sperren
SLR180 SuperFast Relocating Macro Assembler     			    SLR180 1.31 Page 174
CF48    INC

 2002 FA54  ED 79       	OUT	(C),A
 2003 FA56  20 0B       	JR	NZ,V24IN2
 2004 FA58  3E 82       	LD	A,10000010b	; DTR+RTS ein
 2005 FA5A  B3          	OR	E
 2006 FA5B  ED 79       	OUT	(C),A		; Senderfreigabe
 2007 FA5D  FB          	EI
 2008 FA5E  CD F664     	CALL	BRKT
 2009 FA61  30 EA       	JR	NC,V24IN1
 2010 FA63  ED 59       V24IN2:	OUT	(C),E		; DTR+RTS aus: Sender sperren
 2011 FA65  FB          	EI
 2012 FA66  38 08       	JR	C,V24IN3
 2013 FA68  0D          	DEC	C		; SIO-Datenport auswaehlen
 2014 FA69  0D          	DEC	C
 2015 FA6A  ED 40       	IN	B,(C)
 2016 FA6C  3E 7F       	LD	A,01111111b	; Maske fuer 7 Bit
 2017 FA6E  B2          	OR	D
 2018 FA6F  A0          	AND	B		; maskieren, CY=0
 2019 FA70  D1          V24IN3:	POP	DE
 2020 FA71  C1          	POP	BC
 2021 FA72  C9          	RET
 2022                   
 2023                   ; SIO-Offset fuer V24OUT
 2024                   ; PA: A (SIO-Offset)
 2025                   ; VR: AF
 2026 FA73  3A B7E1     LCSO:	LD	A,(HCPZ)
 2027 FA76  E6 04       LCSO1:	AND	00000100b	; Kanal A oder B?
 2028 FA78  0F          	RRCA
 2029 FA79  0F          	RRCA
 2030 FA7A  C9          	RET
 2031                   
 2032                   ; SIO-Offset fuer V24DUP
 2033 FA7B  3A B7E8     LCSOD:	LD	A,(HCPZ2)
 2034 FA7E  18 F6       	JR	LCSO1
 2035                   ;
 2036                   ; ISR SIO B (Empfangsinterrupt)
 2037                   ; fuer MC-Load, MC-Start, Umschaltung auf Fremdtastatur
 2038                   ;
 2039 FA80  E5          ISRSB:	PUSH	HL
 2040 FA81  D5          	PUSH	DE
 2041 FA82  C5          	PUSH	BC
 2042 FA83  F5          	PUSH	AF
 2043 FA84  21 A800     	LD	HL,V24PL	; Steckplatz M003
 2044 FA87  CD E39E     	CALL	IRMGET		; aus IRM lesen (Rueckkehr mit EI)
 2045 FA8A  47          	LD	B,A		; Steckplatz M003 holen
 2046 FA8B  0E 80       	LD	C,80h
 2047 FA8D  3E 01       	LD	A,1
 2048 FA8F  ED 79       	OUT	(C),A		; Modul einschalten
 2049 FA91  D9          	EXX			; auf Zweitregistersatz wechseln
 2050 FA92  D5          	 PUSH	DE		; DE' sichern
 2051 FA93  C5          	 PUSH	BC		; BC' sichern
 2052 FA94  DB 88       	 IN	A,(PIOAD)
 2053 FA96  47          	 LD	B,A		; Schaltzustand IRM in Register B' merken
 2054 FA97  DD 4E 04    	 LD	C,(IX+4)	; Schaltzustand CAOS-C  in Reg. C' merken
 2055                   	 SETIXA	7,4		; SET 7,(IX+4),A
    1 FA9A  DD CB 04    	 DB	0DDh,0CBh,4
    2 FA9D  FF          	 DB	7 SHL 3 OR 11000111b
 2056 FA9E  D3 86       	 OUT	(PORT2),A	; CAOS-C einschalten
 2057 FAA0  D9          	EXX
SLR180 SuperFast Relocating Macro Assembler     			    SLR180 1.31 Page 175
CF48    INC

 2058 FAA1  21 D84E     	LD	HL,V24POL
 2059 FAA4  F3          	DI
 2060 FAA5  DB 09       	IN	A,(9)		; empfangenes Zeichen von SIO abholen
 2061 FAA7  CD F54B     	CALL	INIEA		; DTR off
 2062 FAAA  CD E59A     	CALL	IRET		; EI; RETI
 2063                   
 2064 FAAD  FE 0D       	CP	CR		; Fremdtastatur?
 2065 FAAF  28 2B       	JR	Z,ISB2
 2066 FAB1  FE 1B       	CP	ESC		; MC-Programm?
 2067 FAB3  20 0A       	JR	NZ,ISB1
 2068                   
 2069 FAB5  CD FA38     	CALL	V24I		; Folgezeichen nach ESC abholen
 2070 FAB8  D6 54       	SUB	'T'		; ESC-T ?
 2071 FABA  28 2C       	JR	Z,ISB4		; -> MC laden
 2072 FABC  3D          	DEC	A		; ESC-U ?
 2073 FABD  28 72       	JR	Z,ISB6		; -> MC starten
 2074                   
 2075 FABF  26 B8       ISB1:	LD	H,HIGH(MODST)	; Modulsteuerbytespeicher
 2076 FAC1  68          	LD	L,B		; Steckplatz
 2077 FAC2  CD E39E     	CALL	IRMGET		; Schaltzustand vor ISR ermitteln
 2078 FAC5  21 D841     	LD	HL,V24INT	; SIO Kanal B wieder auf Interrupt einstellen
 2079 FAC8  0E 80       	LD	C,80h
 2080 FACA  F3          	DI
 2081 FACB  CD F54B     	CALL	INIEA		; initialisieren
 2082 FACE  ED 79       	OUT	(C),A		; M003-Schaltzustand wiederherstellen
 2083 FAD0  FB          	EI
 2084 FAD1  D9          	EXX
 2085 FAD2  79          	 LD	A,C
 2086 FAD3  CD E2A3     	 CALL	OUT86		; CAOS-C wie vor Interrupt
 2087 FAD6  C1          	 POP	BC		; BC' regenerieren
 2088 FAD7  D1          	 POP	DE		; DE' regenerieren
 2089 FAD8  D9          	EXX
 2090 FAD9  C3 E0B7     	JP	POP4		; POP	AF,BC,DE,HL   RET
 2091                   
 2092 FADC  F3          ISB2:	DI
 2093 FADD  DD 36 F2 AF 	LD	(IX-14),LOW(ISRT)	; neue Tastatur-ISR fuer SIO-B in
 2094 FAE1  DD 36 F3 E3 	LD	(IX-13),HIGH(ISRT)	; Interrupttabelle 01E2H+01E3H
 2095 FAE5  FB          	EI
 2096 FAE6  18 D7       	JR	ISB1
 2097                   ;
 2098                   ; MC laden (ESC-T, Adresse, Anzahl, Daten):
 2099                   ;
 2100 FAE8  21 B801     ISB4:	LD	HL,MODST+1	; IRM = internes Modul 1
 2101 FAEB  CD E39E     	CALL	IRMGET		; Modulsteuerwort holen
 2102 FAEE  E6 01       	AND	1
 2103 FAF0  07          	RLCA			; auf Bit 2 rotieren
 2104 FAF1  07          	RLCA
 2105 FAF2  D9          	EXX			; auf Zweitregistersatz wechseln
 2106 FAF3  57          	 LD	D,A
 2107 FAF4  3E 7B       	 LD	A,01111011b	; USER-C aus
 2108 FAF6  A0          	 AND	B		; gemerkte Schaltzustaende
 2109 FAF7  B2          	 OR	D		; gewuenschter IRM-Schaltzustand
 2110 FAF8  57          	 LD	D,A
 2111 FAF9  D9          	EXX
 2112                   	RESIXA	7,4		; RES 7,(IX+4),A
    1 FAFA  DD CB 04    	 DB	0DDh,0CBh,4
    2 FAFD  BF          	 DB	7 SHL 3 OR 10000111b
 2113 FAFE  D3 86       	OUT	(PORT2),A	; CAOS-C ausschalten
SLR180 SuperFast Relocating Macro Assembler     			    SLR180 1.31 Page 176
CF48    INC

 2114 FB00  CD FA38     	CALL	V24I
 2115 FB03  6F          	LD	L,A		; HL = Adresse
 2116 FB04  CD FA38     	CALL	V24I
 2117 FB07  67          	LD	H,A
 2118 FB08  CD FA38     	CALL	V24I
 2119 FB0B  5F          	LD	E,A		; DE = Anzahl Bytes
 2120 FB0C  CD FA38     	CALL	V24I
 2121 FB0F  57          	LD	D,A
 2122 FB10  CD FA38     ISB5:	CALL	V24I
 2123 FB13  38 14       	JR	C,ISB8		; Break
 2124 FB15  4F          	LD	C,A		; C = Datenbyte
 2125 FB16  D9          	EXX
 2126 FB17  7A          	 LD	A,D		; logischer IRM-Schaltzustand
 2127 FB18  D9          	EXX
 2128 FB19  F3          	DI
 2129 FB1A  D3 88       	OUT	(PIOAD),A	; USER-C aus und IRM schalten
 2130 FB1C  71          	LD	(HL),C		; Daten in Speicher poken
 2131 FB1D  D9          	EXX
 2132 FB1E  78          	 LD	A,B		; gemerkter IRM-Schaltzustand
 2133 FB1F  D3 88       	 OUT	(PIOAD),A	; USER-C und IRM wiederherstellen
 2134 FB21  FB          	 EI
 2135 FB22  D9          	EXX
 2136 FB23  23          	INC	HL
 2137 FB24  1B          	DEC	DE		; Zaehler verringern
 2138 FB25  7B          	LD	A,E
 2139 FB26  B2          	OR	D		; bis Anzahl=0
 2140 FB27  20 E7       	JR	NZ,ISB5
 2141 FB29              ISB8:	SETIXA	7,4		; SET 7,(IX+4),A
    1 FB29  DD CB 04    	 DB	0DDh,0CBh,4
    2 FB2C  FF          	 DB	7 SHL 3 OR 11000111b
 2142 FB2D  D3 86       	OUT	(PORT2),A	; CAOS-C einschalten
 2143 FB2F  18 8E       	JR	ISB1
 2144                   ;
 2145                   ; MC starten (ESC-U, Adresse):
 2146                   ;
 2147 FB31  CD FA38     ISB6:	CALL	V24I
 2148 FB34  5F          	LD	E,A		; DE = Startadresse
 2149 FB35  CD FA38     	CALL	V24I
 2150 FB38  57          	LD	D,A
 2151 FB39  21 D841     	LD	HL,V24INT	; SIO Kanal B wieder auf Interrupt einstellen
 2152 FB3C  D9          	EXX
 2153 FB3D  78          	 LD	A,B		; gemerkter IRM-Schaltzustand
 2154 FB3E  D9          	EXX
 2155 FB3F  F6 04       	OR	00000100b	; IRM einschalten
 2156 FB41  F3          	DI
 2157 FB42  CD F54B     	CALL	INIEA		; uminitialisieren
 2158 FB45  D3 88       	OUT	(PIOAD),A	; IRM schalten
 2159                   	RESIXA	7,4		; RES 7,(IX+4),A
    1 FB47  DD CB 04    	 DB	0DDh,0CBh,4
    2 FB4A  BF          	 DB	7 SHL 3 OR 10000111b
 2160 FB4B  D3 86       	OUT	(PORT2),A	; CAOS-C ausschalten
 2161 FB4D  ED 7B B7AE  	LD	SP,(SYSP)
 2162 FB51  26 B8       	LD	H,HIGH(MODST)	; Modulsteuerbytespeicher
 2163 FB53  68          	LD	L,B		; Steckplatz
 2164 FB54  7E          	LD	A,(HL)		; M003-Schaltzustand vor ISR ermitteln
 2165 FB55  ED 79       	OUT	(C),A		; und wiederherstellen
 2166 FB57  FB          	EI
 2167 FB58  21 F259     	LD	HL,LOOP		; Rueckkehradresse nach Programmaufruf
SLR180 SuperFast Relocating Macro Assembler     			    SLR180 1.31 Page 177
CF48    INC

 2168 FB5B  E5          	PUSH	HL
 2169 FB5C  EB          	EX	DE,HL
 2170 FB5D  E9          	JP	(HL)		; Programm jetzt starten
 2171                   
 2172                   ; fuer MODIC, FLOAD
 2173 FB5E  CD FB87     LDMAE:	CALL	COFF
 2174 FB61  F5          	PUSH	AF
 2175 FB62  3A B801     	LD	A,(MODST+1)
 2176 FB65  E6 01       	AND	1		; IRM off?
 2177 FB67  CC E047     	CALL	Z,SCROFF	; IRM aus falls erforderlich
 2178 FB6A  F1          	POP	AF
 2179 FB6B  77          	LD	(HL),A		; Byte eintragen
 2180 FB6C  18 0C       	JR	JCON
 2181                   
 2182                   ; Datenbyte holen (fuer DISPC, MODIC, FSAVE, view)
 2183 FB6E  CD FB87     LDAME:	CALL	COFF		; CAOS-C aus
 2184 FB71  3A B801     	LD	A,(MODST+1)
 2185 FB74  E6 01       	AND	1		; IRM aus?
 2186 FB76  CC E047     	CALL	Z,SCROFF	; IRM aus falls erforderlich
 2187 FB79  7E          	LD	A,(HL)		; Byte holen
 2188 FB7A  CD E050     JCON:	CALL	SCRON		; IRM wieder ein
 2189 FB7D  18 19       	JR	CON
 2190                   ;_____________________________________________________________
 2191                   ;							**31**
 2192                   ; CAOS-Arbeitsbereich verlagern
 2193                   ; PE:	A	HW-Teil der IX-Arbeitszellen
 2194                   
 2195 FB7F  01 C181     SIXD:	LD	BC,SIXC
 2196 FB82  18 00       	JR	CLROMC		; UP im CAOS-ROM C aufrufen
 2197                   ;-------------------------------------------------------------
 2198                   ; Aufruf eines UP im CAOS-ROMC
 2199                   ;  mit Einschalten des ROMC beim Aufruf
 2200                   ;  und ausschalten falls erforderlich beim Ruecksprung
 2201                   ; PE: BC=Adresse des UP im CAOS-ROMC
 2202                   
 2203                   ;CALLC:	EX	(SP),HL		; HL = Adresse der Routine
 2204                   ;	LD	C,(HL)
 2205                   ;	INC	HL		; PTR+1
 2206                   ;	LD	B,(HL)		; BC = CALL-Adresse
 2207                   ;	INC	HL		; PTR+2
 2208                   ;	EX	(SP),HL		; CALL-Adresse auf Stack	 HL  >ADR<
 2209 FB84  CD FB97     CLROMC:	CALL	CONBC
 2210                   ;
 2211                   ; CAOS-ROM-C ausschalten falls erforderlich:
 2212                   ; VR:	-
 2213                   ;
 2214 FB87  F5          COFF:	PUSH	AF
 2215 FB88  3A B805     	LD	A,(MODST+5)	; Schaltzustand Moduladresse 5
 2216 FB8B  E6 01       	AND	1
 2217 FB8D  20 06       	JR	NZ,CNSW		; bleibt ein!
 2218                   	RESIXA	7,4		; RES 7,(IX+4),A
    1 FB8F  DD CB 04    	 DB	0DDh,0CBh,4
    2 FB92  BF          	 DB	7 SHL 3 OR 10000111b
 2219 FB93  D3 86       CSW:	OUT	(PORT2),A
 2220 FB95  F1          CNSW:	POP	AF
 2221 FB96  C9          	RET
 2222                   ;
 2223                   ; CAOS-ROM-C einschalten:
SLR180 SuperFast Relocating Macro Assembler     			    SLR180 1.31 Page 178
CF48    INC

 2224                   ;
 2225 FB97  C5          CONBC:	PUSH	BC              ; Sprung in das durch BC adressierte UP
 2226 FB98  F5          CON:	PUSH	AF
 2227                   	SETIXA	7,4		; SET 7,(IX+4),A
    1 FB99  DD CB 04    	 DB	0DDh,0CBh,4
    2 FB9C  FF          	 DB	7 SHL 3 OR 11000111b
 2228 FB9D  18 F4       	JR	CSW
 2229                   ;_____________________________________________________________
 2230                   ;							**41**
 2231                   ; Berechnung des Produktes zweier 8-Bit-Zahlen
 2232                   ; PE:	D, C	Faktoren (8 Bit)
 2233                   ; PA:	BA	Produkt (16 Bit)
 2234                   ; VR:	AF,DE,B
 2235                   
 2236                   ; Multiplikation BA=C*D	
 2237 FB9F  AF          MULT:	XOR	A		; Startwert 0
 2238                   
 2239                   ; MULCA: BA=D*C+A 
 2240 FBA0  06 08       MULA:	LD	B,8		; 8 Bit Multiplikation/Rotation
 2241 FBA2  CB 1A       	RR	D
 2242 FBA4  30 01       MUL1:	JR	NC,MUL2		; Bit nicht gesetzt
 2243 FBA6  81          	ADD	A,C		; aufaddieren
 2244 FBA7  1F          MUL2:	RRA
 2245 FBA8  CB 1A       	RR	D		; jetzt 16 Bit rotieren
 2246 FBAA  10 F8       	DJNZ	MUL1		; und weiter addieren
 2247 FBAC  47          	LD	B,A		; Ergebnis in
 2248 FBAD  7A          	LD	A,D		; BA
 2249 FBAE  C9          	RET
 2250                   ;
 2251                   ; CAOS 4.6 - Geraeteumschaltung und Anzeige
 2252                   ; %DEVICE	Auflisten der installierten Treiber
 2253                   ; %DEVICE n	Umschaltung Geraet n (0..7)
 2254                   ;
 2255 FBAF  7F7F        	DW	7F7Fh
 2256 FBB1  44 45 56 49 	DB	'DEVICE',1
 2257 FBB8  A7          	AND	A		; Parameter angegeben?
 2258 FBB9  28 15       	JR	Z,DRLIST	; nein, Treiber auflisten
 2259 FBBB  7D          	LD	A,L
 2260 FBBC  FE 08       	CP	8
 2261 FBBE  D2 F4BA     	JP	NC,ERRM		; n>8
 2262 FBC1  CD FBD2     	CALL	SETDEV		; Treiber einstellen
 2263 FBC4  DA F4BA     	JP	C,ERRM		; Treiber nicht aktiv
 2264 FBC7  CD FBCD     	CALL	DEVANZ		; Ergebnis anzeigen
 2265 FBCA  C3 F4C4     	JP	CRLF
 2266                   
 2267                   ; Geraetecode in Bits 2-4 (IX+8) eintragen und Treiberadressen in SUTAB kopieren
 2268                   ; PE:	A	Geraetecode 0...7
 2269                   ;		0 = Kassette - Standard
 2270                   ;		1 = Diskette - D004/D008
 2271                   ;		2 = USB (M052)
 2272                   ;		3 = Netzwerk (M052)
 2273                   ;		4-7 noch nicht benutzt
 2274                   ;		8-FE	Name des aktuellen Treibers anzeigen
 2275                   ;		FF	alle Treiber auflisten
 2276                   ; PA:	CY=1	ausgewaehlter Treiber nicht aktiv
 2277                   ;	IX+8	Bit 2-4 entsprechend Treibernummer gesetzt
 2278                   ; VR:	AF,BC,DE,HL
 2279                   
SLR180 SuperFast Relocating Macro Assembler     			    SLR180 1.31 Page 179
CF48    INC

 2280 FBCD  3E FE       DEVANZ:	LD	A,0FEh		; aktuellen Treiber anzeigen
 2281 FBCF  21          	db	21h
 2282 FBD0  3E FF       DRLIST:	LD	A,0FFh		; Treiber auflisten
 2283                   ;_____________________________________________________________
 2284                   ;							**49**
 2285                   ; Geraetetreiber auswaehlen, abfragen oder anzeigen
 2286                   ; PE:	A 	0..7	- Auswahl Geraetetreiber Nr. 0-7
 2287                   ;		8	- aktuellen Treiber abfragen
 2288                   ;		9-FEH	- aktuellen Treibername anzeigen
 2289                   ;		FFH	- Auflisten aller Treiber
 2290                   ; PA:	CY=1	ausgewhlter Treiber nicht aktiv
 2291                   ;	bei CY=0	HL = Zeiger auf Treibername
 2292                   ;			Z=1 - Kassettentreiber
 2293                   ; VR:	AF,BC,DE,HL
 2294                   
 2295 FBD2  01 D5D5     SETDEV:	LD	BC,SET_DD	; Routine im ROM C/D aufrufen
 2296 FBD5  18 AD       	JR	CLROMC		; im ROM-C ausfuehren
 2297                   
 2298                   ; Verzeichnis anzeigen:
 2299                   
 2300 FBD7  7F7F        	DW	7F7FH
 2301 FBD9  44 49 52 20 	DB	'DIR '
 2302 FBDD  1F          	DB	1FH		; Textargument zulaessig (Maske in DE)
 2303 FBDE  CD E4E1     	CALL	PV7
 2304 FBE1  08          	DB	8
 2305 FBE2  C9          	RET
 2306                   
 2307                   ; Laufwerk wechseln:
 2308                   
 2309 FBE3  7F7F        	DW	7F7FH
 2310 FBE5  43 44 20    	DB	'CD '		; ersetzt bisheriges Menuewort DRIVE
 2311 FBE8  1F          	DB	1FH		; Textargument zulaessig (Verzeichnis)
 2312 FBE9  CD E4E1     	CALL	PV7
 2313 FBEC  09          	DB	9
 2314 FBED  C9          	RET
 2315                   
 2316                   ; Datei loeschen:
 2317                   
 2318 FBEE  7F7F        	DW	7F7FH
 2319 FBF0  45 52 41 20 	DB	'ERA '
 2320 FBF4  1F          	DB	1FH		; Textargument zulaessig (Dateiname)
 2321 FBF5  CD E4E1     	CALL	PV7
 2322 FBF8  0A          	DB	10
 2323 FBF9  C9          	RET
 2324                   
 2325                   ; Datei umbenennen:
 2326                   
 2327 FBFA  7F7F        	DW	7F7FH
 2328 FBFC  52 45 4E 20 	DB	'REN '
 2329 FC00  1F          	DB	1FH		; Textargument zulaessig (2 Dateinamen)
 2330 FC01  CD E4E1     	CALL	PV7
 2331 FC04  0B          	DB	11
 2332 FC05  C9          	RET
 2333                   
 2334                   ; ********	DEVICE-Routinen mit Modulschaltung aufrufen	********
 2335                   ;_____________________________________________________________
 2336                   ;							**01**
 2337                   ; Einen Block ausgeben:
SLR180 SuperFast Relocating Macro Assembler     			    SLR180 1.31 Page 180
CF48    INC

 2338                   ; PE:	BC	Laenge Vorton
 2339                   ;	(IX+2)	Block-Nr. -1
 2340                   ; PA:	DE=HL	Pufferende + 1
 2341                   ;	(IX+2)	Block-Nr.
 2342                   ; VR:	AF,BC,DE,HL
 2343                   
 2344 FC06  CD E4E1     MBO:	CALL	PV7
 2345 FC09  00          	DB	0
 2346 FC0A  C9          	RET
 2347                   ;_____________________________________________________________
 2348                   ;							**05**
 2349                   ; Einen Block einlesen:
 2350                   ; PE:	IX+5/6	Pufferadresse
 2351                   ; PA:	CY=1	Fehler
 2352                   ; VR:	AF,BC
 2353                   
 2354 FC0B  CD E4E1     MBI:	CALL	PV7
 2355 FC0E  01          	DB	1
 2356 FC0F  C9          	RET
 2357                   ;_____________________________________________________________
 2358                   ;							**08**
 2359                   ; Initialisierung Bandausgabe / Datei zum Schreiben oeffnen:
 2360                   ; PE:	Kassettenpuffer mit Daten des Vorblocks
 2361                   ;	HL	Dateiname
 2362                   ; PA:	CY=1	Fehler
 2363                   ; VR:	AF,BC,DE,HL
 2364                   
 2365 FC10  CD E4E1     ISRO:	CALL	PV7
 2366 FC13  02          	DB	2
 2367 FC14  C9          	RET
 2368                   ;_____________________________________________________________
 2369                   ;							**09**
 2370                   ; Abschluss Bandausgabe / Dateiausgabe schliessen:
 2371                   ; PE:	BC	Laenge Vorton
 2372                   ; PA:	CY=1	Fehler
 2373                   ; VR:	AF,BC,DE,HL
 2374                   
 2375 FC15  CD E4E1     CSRO:	CALL	PV7
 2376 FC18  03          	DB	3
 2377 FC19  C9          	RET
 2378                   ;_____________________________________________________________
 2379                   ;							**0A**
 2380                   ; Initialisierung Bandeingabe:
 2381                   ; (Datei zum Lesen oeffnen)
 2382                   ; PE:	HL	Dateiname
 2383                   ; PA:	CY=1	Fehler
 2384                   ; VR:	AF,BC
 2385                   
 2386 FC1A  CD E4E1     ISRI:	CALL	PV7
 2387 FC1D  04          	DB	4
 2388 FC1E  C9          	RET
 2389                   ;_____________________________________________________________
 2390                   ;							**0B**
 2391                   ; Abschluss Bandeingabe / Dateieingabe schliessen:
 2392                   ; PA:	CY=1	Fehler
 2393                   
 2394 FC1F  CD E4E1     CSRI:	CALL	PV7
 2395 FC22  05          	DB	5
SLR180 SuperFast Relocating Macro Assembler     			    SLR180 1.31 Page 181
CF48    INC

 2396 FC23  C9          	RET
 2397                   ;_____________________________________________________________
 2398                   ;							**14**
 2399                   ; Warteschleife ohne Interrupt
 2400                   ; PE:	A	Zeitwert t = (A) * 6 ms
 2401                   ; PA:	-
 2402                   ; VR:	AF, B
 2403                   
 2404 FC24  47          WAIT:	LD	B,A
 2405 FC25  AF          	XOR	A
 2406 FC26  CD E2C0     WAIT1:	CALL	WTUP		; 6ms-Zeitschleife
 2407 FC29  10 FB       	DJNZ	WAIT1
 2408 FC2B  C9          	RET
 2409                   ;
 2410                   ; Tastaturcodetabelle:
 2411                   ;				 Taste		Scancode:
 2412 FC2C  57 77       KTAB:	DB	'Ww'		;		00 01
 2413 FC2E  41 61       	DB	'Aa'		;		02 03
 2414 FC30  32 22       	DB	'2"'		;		04 05
 2415 FC32  08 19       	DB	8,19H		; CUL		06 07
 2416 FC34  10 0C       	DB	10H,0CH		; HOME		08 09
 2417 FC36  2D 3D       	DB	'-='		;		0A 0B
 2418 FC38  F2 F8       	DB	0F2H,0F8H	; F2		0C 0D
 2419 FC3A  59 79       	DB	'Yy'		;		0E 0F	
 2420 FC3C  45 65       	DB	'Ee'		;		10 11
 2421 FC3E  53 73       	DB	'Ss'		;		12 13
 2422 FC40  33 23       	DB	'3#'		;		14 15
 2423 FC42  5E 5D       	DB	'^]'		;		16 17
 2424 FC44  01 0F       	DB	1,0FH		; CLR		18 19
 2425 FC46  3A 2A       	DB	':*'		;		1A 1B
 2426 FC48  F3 F9       	DB	0F3H,0F9H	; F3		1C 1D
 2427 FC4A  58 78       	DB	'Xx'		;		1E 1F
 2428 FC4C  54 74       	DB	'Tt'		;		20 21
 2429 FC4E  46 66       	DB	'Ff'		;		22 23
 2430 FC50  35 25       	DB	'5%'		;		24 25
 2431 FC52  50 70       	DB	'Pp'		;		26 27
 2432 FC54  1F 02       	DB	1FH,2		; DEL		28 29
 2433 FC56  30 40       	DB	'0',40H		;		2A 2B
 2434 FC58  F5 FB       	DB	0F5H,0FBH	; F5		2C 2D
 2435 FC5A  56 76       	DB	'Vv'		;		2E 2F
 2436 FC5C  55 75       	DB	'Uu'		;		30 31
 2437 FC5E  48 68       	DB	'Hh'		;		32 33
 2438 FC60  37 27       	DB	'7',27H		; 7 / Apostroph	34 35
 2439 FC62  4F 6F       	DB	'Oo'		;		36 37
 2440 FC64  1A 14       	DB	1AH,14H		; INS		38 39
 2441 FC66  39 29       	DB	'9)'		;		3A 3B
 2442 FC68  03 04       	DB	3,4		; BRK		3C 3D
 2443 FC6A  4E 6E       	DB	'Nn'		;		3E 3F
 2444 FC6C  49 69       	DB	'Ii'		;		40 41
 2445 FC6E  4A 6A       	DB	'Jj'		;		42 43
 2446 FC70  38 28       	DB	'8('		;		44 45
 2447 FC72  20 5B       	DB	' ['		; SPC		46 47
 2448 FC74  4B 6B       	DB	'Kk'		;		48 49
 2449 FC76  2C 3C       	DB	',<'		;		4A 4B
 2450 FC78  13 1B       	DB	13H,ESC		; STOP		4C 4D
 2451 FC7A  4D 6D       	DB	'Mm'		;		4E 4F
 2452 FC7C  5A 7A       	DB	'Zz'		;		50 51
 2453 FC7E  47 67       	DB	'Gg'		;		52 53
SLR180 SuperFast Relocating Macro Assembler     			    SLR180 1.31 Page 182
CF48    INC

 2454 FC80  36 26       	DB	'6&'		;		54 55
 2455 FC82  1C 1D       	DB	1CH,1DH		; LIST/RUN	56 57
 2456 FC84  4C 6C       	DB	'Ll'		;		58 59
 2457 FC86  2E 3E       	DB	'.>'		;		5A 5B
 2458 FC88  F6 FC       	DB	0F6H,0FCH	; F6		5C 5D
 2459 FC8A  42 62       	DB	'Bb'		;		5E 5F
 2460 FC8C  52 72       	DB	'Rr'		;		60 61
 2461 FC8E  44 64       	DB	'Dd'		;		62 63
 2462 FC90  34 24       	DB	'4$'		;		64 65
 2463 FC92  5F 5C       	DB	'_\'		;		66 67
 2464 FC94  2B 3B       	DB	'+;'		;		68 69
 2465 FC96  2F 3F       	DB	'/?'		;		6A 6B
 2466 FC98  F4 FA       	DB	0F4H,0FAH	; F4		6C 6D
 2467 FC9A  43 63       	DB	'Cc'		;		6E 6F
 2468 FC9C  51 71       	DB	'Qq'		;		70 71
 2469 FC9E  16 05       	DB	16H,5		; CAPS		72 73
 2470 FCA0  31 21       	DB	'1!'		;		74 75
 2471 FCA2  0A 12       	DB	LF,12H		; CUD		76 77
 2472 FCA4  0B 11       	DB	0BH,11H		; CUU		78 79
 2473 FCA6  09 18       	DB	9,18H		; CUR		7A 7B
 2474 FCA8  F1 F7       	DB	0F1H,0F7H	; F1		7C 7D
 2475 FCAA  0D 0E       	DB	CR,0EH		; ENTER		7E 7F
 2476                   ;
 2477                   ; Steuercodetabelle:
 2478                   ;
 2479 FCAC  F4A4        CRTTAB:	DW	NOOP	; 00
 2480 FCAE  E21E        	DW	CLR	; 01
 2481 FCB0  E295        	DW	CLLN	; 02
 2482 FCB2  F4A4        	DW	NOOP	; 03=BRK
 2483 FCB4  F4A4        	DW	NOOP	; 04=Sh-BRK
 2484 FCB6  E1D7        	DW	ESC0	; 05=TAB
 2485 FCB8  F4A4        	DW	NOOP	; 06 (bei CAOS 3.3 invers)
 2486 FCBA  E2A9        	DW	BEEP	; 07
 2487 FCBC  E1FD        	DW	CUL	; 08
 2488 FCBE  E1E6        	DW	CUR	; 09
 2489 FCC0  E1EF        	DW	CUD	; 0A
 2490 FCC2  E20D        	DW	CUU	; 0B
 2491 FCC4  E273        	DW	CLS	; 0C
 2492 FCC6  E283        	DW	CBL	; 0D=Enter
 2493 FCC8  F4A4        	DW	NOOP	; 0E=Sh-Enter
 2494 FCCA  E1F9        	DW	HCOPY	; 0F
 2495 FCCC  E281        	DW	HOMEPG	; 10
 2496 FCCE  E212        	DW	PAGEM	; 11
 2497 FCD0  E219        	DW	SCROL	; 12
 2498 FCD2  F4A4        	DW	NOOP	; 13=STOP
 2499 FCD4  E2ED        	DW	CLICK	; 14
 2500 FCD6  F4A4        	DW	NOOP	; 15
 2501 FCD8  F4A4        	DW	NOOP	; 16=CAPS
 2502 FCDA  F4A4        	DW	NOOP	; 17
 2503 FCDC  E207        	DW	CEL	; 18
 2504 FCDE  E283        	DW	CBL	; 19
 2505 FCE0  E254        	DW	INS	; 1A
 2506 FCE2  F93D        	DW	ESCPRG	; 1B
 2507 FCE4  F4A4        	DW	NOOP	; 1C=LIST
 2508 FCE6  F4A4        	DW	NOOP	; 1D=RUN
 2509 FCE8  E1ED        	DW	NL	; 1E=CONT
 2510 FCEA  E221        	DW	DEL	; 1F
 2511                   ;
SLR180 SuperFast Relocating Macro Assembler     			    SLR180 1.31 Page 183
CF48    INC

 2512                   ; BASIC-Token	(Bit 7 im 1. Byte gesetzt!)
 2513                   ;
 2514 FCEC              TOKTAB:	TOKEN	INKEY$		; D5
    1 FCEC  C9          	  DB	'I' + Y
    1 FCED  4E          	  DB	'N' + Y
    1 FCEE  4B          	  DB	'K' + Y
    1 FCEF  45          	  DB	'E' + Y
    1 FCF0  59          	  DB	'Y' + Y
    1 FCF1  24          	  DB	'$' + Y
 2515                   	TOKEN	JOYST		; D6
    1 FCF2  CA          	  DB	'J' + Y
    1 FCF3  4F          	  DB	'O' + Y
    1 FCF4  59          	  DB	'Y' + Y
    1 FCF5  53          	  DB	'S' + Y
    1 FCF6  54          	  DB	'T' + Y
 2516                   	TOKEN	STRING$		; D7
    1 FCF7  D3          	  DB	'S' + Y
    1 FCF8  54          	  DB	'T' + Y
    1 FCF9  52          	  DB	'R' + Y
    1 FCFA  49          	  DB	'I' + Y
    1 FCFB  4E          	  DB	'N' + Y
    1 FCFC  47          	  DB	'G' + Y
    1 FCFD  24          	  DB	'$' + Y
 2517                   	TOKEN	INSTR		; D8
    1 FCFE  C9          	  DB	'I' + Y
    1 FCFF  4E          	  DB	'N' + Y
    1 FD00  53          	  DB	'S' + Y
    1 FD01  54          	  DB	'T' + Y
    1 FD02  52          	  DB	'R' + Y
 2518                   	TOKEN	RENUMBER	; D9
    1 FD03  D2          	  DB	'R' + Y
    1 FD04  45          	  DB	'E' + Y
    1 FD05  4E          	  DB	'N' + Y
    1 FD06  55          	  DB	'U' + Y
    1 FD07  4D          	  DB	'M' + Y
    1 FD08  42          	  DB	'B' + Y
    1 FD09  45          	  DB	'E' + Y
    1 FD0A  52          	  DB	'R' + Y
 2519                   	TOKEN	DELETE		; DA
    1 FD0B  C4          	  DB	'D' + Y
    1 FD0C  45          	  DB	'E' + Y
    1 FD0D  4C          	  DB	'L' + Y
    1 FD0E  45          	  DB	'E' + Y
    1 FD0F  54          	  DB	'T' + Y
    1 FD10  45          	  DB	'E' + Y
 2520                   	TOKEN	PAUSE		; DB
    1 FD11  D0          	  DB	'P' + Y
    1 FD12  41          	  DB	'A' + Y
    1 FD13  55          	  DB	'U' + Y
    1 FD14  53          	  DB	'S' + Y
    1 FD15  45          	  DB	'E' + Y
 2521                   	TOKEN	BEEP		; DC
    1 FD16  C2          	  DB	'B' + Y
    1 FD17  45          	  DB	'E' + Y
    1 FD18  45          	  DB	'E' + Y
    1 FD19  50          	  DB	'P' + Y
 2522                   	TOKEN	WINDOW		; DD
    1 FD1A  D7          	  DB	'W' + Y
SLR180 SuperFast Relocating Macro Assembler     			    SLR180 1.31 Page 184
CF48    INC

    1 FD1B  49          	  DB	'I' + Y
    1 FD1C  4E          	  DB	'N' + Y
    1 FD1D  44          	  DB	'D' + Y
    1 FD1E  4F          	  DB	'O' + Y
    1 FD1F  57          	  DB	'W' + Y
 2523                   	TOKEN	BORDER		; DE
    1 FD20  C2          	  DB	'B' + Y
    1 FD21  4F          	  DB	'O' + Y
    1 FD22  52          	  DB	'R' + Y
    1 FD23  44          	  DB	'D' + Y
    1 FD24  45          	  DB	'E' + Y
    1 FD25  52          	  DB	'R' + Y
 2524                   	TOKEN	INK		; DF
    1 FD26  C9          	  DB	'I' + Y
    1 FD27  4E          	  DB	'N' + Y
    1 FD28  4B          	  DB	'K' + Y
 2525                   	TOKEN	PAPER		; E0
    1 FD29  D0          	  DB	'P' + Y
    1 FD2A  41          	  DB	'A' + Y
    1 FD2B  50          	  DB	'P' + Y
    1 FD2C  45          	  DB	'E' + Y
    1 FD2D  52          	  DB	'R' + Y
 2526                   	TOKEN	AT		; E1
    1 FD2E  C1          	  DB	'A' + Y
    1 FD2F  54          	  DB	'T' + Y
 2527                   	TOKEN	COLOR		; E2
    1 FD30  C3          	  DB	'C' + Y
    1 FD31  4F          	  DB	'O' + Y
    1 FD32  4C          	  DB	'L' + Y
    1 FD33  4F          	  DB	'O' + Y
    1 FD34  52          	  DB	'R' + Y
 2528                   	TOKEN	SOUND		; E3
    1 FD35  D3          	  DB	'S' + Y
    1 FD36  4F          	  DB	'O' + Y
    1 FD37  55          	  DB	'U' + Y
    1 FD38  4E          	  DB	'N' + Y
    1 FD39  44          	  DB	'D' + Y
 2529                   	TOKEN	PSET		; E4
    1 FD3A  D0          	  DB	'P' + Y
    1 FD3B  53          	  DB	'S' + Y
    1 FD3C  45          	  DB	'E' + Y
    1 FD3D  54          	  DB	'T' + Y
 2530                   	TOKEN	PRESET		; E5
    1 FD3E  D0          	  DB	'P' + Y
    1 FD3F  52          	  DB	'R' + Y
    1 FD40  45          	  DB	'E' + Y
    1 FD41  53          	  DB	'S' + Y
    1 FD42  45          	  DB	'E' + Y
    1 FD43  54          	  DB	'T' + Y
 2531                   	TOKEN	BLOAD		; E6
    1 FD44  C2          	  DB	'B' + Y
    1 FD45  4C          	  DB	'L' + Y
    1 FD46  4F          	  DB	'O' + Y
    1 FD47  41          	  DB	'A' + Y
    1 FD48  44          	  DB	'D' + Y
 2532                   	TOKEN	VPEEK		; E7
    1 FD49  D6          	  DB	'V' + Y
    1 FD4A  50          	  DB	'P' + Y
SLR180 SuperFast Relocating Macro Assembler     			    SLR180 1.31 Page 185
CF48    INC

    1 FD4B  45          	  DB	'E' + Y
    1 FD4C  45          	  DB	'E' + Y
    1 FD4D  4B          	  DB	'K' + Y
 2533                   	TOKEN	VPOKE		; E8
    1 FD4E  D6          	  DB	'V' + Y
    1 FD4F  50          	  DB	'P' + Y
    1 FD50  4F          	  DB	'O' + Y
    1 FD51  4B          	  DB	'K' + Y
    1 FD52  45          	  DB	'E' + Y
 2534                   	TOKEN	LOCATE		; E9
    1 FD53  CC          	  DB	'L' + Y
    1 FD54  4F          	  DB	'O' + Y
    1 FD55  43          	  DB	'C' + Y
    1 FD56  41          	  DB	'A' + Y
    1 FD57  54          	  DB	'T' + Y
    1 FD58  45          	  DB	'E' + Y
 2535                   	TOKEN	KEYLIST		; EA
    1 FD59  CB          	  DB	'K' + Y
    1 FD5A  45          	  DB	'E' + Y
    1 FD5B  59          	  DB	'Y' + Y
    1 FD5C  4C          	  DB	'L' + Y
    1 FD5D  49          	  DB	'I' + Y
    1 FD5E  53          	  DB	'S' + Y
    1 FD5F  54          	  DB	'T' + Y
 2536                   	TOKEN	KEY		; EB
    1 FD60  CB          	  DB	'K' + Y
    1 FD61  45          	  DB	'E' + Y
    1 FD62  59          	  DB	'Y' + Y
 2537                   	TOKEN	SWITCH		; EC
    1 FD63  D3          	  DB	'S' + Y
    1 FD64  57          	  DB	'W' + Y
    1 FD65  49          	  DB	'I' + Y
    1 FD66  54          	  DB	'T' + Y
    1 FD67  43          	  DB	'C' + Y
    1 FD68  48          	  DB	'H' + Y
 2538                   	TOKEN	PTEST		; ED
    1 FD69  D0          	  DB	'P' + Y
    1 FD6A  54          	  DB	'T' + Y
    1 FD6B  45          	  DB	'E' + Y
    1 FD6C  53          	  DB	'S' + Y
    1 FD6D  54          	  DB	'T' + Y
 2539                   	TOKEN	CLOSE		; EE
    1 FD6E  C3          	  DB	'C' + Y
    1 FD6F  4C          	  DB	'L' + Y
    1 FD70  4F          	  DB	'O' + Y
    1 FD71  53          	  DB	'S' + Y
    1 FD72  45          	  DB	'E' + Y
 2540                   	TOKEN	OPEN		; EF
    1 FD73  CF          	  DB	'O' + Y
    1 FD74  50          	  DB	'P' + Y
    1 FD75  45          	  DB	'E' + Y
    1 FD76  4E          	  DB	'N' + Y
 2541                   	TOKEN	RANDOMIZE	; F0
    1 FD77  D2          	  DB	'R' + Y
    1 FD78  41          	  DB	'A' + Y
    1 FD79  4E          	  DB	'N' + Y
    1 FD7A  44          	  DB	'D' + Y
    1 FD7B  4F          	  DB	'O' + Y
SLR180 SuperFast Relocating Macro Assembler     			    SLR180 1.31 Page 186
CF48    INC

    1 FD7C  4D          	  DB	'M' + Y
    1 FD7D  49          	  DB	'I' + Y
    1 FD7E  5A          	  DB	'Z' + Y
    1 FD7F  45          	  DB	'E' + Y
 2542                   	TOKEN	VGET$		; F1
    1 FD80  D6          	  DB	'V' + Y
    1 FD81  47          	  DB	'G' + Y
    1 FD82  45          	  DB	'E' + Y
    1 FD83  54          	  DB	'T' + Y
    1 FD84  24          	  DB	'$' + Y
 2543                   	TOKEN	LINE		; F2
    1 FD85  CC          	  DB	'L' + Y
    1 FD86  49          	  DB	'I' + Y
    1 FD87  4E          	  DB	'N' + Y
    1 FD88  45          	  DB	'E' + Y
 2544                   	TOKEN	CIRCLE		; F3
    1 FD89  C3          	  DB	'C' + Y
    1 FD8A  49          	  DB	'I' + Y
    1 FD8B  52          	  DB	'R' + Y
    1 FD8C  43          	  DB	'C' + Y
    1 FD8D  4C          	  DB	'L' + Y
    1 FD8E  45          	  DB	'E' + Y
 2545                   	TOKEN	CSRLIN		; F4 bis hierher in CAOS 3.1 bis 4.4
    1 FD8F  C3          	  DB	'C' + Y
    1 FD90  53          	  DB	'S' + Y
    1 FD91  52          	  DB	'R' + Y
    1 FD92  4C          	  DB	'L' + Y
    1 FD93  49          	  DB	'I' + Y
    1 FD94  4E          	  DB	'N' + Y
 2546                   	TOKEN	DEVICE		; F5 (DRIVE in CAOS 4.5, 4.6 und HCBASIC.COM)
    1 FD95  C4          	  DB	'D' + Y
    1 FD96  45          	  DB	'E' + Y
    1 FD97  56          	  DB	'V' + Y
    1 FD98  49          	  DB	'I' + Y
    1 FD99  43          	  DB	'C' + Y
    1 FD9A  45          	  DB	'E' + Y
 2547                   	TOKEN	FILES		; F6
    1 FD9B  C6          	  DB	'F' + Y
    1 FD9C  49          	  DB	'I' + Y
    1 FD9D  4C          	  DB	'L' + Y
    1 FD9E  45          	  DB	'E' + Y
    1 FD9F  53          	  DB	'S' + Y
 2548                   	TOKEN	CHDIR		; F7 bis hierher in CAOS 4.7
    1 FDA0  C3          	  DB	'C' + Y
    1 FDA1  48          	  DB	'H' + Y
    1 FDA2  44          	  DB	'D' + Y
    1 FDA3  49          	  DB	'I' + Y
    1 FDA4  52          	  DB	'R' + Y
 2549 FDA5  80          	DB	80H		; Ende-Kennung
 2550                   ;
 2551                   ; zugehoerige Sprungtabelle fuer BASIC-Token
 2552                   ;
 2553 FDA6  E9B3        TOKJP:	DW	INKEY		; D5
 2554 FDA8  EC2A        	DW	JOYST		; D6
 2555 FDAA  E62A        	DW	STRING		; D7
 2556 FDAC  EA7B        	DW	INSTR		; D8
 2557 FDAE  E689        TADR5:	DW	RENUM		; D9
 2558 FDB0  E868        	DW	DELETE		; DA
SLR180 SuperFast Relocating Macro Assembler     			    SLR180 1.31 Page 187
CF48    INC

 2559 FDB2  E88C        	DW	PAUSE		; DB
 2560 FDB4  E8BC        	DW	BBEEP		; DC
 2561 FDB6  E8D7        	DW	WINDOW		; DD
 2562 FDB8  D421        	DW	ARGVL1		; DE (BORDER)
 2563 FDBA  E9D1        	DW	INK		; DF
 2564 FDBC  E9F2        	DW	PAPER		; E0
 2565 FDBE  C348        	DW	SNER		; E1 (Funktion AT)
 2566 FDC0  E9E3        	DW	BCOLOR		; E2
 2567 FDC2  EA41        	DW	SOUND		; E3
 2568 FDC4  EA09        	DW	PSET		; E4
 2569 FDC6  EA06        	DW	PRESET		; E5
 2570 FDC8  ECDE        	DW	BLOAD		; E6
 2571 FDCA  C348        	DW	SNER		; E7 (Funktion VPEEK)
 2572 FDCC  E912        	DW	VPOKE		; E8
 2573 FDCE  E982        	DW	LOCATE		; E9
 2574 FDD0  EAF0        	DW	KEYLIST		; EA
 2575 FDD2  EAE5        	DW	BKEY		; EB
 2576 FDD4  EAFC        	DW	SWITCH		; EC
 2577 FDD6  C348        	DW	SNER		; ED (Funktion PTEST)
 2578 FDD8  EBF2        	DW	CLOSE		; EE
 2579 FDDA  EC5E        	DW	OPEN		; EF
 2580 FDDC  EC53        	DW	RANDOM		; F0
 2581 FDDE  C348        	DW	SNER		; F1 (Funktion VGET)
 2582 FDE0  EC93        	DW	BLINE		; F2
 2583 FDE2  EC98        	DW	CIRCLE		; F3
 2584 FDE4  C348        	DW	SNER		; F4 (Funktion CSRLIN)
 2585 FDE6  ECBF        	DW	BDEV		; F5 Speichergeraet einstellen
 2586 FDE8  ED02        	DW	FILES		; F6 Verzeichnis anzeigen
 2587 FDEA  ED1D        	DW	CHDIR		; F7 Verzeichnis wechseln
 2588 FDEC              TOKJPE:				; F8-FF noch frei
 2589                   
 2590                   	ABSFILL	0FDF8h,<ROM-F-Ende>
    7 FDEC  FF FF FF FF 	  DS	0FDF8h - $,0FFh
 2591                   
 2592                   ; Adresse FDF8h fest - wird von anderen Programmen (z.B. TEMO) mit genutzt!
 2593                   
 2594 FDF8  80 40 20 10 BITTAB:	DB	80H,40H,20H,10H,8,4,2,1
  251 FE00              SMALL:
  252         0000      if duenn
  254                   else
  255                   	INCLUDE	ZSKLEIN.INC	; Zeichensatz Kleinbuchstaben Standard
    1                   ;*****************************************
    2                   ;**	CAOS 4.8 Zeichensatz Klein	**
    3                   ;**					**
    4                   ;**	Adresse:  FE00h bis FFFFh	**
    5                   ;**	Codes 00h-1Fh und 60h-7Fh	**
    6                   ;**					**
    7                   ;**	letzte Aenderung: 28.05.2021	**
    8                   ;*****************************************
    9                   
   10 FE00  00 00 00 00 	DB	000H, 000H, 000H, 000H, 000H, 000H, 082H, 0FEH	; 00H Dummy
   11 FE08  00 00 22 72 	DB	000H, 000H, 022H, 072H, 022H, 03EH, 000H, 000H	; 01H Backspace
   12 FE10  00 32 62 FE 	DB	000H, 032H, 062H, 0FEH, 062H, 032H, 000H, 000H	; 02H Zeile loeschen
   13 FE18  7E 81 B9 A5 	DB	07EH, 081H, 0B9H, 0A5H, 0B9H, 0A5H, 0B9H, 081H	; 03H Break
   14 FE20  55 FF 55 FF 	DB	055H, 0FFH, 055H, 0FFH, 055H, 0FFH, 055H, 0FFH	; 04H
   15 FE28  AA AA AA AA 	DB	0AAH, 0AAH, 0AAH, 0AAH, 0AAH, 0AAH, 0AAH, 0AAH	; 05H
   16 FE30  FF 00 FF 00 	DB	0FFH, 000H, 0FFH, 000H, 0FFH, 000H, 0FFH, 000H	; 06H
   17 FE38  00 00 3C 42 	DB	000H, 000H, 03CH, 042H, 042H, 07EH, 000H, 000H	; 07H Beep
SLR180 SuperFast Relocating Macro Assembler     			    SLR180 1.31 Page 188
ZSKLEIN INC

   18 FE40  00 30 60 FE 	DB	000H, 030H, 060H, 0FEH, 060H, 030H, 000H, 000H	; 08H Cursor links
   19 FE48  00 18 0C FE 	DB	000H, 018H, 00CH, 0FEH, 00CH, 018H, 000H, 000H	; 09H Cursor rechts
   20 FE50  10 10 10 54 	DB	010H, 010H, 010H, 054H, 07CH, 038H, 010H, 000H	; 0AH Cursor unten
   21 FE58  10 38 7C 54 	DB	010H, 038H, 07CH, 054H, 010H, 010H, 010H, 000H	; 0BH Cursor oben
   22 FE60  70 60 50 10 	DB	070H, 060H, 050H, 010H, 010H, 010H, 07CH, 000H	; 0CH Bildschirm loeschen
   23 FE68  00 02 1A 32 	DB	000H, 002H, 01AH, 032H, 07EH, 030H, 018H, 000H	; 0DH Enter
   24 FE70  AA 55 AA 55 	DB	0AAH, 055H, 0AAH, 055H, 0AAH, 055H, 0AAH, 055H	; 0EH
   25 FE78  3E 7C 7C 3E 	DB	03EH, 07CH, 07CH, 03EH, 03EH, 07CH, 0F8H, 0F8H	; 0FH Hardcopy
   26                   
   27 FE80  38 30 28 04 	DB	038H, 030H, 028H, 004H, 004H, 004H, 004H, 000H	; 10H Cursor Home
   28 FE88  FE 10 38 7C 	DB	0FEH, 010H, 038H, 07CH, 054H, 010H, 010H, 000H	; 11H Page-Modus
   29 FE90  10 10 54 7C 	DB	010H, 010H, 054H, 07CH, 038H, 010H, 0FEH, 000H	; 12H Scroll-Modus
   30 FE98  7E 81 9D A1 	DB	07EH, 081H, 09DH, 0A1H, 099H, 085H, 0B9H, 081H	; 13H Stop
   31 FEA0  00 3C 42 5A 	DB	000H, 03CH, 042H, 05AH, 05AH, 042H, 03CH, 000H	; 14H Tastenclick
   32 FEA8  88 44 22 11 	DB	088H, 044H, 022H, 011H, 088H, 044H, 022H, 011H	; 15H
   33 FEB0  00 FE 44 E4 	DB	000H, 0FEH, 044H, 0E4H, 04EH, 044H, 0FEH, 000H	; 16H Shift-Lock
   34 FEB8  11 22 44 88 	DB	011H, 022H, 044H, 088H, 011H, 022H, 044H, 088H	; 17H
   35 FEC0  02 32 1A FE 	DB	002H, 032H, 01AH, 0FEH, 01AH, 032H, 002H, 000H	; 18H Cursor an Zeilenende
   36 FEC8  80 98 B0 FE 	DB	080H, 098H, 0B0H, 0FEH, 0B0H, 098H, 080H, 000H	; 19H Cursor an Zeilenanfang
   37 FED0  00 08 7C 06 	DB	000H, 008H, 07CH, 006H, 07CH, 008H, 000H, 000H	; 1AH INS
   38 FED8  CC CC 33 33 	DB	0CCH, 0CCH, 033H, 033H, 0CCH, 0CCH, 033H, 033H	; 1BH ESC
   39 FEE0  7E 81 A1 A1 	DB	07EH, 081H, 0A1H, 0A1H, 0A1H, 0A1H, 0BDH, 081H	; 1CH List
   40 FEE8  7E 81 B9 A5 	DB	07EH, 081H, 0B9H, 0A5H, 0B9H, 0A5H, 0A5H, 081H	; 1DH Run
   41 FEF0  7E 81 99 A5 	DB	07EH, 081H, 099H, 0A5H, 0A1H, 0A5H, 099H, 081H	; 1EH Cont
   42 FEF8  00 10 3E 60 	DB	000H, 010H, 03EH, 060H, 03EH, 010H, 000H, 000H	; 1FH DEL
   43                   
   44 FF00  3C 42 99 A1 	DB	03CH, 042H, 099H, 0A1H, 0A1H, 099H, 042H, 03CH	; 60H (c)
   45 FF08  00 00 78 0C 	DB	000H, 000H, 078H, 00CH, 07CH, 0CCH, 076H, 000H	; 61H a
   46 FF10  E0 60 7C 66 	DB	0E0H, 060H, 07CH, 066H, 066H, 066H, 0DCH, 000H	; 62H b
   47 FF18  00 00 78 CC 	DB	000H, 000H, 078H, 0CCH, 0C0H, 0CCH, 078H, 000H	; 63H c
   48 FF20  1C 0C 7C CC 	DB	01CH, 00CH, 07CH, 0CCH, 0CCH, 0CCH, 076H, 000H	; 64H d
   49 FF28  00 00 78 CC 	DB	000H, 000H, 078H, 0CCH, 0FCH, 0C0H, 078H, 000H	; 65H e
   50 FF30  38 6C 60 F0 	DB	038H, 06CH, 060H, 0F0H, 060H, 060H, 0F0H, 000H	; 66H f
   51 FF38  00 00 76 CC 	DB	000H, 000H, 076H, 0CCH, 0CCH, 07CH, 00CH, 0F8H	; 67H g
   52 FF40  E0 60 6C 76 	DB	0E0H, 060H, 06CH, 076H, 066H, 066H, 0E6H, 000H	; 68H h
   53 FF48  30 00 70 30 	DB	030H, 000H, 070H, 030H, 030H, 030H, 0FCH, 000H	; 69H i
   54 FF50  0C 00 1C 0C 	DB	00CH, 000H, 01CH, 00CH, 00CH, 0CCH, 0CCH, 078H	; 6AH j
   55 FF58  E0 60 66 6C 	DB	0E0H, 060H, 066H, 06CH, 078H, 06CH, 0E6H, 000H	; 6BH k
   56 FF60  70 30 30 30 	DB	070H, 030H, 030H, 030H, 030H, 030H, 0FCH, 000H	; 6CH l
   57 FF68  00 00 CC FE 	DB	000H, 000H, 0CCH, 0FEH, 0FEH, 0D6H, 0C6H, 000H	; 6DH m
   58 FF70  00 00 F8 CC 	DB	000H, 000H, 0F8H, 0CCH, 0CCH, 0CCH, 0CCH, 000H	; 6EH n
   59 FF78  00 00 78 CC 	DB	000H, 000H, 078H, 0CCH, 0CCH, 0CCH, 078H, 000H	; 6FH o
   60                   
   61 FF80  00 00 DC 66 	DB	000H, 000H, 0DCH, 066H, 066H, 07CH, 060H, 0F0H	; 70H p
   62 FF88  00 00 76 CC 	DB	000H, 000H, 076H, 0CCH, 0CCH, 07CH, 00CH, 01EH	; 71H q
   63 FF90  00 00 DC 76 	DB	000H, 000H, 0DCH, 076H, 066H, 060H, 0F0H, 000H	; 72H r
   64 FF98  00 00 7C C0 	DB	000H, 000H, 07CH, 0C0H, 078H, 00CH, 0F8H, 000H	; 73H s
   65 FFA0  10 30 7C 30 	DB	010H, 030H, 07CH, 030H, 030H, 034H, 018H, 000H	; 74H t
   66 FFA8  00 00 CC CC 	DB	000H, 000H, 0CCH, 0CCH, 0CCH, 0CCH, 076H, 000H	; 75H u
   67 FFB0  00 00 CC CC 	DB	000H, 000H, 0CCH, 0CCH, 0CCH, 078H, 030H, 000H	; 76H v
   68 FFB8  00 00 C6 D6 	DB	000H, 000H, 0C6H, 0D6H, 0FEH, 0FEH, 06CH, 000H	; 77H w
   69 FFC0  00 00 C6 6C 	DB	000H, 000H, 0C6H, 06CH, 038H, 06CH, 0C6H, 000H	; 78H x
   70 FFC8  00 00 CC CC 	DB	000H, 000H, 0CCH, 0CCH, 0CCH, 07CH, 00CH, 0F8H	; 79H y
   71 FFD0  00 00 FC 98 	DB	000H, 000H, 0FCH, 098H, 030H, 064H, 0FCH, 000H	; 7AH z
   72 FFD8  6C 00 78 0C 	DB	06CH, 000H, 078H, 00CH, 07CH, 0CCH, 076H, 000H	; 7BH ae
   73 FFE0  CC 00 78 CC 	DB	0CCH, 000H, 078H, 0CCH, 0CCH, 0CCH, 078H, 000H	; 7CH oe
   74 FFE8  CC 00 CC CC 	DB	0CCH, 000H, 0CCH, 0CCH, 0CCH, 0CCH, 076H, 000H	; 7DH ue
   75 FFF0  3C 66 66 6C 	DB	03CH, 066H, 066H, 06CH, 066H, 066H, 06CH, 0F0H	; 7EH sz
SLR180 SuperFast Relocating Macro Assembler     			    SLR180 1.31 Page 189
ZSKLEIN INC

   76 FFF8  FF 81 81 81 	DB	0FFH, 081H, 081H, 081H, 081H, 081H, 081H, 0FFH	; 7FH
  256                   endif
  257                   	.DEPHASE
  258                   
    2                   	END
 0 Error(s) Detected.
 16512 Absolute Bytes. 1304 Symbols Detected.
 	DB	000H, 000H, 0C6H, 0D6H, 0FEH, 0FEH, 06CH, 000H	; 77H w
   69 FFC0  00 00 C6 6C 	DB	000H, 000H